
Build/main.elf:     file format elf32-littlearm

Sections:
Idx Name          Size      VMA       LMA       File off  Algn
  0 .text         0000543c  08000000  08000000  00001000  2**2
                  CONTENTS, ALLOC, LOAD, READONLY, CODE
  1 .data         00000004  20000000  0800543c  00007000  2**2
                  CONTENTS, ALLOC, LOAD, DATA
  2 .bss          00002960  20000004  08005440  00007004  2**2
                  ALLOC
  3 .debug_info   0000615d  00000000  00000000  00007004  2**0
                  CONTENTS, READONLY, DEBUGGING, OCTETS
  4 .debug_abbrev 00001587  00000000  00000000  0000d161  2**0
                  CONTENTS, READONLY, DEBUGGING, OCTETS
  5 .debug_aranges 00000178  00000000  00000000  0000e6e8  2**0
                  CONTENTS, READONLY, DEBUGGING, OCTETS
  6 .debug_line   00003ac8  00000000  00000000  0000e860  2**0
                  CONTENTS, READONLY, DEBUGGING, OCTETS
  7 .debug_str    0000255c  00000000  00000000  00012328  2**0
                  CONTENTS, READONLY, DEBUGGING, OCTETS
  8 .comment      00000046  00000000  00000000  00014884  2**0
                  CONTENTS, READONLY
  9 .ARM.attributes 00000032  00000000  00000000  000148ca  2**0
                  CONTENTS, READONLY
 10 .debug_frame  00001a08  00000000  00000000  000148fc  2**2
                  CONTENTS, READONLY, DEBUGGING, OCTETS
 11 .debug_rnglists 0000001c  00000000  00000000  00016304  2**0
                  CONTENTS, READONLY, DEBUGGING, OCTETS

Disassembly of section .text:

08000000 <vApplicationMallocFailedHook-0x40>:
 8000000:	20020000 	.word	0x20020000
 8000004:	080053d5 	.word	0x080053d5
 8000008:	08005415 	.word	0x08005415
 800000c:	08005415 	.word	0x08005415
 8000010:	08005415 	.word	0x08005415
	...
 800002c:	08004ca9 	.word	0x08004ca9
	...
 8000038:	08004dd9 	.word	0x08004dd9
 800003c:	08004e37 	.word	0x08004e37

08000040 <vApplicationMallocFailedHook>:
#include "FreeRTOS.h"
#include "task.h"

void vApplicationMallocFailedHook( void )
{
 8000040:	b480      	push	{r7}
 8000042:	b083      	sub	sp, #12
 8000044:	af00      	add	r7, sp, #0

portFORCE_INLINE static void vPortRaiseBASEPRI( void )
{
    uint32_t ulNewBASEPRI;

    __asm volatile
 8000046:	f04f 0350 	mov.w	r3, #80	@ 0x50
 800004a:	f383 8811 	msr	BASEPRI, r3
 800004e:	f3bf 8f6f 	isb	sy
 8000052:	f3bf 8f4f 	dsb	sy
 8000056:	607b      	str	r3, [r7, #4]
        "   msr basepri, %0                                         \n" \
        "   isb                                                     \n" \
        "   dsb                                                     \n" \
        : "=r" ( ulNewBASEPRI ) : "i" ( configMAX_SYSCALL_INTERRUPT_PRIORITY ) : "memory"
    );
}
 8000058:	bf00      	nop
    taskDISABLE_INTERRUPTS();
    for( ;; );
 800005a:	bf00      	nop
 800005c:	e7fd      	b.n	800005a <vApplicationMallocFailedHook+0x1a>

0800005e <vApplicationStackOverflowHook>:
}

void vApplicationStackOverflowHook( TaskHandle_t xTask,
                                    char * pcTaskName )
{
 800005e:	b480      	push	{r7}
 8000060:	b085      	sub	sp, #20
 8000062:	af00      	add	r7, sp, #0
 8000064:	6078      	str	r0, [r7, #4]
 8000066:	6039      	str	r1, [r7, #0]
    __asm volatile
 8000068:	f04f 0350 	mov.w	r3, #80	@ 0x50
 800006c:	f383 8811 	msr	BASEPRI, r3
 8000070:	f3bf 8f6f 	isb	sy
 8000074:	f3bf 8f4f 	dsb	sy
 8000078:	60fb      	str	r3, [r7, #12]
}
 800007a:	bf00      	nop
    ( void ) xTask;
    ( void ) pcTaskName;
    taskDISABLE_INTERRUPTS();
    for( ;; );
 800007c:	bf00      	nop
 800007e:	e7fd      	b.n	800007c <vApplicationStackOverflowHook+0x1e>

08000080 <main>:
static void vCounterTask(void *ptr_param);

volatile uint32_t g_counter = 0;

int main(void)
{
 8000080:	b580      	push	{r7, lr}
 8000082:	b082      	sub	sp, #8
 8000084:	af02      	add	r7, sp, #8
    // Enable GPIOA clock
    RCC_AHB1ENR |= (1U << 0);
 8000086:	4b15      	ldr	r3, [pc, #84]	@ (80000dc <main+0x5c>)
 8000088:	681b      	ldr	r3, [r3, #0]
 800008a:	4a14      	ldr	r2, [pc, #80]	@ (80000dc <main+0x5c>)
 800008c:	f043 0301 	orr.w	r3, r3, #1
 8000090:	6013      	str	r3, [r2, #0]

    // Configure PA5 as output
    GPIOA_MODER &= ~(3U << 10);
 8000092:	4b13      	ldr	r3, [pc, #76]	@ (80000e0 <main+0x60>)
 8000094:	681b      	ldr	r3, [r3, #0]
 8000096:	4a12      	ldr	r2, [pc, #72]	@ (80000e0 <main+0x60>)
 8000098:	f423 6340 	bic.w	r3, r3, #3072	@ 0xc00
 800009c:	6013      	str	r3, [r2, #0]
    GPIOA_MODER |=  (1U << 10);
 800009e:	4b10      	ldr	r3, [pc, #64]	@ (80000e0 <main+0x60>)
 80000a0:	681b      	ldr	r3, [r3, #0]
 80000a2:	4a0f      	ldr	r2, [pc, #60]	@ (80000e0 <main+0x60>)
 80000a4:	f443 6380 	orr.w	r3, r3, #1024	@ 0x400
 80000a8:	6013      	str	r3, [r2, #0]

    // Create LED task - higher priority
    xTaskCreate(vLedTask, "LED", 128, 0, 1, 0);
 80000aa:	2300      	movs	r3, #0
 80000ac:	9301      	str	r3, [sp, #4]
 80000ae:	2301      	movs	r3, #1
 80000b0:	9300      	str	r3, [sp, #0]
 80000b2:	2300      	movs	r3, #0
 80000b4:	2280      	movs	r2, #128	@ 0x80
 80000b6:	490b      	ldr	r1, [pc, #44]	@ (80000e4 <main+0x64>)
 80000b8:	480b      	ldr	r0, [pc, #44]	@ (80000e8 <main+0x68>)
 80000ba:	f001 fff3 	bl	80020a4 <xTaskCreate>

    // Create Counter task - lower priority
    xTaskCreate(vCounterTask, "Counter", 256, 0, 1, 0);
 80000be:	2300      	movs	r3, #0
 80000c0:	9301      	str	r3, [sp, #4]
 80000c2:	2301      	movs	r3, #1
 80000c4:	9300      	str	r3, [sp, #0]
 80000c6:	2300      	movs	r3, #0
 80000c8:	f44f 7280 	mov.w	r2, #256	@ 0x100
 80000cc:	4907      	ldr	r1, [pc, #28]	@ (80000ec <main+0x6c>)
 80000ce:	4808      	ldr	r0, [pc, #32]	@ (80000f0 <main+0x70>)
 80000d0:	f001 ffe8 	bl	80020a4 <xTaskCreate>

    vTaskStartScheduler();
 80000d4:	f002 fbea 	bl	80028ac <vTaskStartScheduler>

    for (;;);
 80000d8:	bf00      	nop
 80000da:	e7fd      	b.n	80000d8 <main+0x58>
 80000dc:	40023830 	.word	0x40023830
 80000e0:	40020000 	.word	0x40020000
 80000e4:	08005418 	.word	0x08005418
 80000e8:	080000f5 	.word	0x080000f5
 80000ec:	0800541c 	.word	0x0800541c
 80000f0:	08000119 	.word	0x08000119

080000f4 <vLedTask>:
}

static void vLedTask(void *ptr_param)
{
 80000f4:	b580      	push	{r7, lr}
 80000f6:	b082      	sub	sp, #8
 80000f8:	af00      	add	r7, sp, #0
 80000fa:	6078      	str	r0, [r7, #4]
    (void)ptr_param;

    for (;;)
    {
        GPIOA_ODR ^= (1U << 5);        
 80000fc:	4b05      	ldr	r3, [pc, #20]	@ (8000114 <vLedTask+0x20>)
 80000fe:	681b      	ldr	r3, [r3, #0]
 8000100:	4a04      	ldr	r2, [pc, #16]	@ (8000114 <vLedTask+0x20>)
 8000102:	f083 0320 	eor.w	r3, r3, #32
 8000106:	6013      	str	r3, [r2, #0]
        vTaskDelay(pdMS_TO_TICKS(100));
 8000108:	2064      	movs	r0, #100	@ 0x64
 800010a:	f002 f983 	bl	8002414 <vTaskDelay>
        GPIOA_ODR ^= (1U << 5);        
 800010e:	bf00      	nop
 8000110:	e7f4      	b.n	80000fc <vLedTask+0x8>
 8000112:	bf00      	nop
 8000114:	40020014 	.word	0x40020014

08000118 <vCounterTask>:
    }
}

static void vCounterTask(void *ptr_param)
{
 8000118:	b580      	push	{r7, lr}
 800011a:	b082      	sub	sp, #8
 800011c:	af00      	add	r7, sp, #0
 800011e:	6078      	str	r0, [r7, #4]
    (void)ptr_param;

    for (;;)
    {
        g_counter++;                   
 8000120:	4b05      	ldr	r3, [pc, #20]	@ (8000138 <vCounterTask+0x20>)
 8000122:	681b      	ldr	r3, [r3, #0]
 8000124:	3301      	adds	r3, #1
 8000126:	4a04      	ldr	r2, [pc, #16]	@ (8000138 <vCounterTask+0x20>)
 8000128:	6013      	str	r3, [r2, #0]
        vTaskDelay(pdMS_TO_TICKS(500)); 
 800012a:	f44f 70fa 	mov.w	r0, #500	@ 0x1f4
 800012e:	f002 f971 	bl	8002414 <vTaskDelay>
        g_counter++;                   
 8000132:	bf00      	nop
 8000134:	e7f4      	b.n	8000120 <vCounterTask+0x8>
 8000136:	bf00      	nop
 8000138:	20000004 	.word	0x20000004

0800013c <memcpy>:
#include <stdint.h>

void *memcpy(void *dest, const void *src, uint32_t n)
{
 800013c:	b480      	push	{r7}
 800013e:	b087      	sub	sp, #28
 8000140:	af00      	add	r7, sp, #0
 8000142:	60f8      	str	r0, [r7, #12]
 8000144:	60b9      	str	r1, [r7, #8]
 8000146:	607a      	str	r2, [r7, #4]
    uint8_t *d = (uint8_t *)dest;
 8000148:	68fb      	ldr	r3, [r7, #12]
 800014a:	617b      	str	r3, [r7, #20]
    const uint8_t *s = (const uint8_t *)src;
 800014c:	68bb      	ldr	r3, [r7, #8]
 800014e:	613b      	str	r3, [r7, #16]

    while (n--)
 8000150:	e007      	b.n	8000162 <memcpy+0x26>
    {
        *d++ = *s++;
 8000152:	693a      	ldr	r2, [r7, #16]
 8000154:	1c53      	adds	r3, r2, #1
 8000156:	613b      	str	r3, [r7, #16]
 8000158:	697b      	ldr	r3, [r7, #20]
 800015a:	1c59      	adds	r1, r3, #1
 800015c:	6179      	str	r1, [r7, #20]
 800015e:	7812      	ldrb	r2, [r2, #0]
 8000160:	701a      	strb	r2, [r3, #0]
    while (n--)
 8000162:	687b      	ldr	r3, [r7, #4]
 8000164:	1e5a      	subs	r2, r3, #1
 8000166:	607a      	str	r2, [r7, #4]
 8000168:	2b00      	cmp	r3, #0
 800016a:	d1f2      	bne.n	8000152 <memcpy+0x16>
    }

    return dest;
 800016c:	68fb      	ldr	r3, [r7, #12]
}
 800016e:	4618      	mov	r0, r3
 8000170:	371c      	adds	r7, #28
 8000172:	46bd      	mov	sp, r7
 8000174:	f85d 7b04 	ldr.w	r7, [sp], #4
 8000178:	4770      	bx	lr

0800017a <memset>:

void *memset(void *s, int c, uint32_t n)
{
 800017a:	b480      	push	{r7}
 800017c:	b087      	sub	sp, #28
 800017e:	af00      	add	r7, sp, #0
 8000180:	60f8      	str	r0, [r7, #12]
 8000182:	60b9      	str	r1, [r7, #8]
 8000184:	607a      	str	r2, [r7, #4]
    uint8_t *p = (uint8_t *)s;
 8000186:	68fb      	ldr	r3, [r7, #12]
 8000188:	617b      	str	r3, [r7, #20]

    while (n--)
 800018a:	e005      	b.n	8000198 <memset+0x1e>
    {
        *p++ = (uint8_t)c;
 800018c:	697b      	ldr	r3, [r7, #20]
 800018e:	1c5a      	adds	r2, r3, #1
 8000190:	617a      	str	r2, [r7, #20]
 8000192:	68ba      	ldr	r2, [r7, #8]
 8000194:	b2d2      	uxtb	r2, r2
 8000196:	701a      	strb	r2, [r3, #0]
    while (n--)
 8000198:	687b      	ldr	r3, [r7, #4]
 800019a:	1e5a      	subs	r2, r3, #1
 800019c:	607a      	str	r2, [r7, #4]
 800019e:	2b00      	cmp	r3, #0
 80001a0:	d1f4      	bne.n	800018c <memset+0x12>
    }

    return s;
 80001a2:	68fb      	ldr	r3, [r7, #12]
}
 80001a4:	4618      	mov	r0, r3
 80001a6:	371c      	adds	r7, #28
 80001a8:	46bd      	mov	sp, r7
 80001aa:	f85d 7b04 	ldr.w	r7, [sp], #4
 80001ae:	4770      	bx	lr

080001b0 <xEventGroupCreate>:
/*-----------------------------------------------------------*/

    #if ( configSUPPORT_DYNAMIC_ALLOCATION == 1 )

        EventGroupHandle_t xEventGroupCreate( void )
        {
 80001b0:	b580      	push	{r7, lr}
 80001b2:	b082      	sub	sp, #8
 80001b4:	af00      	add	r7, sp, #0
            traceENTER_xEventGroupCreate();

            /* MISRA Ref 11.5.1 [Malloc memory assignment] */
            /* More details at: https://github.com/FreeRTOS/FreeRTOS-Kernel/blob/main/MISRA.md#rule-115 */
            /* coverity[misra_c_2012_rule_11_5_violation] */
            pxEventBits = ( EventGroup_t * ) pvPortMalloc( sizeof( EventGroup_t ) );
 80001b6:	2018      	movs	r0, #24
 80001b8:	f004 fe88 	bl	8004ecc <pvPortMalloc>
 80001bc:	6078      	str	r0, [r7, #4]

            if( pxEventBits != NULL )
 80001be:	687b      	ldr	r3, [r7, #4]
 80001c0:	2b00      	cmp	r3, #0
 80001c2:	d007      	beq.n	80001d4 <xEventGroupCreate+0x24>
            {
                pxEventBits->uxEventBits = 0;
 80001c4:	687b      	ldr	r3, [r7, #4]
 80001c6:	2200      	movs	r2, #0
 80001c8:	601a      	str	r2, [r3, #0]
                vListInitialise( &( pxEventBits->xTasksWaitingForBits ) );
 80001ca:	687b      	ldr	r3, [r7, #4]
 80001cc:	3304      	adds	r3, #4
 80001ce:	4618      	mov	r0, r3
 80001d0:	f000 fa12 	bl	80005f8 <vListInitialise>
                traceEVENT_GROUP_CREATE_FAILED();
            }

            traceRETURN_xEventGroupCreate( pxEventBits );

            return pxEventBits;
 80001d4:	687b      	ldr	r3, [r7, #4]
        }
 80001d6:	4618      	mov	r0, r3
 80001d8:	3708      	adds	r7, #8
 80001da:	46bd      	mov	sp, r7
 80001dc:	bd80      	pop	{r7, pc}

080001de <xEventGroupSync>:

    EventBits_t xEventGroupSync( EventGroupHandle_t xEventGroup,
                                 const EventBits_t uxBitsToSet,
                                 const EventBits_t uxBitsToWaitFor,
                                 TickType_t xTicksToWait )
    {
 80001de:	b580      	push	{r7, lr}
 80001e0:	b08a      	sub	sp, #40	@ 0x28
 80001e2:	af00      	add	r7, sp, #0
 80001e4:	60f8      	str	r0, [r7, #12]
 80001e6:	60b9      	str	r1, [r7, #8]
 80001e8:	607a      	str	r2, [r7, #4]
 80001ea:	603b      	str	r3, [r7, #0]
        EventBits_t uxOriginalBitValue, uxReturn;
        EventGroup_t * pxEventBits = xEventGroup;
 80001ec:	68fb      	ldr	r3, [r7, #12]
 80001ee:	623b      	str	r3, [r7, #32]
        BaseType_t xAlreadyYielded;
        BaseType_t xTimeoutOccurred = pdFALSE;
 80001f0:	2300      	movs	r3, #0
 80001f2:	61fb      	str	r3, [r7, #28]
        {
            configASSERT( !( ( xTaskGetSchedulerState() == taskSCHEDULER_SUSPENDED ) && ( xTicksToWait != 0 ) ) );
        }
        #endif

        vTaskSuspendAll();
 80001f4:	f002 fbc0 	bl	8002978 <vTaskSuspendAll>
        {
            uxOriginalBitValue = pxEventBits->uxEventBits;
 80001f8:	6a3b      	ldr	r3, [r7, #32]
 80001fa:	681b      	ldr	r3, [r3, #0]
 80001fc:	61bb      	str	r3, [r7, #24]

            ( void ) xEventGroupSetBits( xEventGroup, uxBitsToSet );
 80001fe:	68b9      	ldr	r1, [r7, #8]
 8000200:	68f8      	ldr	r0, [r7, #12]
 8000202:	f000 f92d 	bl	8000460 <xEventGroupSetBits>

            if( ( ( uxOriginalBitValue | uxBitsToSet ) & uxBitsToWaitFor ) == uxBitsToWaitFor )
 8000206:	69ba      	ldr	r2, [r7, #24]
 8000208:	68bb      	ldr	r3, [r7, #8]
 800020a:	431a      	orrs	r2, r3
 800020c:	687b      	ldr	r3, [r7, #4]
 800020e:	4013      	ands	r3, r2
 8000210:	687a      	ldr	r2, [r7, #4]
 8000212:	429a      	cmp	r2, r3
 8000214:	d10d      	bne.n	8000232 <xEventGroupSync+0x54>
            {
                /* All the rendezvous bits are now set - no need to block. */
                uxReturn = ( uxOriginalBitValue | uxBitsToSet );
 8000216:	69ba      	ldr	r2, [r7, #24]
 8000218:	68bb      	ldr	r3, [r7, #8]
 800021a:	4313      	orrs	r3, r2
 800021c:	627b      	str	r3, [r7, #36]	@ 0x24

                /* Rendezvous always clear the bits.  They will have been cleared
                 * already unless this is the only task in the rendezvous. */
                pxEventBits->uxEventBits &= ~uxBitsToWaitFor;
 800021e:	6a3b      	ldr	r3, [r7, #32]
 8000220:	681a      	ldr	r2, [r3, #0]
 8000222:	687b      	ldr	r3, [r7, #4]
 8000224:	43db      	mvns	r3, r3
 8000226:	401a      	ands	r2, r3
 8000228:	6a3b      	ldr	r3, [r7, #32]
 800022a:	601a      	str	r2, [r3, #0]

                xTicksToWait = 0;
 800022c:	2300      	movs	r3, #0
 800022e:	603b      	str	r3, [r7, #0]
 8000230:	e013      	b.n	800025a <xEventGroupSync+0x7c>
            }
            else
            {
                if( xTicksToWait != ( TickType_t ) 0 )
 8000232:	683b      	ldr	r3, [r7, #0]
 8000234:	2b00      	cmp	r3, #0
 8000236:	d00b      	beq.n	8000250 <xEventGroupSync+0x72>
                    traceEVENT_GROUP_SYNC_BLOCK( xEventGroup, uxBitsToSet, uxBitsToWaitFor );

                    /* Store the bits that the calling task is waiting for in the
                     * task's event list item so the kernel knows when a match is
                     * found.  Then enter the blocked state. */
                    vTaskPlaceOnUnorderedEventList( &( pxEventBits->xTasksWaitingForBits ), ( uxBitsToWaitFor | eventCLEAR_EVENTS_ON_EXIT_BIT | eventWAIT_FOR_ALL_BITS ), xTicksToWait );
 8000238:	6a3b      	ldr	r3, [r7, #32]
 800023a:	1d18      	adds	r0, r3, #4
 800023c:	687b      	ldr	r3, [r7, #4]
 800023e:	f043 63a0 	orr.w	r3, r3, #83886080	@ 0x5000000
 8000242:	683a      	ldr	r2, [r7, #0]
 8000244:	4619      	mov	r1, r3
 8000246:	f002 fe8f 	bl	8002f68 <vTaskPlaceOnUnorderedEventList>

                    /* This assignment is obsolete as uxReturn will get set after
                     * the task unblocks, but some compilers mistakenly generate a
                     * warning about uxReturn being returned without being set if the
                     * assignment is omitted. */
                    uxReturn = 0;
 800024a:	2300      	movs	r3, #0
 800024c:	627b      	str	r3, [r7, #36]	@ 0x24
 800024e:	e004      	b.n	800025a <xEventGroupSync+0x7c>
                }
                else
                {
                    /* The rendezvous bits were not set, but no block time was
                     * specified - just return the current event bit value. */
                    uxReturn = pxEventBits->uxEventBits;
 8000250:	6a3b      	ldr	r3, [r7, #32]
 8000252:	681b      	ldr	r3, [r3, #0]
 8000254:	627b      	str	r3, [r7, #36]	@ 0x24
                    xTimeoutOccurred = pdTRUE;
 8000256:	2301      	movs	r3, #1
 8000258:	61fb      	str	r3, [r7, #28]
                }
            }
        }
        xAlreadyYielded = xTaskResumeAll();
 800025a:	f002 fb9b 	bl	8002994 <xTaskResumeAll>
 800025e:	6178      	str	r0, [r7, #20]

        if( xTicksToWait != ( TickType_t ) 0 )
 8000260:	683b      	ldr	r3, [r7, #0]
 8000262:	2b00      	cmp	r3, #0
 8000264:	d02c      	beq.n	80002c0 <xEventGroupSync+0xe2>
        {
            if( xAlreadyYielded == pdFALSE )
 8000266:	697b      	ldr	r3, [r7, #20]
 8000268:	2b00      	cmp	r3, #0
 800026a:	d107      	bne.n	800027c <xEventGroupSync+0x9e>
            {
                taskYIELD_WITHIN_API();
 800026c:	4b17      	ldr	r3, [pc, #92]	@ (80002cc <xEventGroupSync+0xee>)
 800026e:	f04f 5280 	mov.w	r2, #268435456	@ 0x10000000
 8000272:	601a      	str	r2, [r3, #0]
 8000274:	f3bf 8f4f 	dsb	sy
 8000278:	f3bf 8f6f 	isb	sy

            /* The task blocked to wait for its required bits to be set - at this
             * point either the required bits were set or the block time expired.  If
             * the required bits were set they will have been stored in the task's
             * event list item, and they should now be retrieved then cleared. */
            uxReturn = uxTaskResetEventItemValue();
 800027c:	f003 fb8a 	bl	8003994 <uxTaskResetEventItemValue>
 8000280:	6278      	str	r0, [r7, #36]	@ 0x24

            if( ( uxReturn & eventUNBLOCKED_DUE_TO_BIT_SET ) == ( EventBits_t ) 0 )
 8000282:	6a7b      	ldr	r3, [r7, #36]	@ 0x24
 8000284:	f003 7300 	and.w	r3, r3, #33554432	@ 0x2000000
 8000288:	2b00      	cmp	r3, #0
 800028a:	d115      	bne.n	80002b8 <xEventGroupSync+0xda>
            {
                /* The task timed out, just return the current event bit value. */
                taskENTER_CRITICAL();
 800028c:	f004 fd6f 	bl	8004d6e <vPortEnterCritical>
                {
                    uxReturn = pxEventBits->uxEventBits;
 8000290:	6a3b      	ldr	r3, [r7, #32]
 8000292:	681b      	ldr	r3, [r3, #0]
 8000294:	627b      	str	r3, [r7, #36]	@ 0x24

                    /* Although the task got here because it timed out before the
                     * bits it was waiting for were set, it is possible that since it
                     * unblocked another task has set the bits.  If this is the case
                     * then it needs to clear the bits before exiting. */
                    if( ( uxReturn & uxBitsToWaitFor ) == uxBitsToWaitFor )
 8000296:	6a7a      	ldr	r2, [r7, #36]	@ 0x24
 8000298:	687b      	ldr	r3, [r7, #4]
 800029a:	4013      	ands	r3, r2
 800029c:	687a      	ldr	r2, [r7, #4]
 800029e:	429a      	cmp	r2, r3
 80002a0:	d106      	bne.n	80002b0 <xEventGroupSync+0xd2>
                    {
                        pxEventBits->uxEventBits &= ~uxBitsToWaitFor;
 80002a2:	6a3b      	ldr	r3, [r7, #32]
 80002a4:	681a      	ldr	r2, [r3, #0]
 80002a6:	687b      	ldr	r3, [r7, #4]
 80002a8:	43db      	mvns	r3, r3
 80002aa:	401a      	ands	r2, r3
 80002ac:	6a3b      	ldr	r3, [r7, #32]
 80002ae:	601a      	str	r2, [r3, #0]
                    else
                    {
                        mtCOVERAGE_TEST_MARKER();
                    }
                }
                taskEXIT_CRITICAL();
 80002b0:	f004 fd78 	bl	8004da4 <vPortExitCritical>

                xTimeoutOccurred = pdTRUE;
 80002b4:	2301      	movs	r3, #1
 80002b6:	61fb      	str	r3, [r7, #28]
                /* The task unblocked because the bits were set. */
            }

            /* Control bits might be set as the task had blocked should not be
             * returned. */
            uxReturn &= ~eventEVENT_BITS_CONTROL_BYTES;
 80002b8:	6a7b      	ldr	r3, [r7, #36]	@ 0x24
 80002ba:	f023 437f 	bic.w	r3, r3, #4278190080	@ 0xff000000
 80002be:	627b      	str	r3, [r7, #36]	@ 0x24
        /* Prevent compiler warnings when trace macros are not used. */
        ( void ) xTimeoutOccurred;

        traceRETURN_xEventGroupSync( uxReturn );

        return uxReturn;
 80002c0:	6a7b      	ldr	r3, [r7, #36]	@ 0x24
    }
 80002c2:	4618      	mov	r0, r3
 80002c4:	3728      	adds	r7, #40	@ 0x28
 80002c6:	46bd      	mov	sp, r7
 80002c8:	bd80      	pop	{r7, pc}
 80002ca:	bf00      	nop
 80002cc:	e000ed04 	.word	0xe000ed04

080002d0 <xEventGroupWaitBits>:
    EventBits_t xEventGroupWaitBits( EventGroupHandle_t xEventGroup,
                                     const EventBits_t uxBitsToWaitFor,
                                     const BaseType_t xClearOnExit,
                                     const BaseType_t xWaitForAllBits,
                                     TickType_t xTicksToWait )
    {
 80002d0:	b580      	push	{r7, lr}
 80002d2:	b08c      	sub	sp, #48	@ 0x30
 80002d4:	af00      	add	r7, sp, #0
 80002d6:	60f8      	str	r0, [r7, #12]
 80002d8:	60b9      	str	r1, [r7, #8]
 80002da:	607a      	str	r2, [r7, #4]
 80002dc:	603b      	str	r3, [r7, #0]
        EventGroup_t * pxEventBits = xEventGroup;
 80002de:	68fb      	ldr	r3, [r7, #12]
 80002e0:	627b      	str	r3, [r7, #36]	@ 0x24
        EventBits_t uxReturn, uxControlBits = 0;
 80002e2:	2300      	movs	r3, #0
 80002e4:	62bb      	str	r3, [r7, #40]	@ 0x28
        BaseType_t xWaitConditionMet, xAlreadyYielded;
        BaseType_t xTimeoutOccurred = pdFALSE;
 80002e6:	2300      	movs	r3, #0
 80002e8:	623b      	str	r3, [r7, #32]
        {
            configASSERT( !( ( xTaskGetSchedulerState() == taskSCHEDULER_SUSPENDED ) && ( xTicksToWait != 0 ) ) );
        }
        #endif

        vTaskSuspendAll();
 80002ea:	f002 fb45 	bl	8002978 <vTaskSuspendAll>
        {
            const EventBits_t uxCurrentEventBits = pxEventBits->uxEventBits;
 80002ee:	6a7b      	ldr	r3, [r7, #36]	@ 0x24
 80002f0:	681b      	ldr	r3, [r3, #0]
 80002f2:	61fb      	str	r3, [r7, #28]

            /* Check to see if the wait condition is already met or not. */
            xWaitConditionMet = prvTestWaitCondition( uxCurrentEventBits, uxBitsToWaitFor, xWaitForAllBits );
 80002f4:	683a      	ldr	r2, [r7, #0]
 80002f6:	68b9      	ldr	r1, [r7, #8]
 80002f8:	69f8      	ldr	r0, [r7, #28]
 80002fa:	f000 f95a 	bl	80005b2 <prvTestWaitCondition>
 80002fe:	61b8      	str	r0, [r7, #24]

            if( xWaitConditionMet != pdFALSE )
 8000300:	69bb      	ldr	r3, [r7, #24]
 8000302:	2b00      	cmp	r3, #0
 8000304:	d00e      	beq.n	8000324 <xEventGroupWaitBits+0x54>
            {
                /* The wait condition has already been met so there is no need to
                 * block. */
                uxReturn = uxCurrentEventBits;
 8000306:	69fb      	ldr	r3, [r7, #28]
 8000308:	62fb      	str	r3, [r7, #44]	@ 0x2c
                xTicksToWait = ( TickType_t ) 0;
 800030a:	2300      	movs	r3, #0
 800030c:	63bb      	str	r3, [r7, #56]	@ 0x38

                /* Clear the wait bits if requested to do so. */
                if( xClearOnExit != pdFALSE )
 800030e:	687b      	ldr	r3, [r7, #4]
 8000310:	2b00      	cmp	r3, #0
 8000312:	d028      	beq.n	8000366 <xEventGroupWaitBits+0x96>
                {
                    pxEventBits->uxEventBits &= ~uxBitsToWaitFor;
 8000314:	6a7b      	ldr	r3, [r7, #36]	@ 0x24
 8000316:	681a      	ldr	r2, [r3, #0]
 8000318:	68bb      	ldr	r3, [r7, #8]
 800031a:	43db      	mvns	r3, r3
 800031c:	401a      	ands	r2, r3
 800031e:	6a7b      	ldr	r3, [r7, #36]	@ 0x24
 8000320:	601a      	str	r2, [r3, #0]
 8000322:	e020      	b.n	8000366 <xEventGroupWaitBits+0x96>
                else
                {
                    mtCOVERAGE_TEST_MARKER();
                }
            }
            else if( xTicksToWait == ( TickType_t ) 0 )
 8000324:	6bbb      	ldr	r3, [r7, #56]	@ 0x38
 8000326:	2b00      	cmp	r3, #0
 8000328:	d104      	bne.n	8000334 <xEventGroupWaitBits+0x64>
            {
                /* The wait condition has not been met, but no block time was
                 * specified, so just return the current value. */
                uxReturn = uxCurrentEventBits;
 800032a:	69fb      	ldr	r3, [r7, #28]
 800032c:	62fb      	str	r3, [r7, #44]	@ 0x2c
                xTimeoutOccurred = pdTRUE;
 800032e:	2301      	movs	r3, #1
 8000330:	623b      	str	r3, [r7, #32]
 8000332:	e018      	b.n	8000366 <xEventGroupWaitBits+0x96>
            {
                /* The task is going to block to wait for its required bits to be
                 * set.  uxControlBits are used to remember the specified behaviour of
                 * this call to xEventGroupWaitBits() - for use when the event bits
                 * unblock the task. */
                if( xClearOnExit != pdFALSE )
 8000334:	687b      	ldr	r3, [r7, #4]
 8000336:	2b00      	cmp	r3, #0
 8000338:	d003      	beq.n	8000342 <xEventGroupWaitBits+0x72>
                {
                    uxControlBits |= eventCLEAR_EVENTS_ON_EXIT_BIT;
 800033a:	6abb      	ldr	r3, [r7, #40]	@ 0x28
 800033c:	f043 7380 	orr.w	r3, r3, #16777216	@ 0x1000000
 8000340:	62bb      	str	r3, [r7, #40]	@ 0x28
                else
                {
                    mtCOVERAGE_TEST_MARKER();
                }

                if( xWaitForAllBits != pdFALSE )
 8000342:	683b      	ldr	r3, [r7, #0]
 8000344:	2b00      	cmp	r3, #0
 8000346:	d003      	beq.n	8000350 <xEventGroupWaitBits+0x80>
                {
                    uxControlBits |= eventWAIT_FOR_ALL_BITS;
 8000348:	6abb      	ldr	r3, [r7, #40]	@ 0x28
 800034a:	f043 6380 	orr.w	r3, r3, #67108864	@ 0x4000000
 800034e:	62bb      	str	r3, [r7, #40]	@ 0x28
                }

                /* Store the bits that the calling task is waiting for in the
                 * task's event list item so the kernel knows when a match is
                 * found.  Then enter the blocked state. */
                vTaskPlaceOnUnorderedEventList( &( pxEventBits->xTasksWaitingForBits ), ( uxBitsToWaitFor | uxControlBits ), xTicksToWait );
 8000350:	6a7b      	ldr	r3, [r7, #36]	@ 0x24
 8000352:	1d18      	adds	r0, r3, #4
 8000354:	68ba      	ldr	r2, [r7, #8]
 8000356:	6abb      	ldr	r3, [r7, #40]	@ 0x28
 8000358:	4313      	orrs	r3, r2
 800035a:	6bba      	ldr	r2, [r7, #56]	@ 0x38
 800035c:	4619      	mov	r1, r3
 800035e:	f002 fe03 	bl	8002f68 <vTaskPlaceOnUnorderedEventList>

                /* This is obsolete as it will get set after the task unblocks, but
                 * some compilers mistakenly generate a warning about the variable
                 * being returned without being set if it is not done. */
                uxReturn = 0;
 8000362:	2300      	movs	r3, #0
 8000364:	62fb      	str	r3, [r7, #44]	@ 0x2c

                traceEVENT_GROUP_WAIT_BITS_BLOCK( xEventGroup, uxBitsToWaitFor );
            }
        }
        xAlreadyYielded = xTaskResumeAll();
 8000366:	f002 fb15 	bl	8002994 <xTaskResumeAll>
 800036a:	6178      	str	r0, [r7, #20]

        if( xTicksToWait != ( TickType_t ) 0 )
 800036c:	6bbb      	ldr	r3, [r7, #56]	@ 0x38
 800036e:	2b00      	cmp	r3, #0
 8000370:	d031      	beq.n	80003d6 <xEventGroupWaitBits+0x106>
        {
            if( xAlreadyYielded == pdFALSE )
 8000372:	697b      	ldr	r3, [r7, #20]
 8000374:	2b00      	cmp	r3, #0
 8000376:	d107      	bne.n	8000388 <xEventGroupWaitBits+0xb8>
            {
                taskYIELD_WITHIN_API();
 8000378:	4b19      	ldr	r3, [pc, #100]	@ (80003e0 <xEventGroupWaitBits+0x110>)
 800037a:	f04f 5280 	mov.w	r2, #268435456	@ 0x10000000
 800037e:	601a      	str	r2, [r3, #0]
 8000380:	f3bf 8f4f 	dsb	sy
 8000384:	f3bf 8f6f 	isb	sy

            /* The task blocked to wait for its required bits to be set - at this
             * point either the required bits were set or the block time expired.  If
             * the required bits were set they will have been stored in the task's
             * event list item, and they should now be retrieved then cleared. */
            uxReturn = uxTaskResetEventItemValue();
 8000388:	f003 fb04 	bl	8003994 <uxTaskResetEventItemValue>
 800038c:	62f8      	str	r0, [r7, #44]	@ 0x2c

            if( ( uxReturn & eventUNBLOCKED_DUE_TO_BIT_SET ) == ( EventBits_t ) 0 )
 800038e:	6afb      	ldr	r3, [r7, #44]	@ 0x2c
 8000390:	f003 7300 	and.w	r3, r3, #33554432	@ 0x2000000
 8000394:	2b00      	cmp	r3, #0
 8000396:	d11a      	bne.n	80003ce <xEventGroupWaitBits+0xfe>
            {
                taskENTER_CRITICAL();
 8000398:	f004 fce9 	bl	8004d6e <vPortEnterCritical>
                {
                    /* The task timed out, just return the current event bit value. */
                    uxReturn = pxEventBits->uxEventBits;
 800039c:	6a7b      	ldr	r3, [r7, #36]	@ 0x24
 800039e:	681b      	ldr	r3, [r3, #0]
 80003a0:	62fb      	str	r3, [r7, #44]	@ 0x2c

                    /* It is possible that the event bits were updated between this
                     * task leaving the Blocked state and running again. */
                    if( prvTestWaitCondition( uxReturn, uxBitsToWaitFor, xWaitForAllBits ) != pdFALSE )
 80003a2:	683a      	ldr	r2, [r7, #0]
 80003a4:	68b9      	ldr	r1, [r7, #8]
 80003a6:	6af8      	ldr	r0, [r7, #44]	@ 0x2c
 80003a8:	f000 f903 	bl	80005b2 <prvTestWaitCondition>
 80003ac:	4603      	mov	r3, r0
 80003ae:	2b00      	cmp	r3, #0
 80003b0:	d009      	beq.n	80003c6 <xEventGroupWaitBits+0xf6>
                    {
                        if( xClearOnExit != pdFALSE )
 80003b2:	687b      	ldr	r3, [r7, #4]
 80003b4:	2b00      	cmp	r3, #0
 80003b6:	d006      	beq.n	80003c6 <xEventGroupWaitBits+0xf6>
                        {
                            pxEventBits->uxEventBits &= ~uxBitsToWaitFor;
 80003b8:	6a7b      	ldr	r3, [r7, #36]	@ 0x24
 80003ba:	681a      	ldr	r2, [r3, #0]
 80003bc:	68bb      	ldr	r3, [r7, #8]
 80003be:	43db      	mvns	r3, r3
 80003c0:	401a      	ands	r2, r3
 80003c2:	6a7b      	ldr	r3, [r7, #36]	@ 0x24
 80003c4:	601a      	str	r2, [r3, #0]
                    else
                    {
                        mtCOVERAGE_TEST_MARKER();
                    }

                    xTimeoutOccurred = pdTRUE;
 80003c6:	2301      	movs	r3, #1
 80003c8:	623b      	str	r3, [r7, #32]
                }
                taskEXIT_CRITICAL();
 80003ca:	f004 fceb 	bl	8004da4 <vPortExitCritical>
            {
                /* The task unblocked because the bits were set. */
            }

            /* The task blocked so control bits may have been set. */
            uxReturn &= ~eventEVENT_BITS_CONTROL_BYTES;
 80003ce:	6afb      	ldr	r3, [r7, #44]	@ 0x2c
 80003d0:	f023 437f 	bic.w	r3, r3, #4278190080	@ 0xff000000
 80003d4:	62fb      	str	r3, [r7, #44]	@ 0x2c
        /* Prevent compiler warnings when trace macros are not used. */
        ( void ) xTimeoutOccurred;

        traceRETURN_xEventGroupWaitBits( uxReturn );

        return uxReturn;
 80003d6:	6afb      	ldr	r3, [r7, #44]	@ 0x2c
    }
 80003d8:	4618      	mov	r0, r3
 80003da:	3730      	adds	r7, #48	@ 0x30
 80003dc:	46bd      	mov	sp, r7
 80003de:	bd80      	pop	{r7, pc}
 80003e0:	e000ed04 	.word	0xe000ed04

080003e4 <xEventGroupClearBits>:
/*-----------------------------------------------------------*/

    EventBits_t xEventGroupClearBits( EventGroupHandle_t xEventGroup,
                                      const EventBits_t uxBitsToClear )
    {
 80003e4:	b580      	push	{r7, lr}
 80003e6:	b084      	sub	sp, #16
 80003e8:	af00      	add	r7, sp, #0
 80003ea:	6078      	str	r0, [r7, #4]
 80003ec:	6039      	str	r1, [r7, #0]
        EventGroup_t * pxEventBits = xEventGroup;
 80003ee:	687b      	ldr	r3, [r7, #4]
 80003f0:	60fb      	str	r3, [r7, #12]
        /* Check the user is not attempting to clear the bits used by the kernel
         * itself. */
        configASSERT( xEventGroup );
        configASSERT( ( uxBitsToClear & eventEVENT_BITS_CONTROL_BYTES ) == 0 );

        taskENTER_CRITICAL();
 80003f2:	f004 fcbc 	bl	8004d6e <vPortEnterCritical>
        {
            traceEVENT_GROUP_CLEAR_BITS( xEventGroup, uxBitsToClear );

            /* The value returned is the event group value prior to the bits being
             * cleared. */
            uxReturn = pxEventBits->uxEventBits;
 80003f6:	68fb      	ldr	r3, [r7, #12]
 80003f8:	681b      	ldr	r3, [r3, #0]
 80003fa:	60bb      	str	r3, [r7, #8]

            /* Clear the bits. */
            pxEventBits->uxEventBits &= ~uxBitsToClear;
 80003fc:	68fb      	ldr	r3, [r7, #12]
 80003fe:	681a      	ldr	r2, [r3, #0]
 8000400:	683b      	ldr	r3, [r7, #0]
 8000402:	43db      	mvns	r3, r3
 8000404:	401a      	ands	r2, r3
 8000406:	68fb      	ldr	r3, [r7, #12]
 8000408:	601a      	str	r2, [r3, #0]
        }
        taskEXIT_CRITICAL();
 800040a:	f004 fccb 	bl	8004da4 <vPortExitCritical>

        traceRETURN_xEventGroupClearBits( uxReturn );

        return uxReturn;
 800040e:	68bb      	ldr	r3, [r7, #8]
    }
 8000410:	4618      	mov	r0, r3
 8000412:	3710      	adds	r7, #16
 8000414:	46bd      	mov	sp, r7
 8000416:	bd80      	pop	{r7, pc}

08000418 <xEventGroupGetBitsFromISR>:

    #endif /* if ( ( configUSE_TRACE_FACILITY == 1 ) && ( INCLUDE_xTimerPendFunctionCall == 1 ) && ( configUSE_TIMERS == 1 ) ) */
/*-----------------------------------------------------------*/

    EventBits_t xEventGroupGetBitsFromISR( EventGroupHandle_t xEventGroup )
    {
 8000418:	b480      	push	{r7}
 800041a:	b089      	sub	sp, #36	@ 0x24
 800041c:	af00      	add	r7, sp, #0
 800041e:	6078      	str	r0, [r7, #4]
        UBaseType_t uxSavedInterruptStatus;
        EventGroup_t const * const pxEventBits = xEventGroup;
 8000420:	687b      	ldr	r3, [r7, #4]
 8000422:	61fb      	str	r3, [r7, #28]

portFORCE_INLINE static uint32_t ulPortRaiseBASEPRI( void )
{
    uint32_t ulOriginalBASEPRI, ulNewBASEPRI;

    __asm volatile
 8000424:	f3ef 8211 	mrs	r2, BASEPRI
 8000428:	f04f 0350 	mov.w	r3, #80	@ 0x50
 800042c:	f383 8811 	msr	BASEPRI, r3
 8000430:	f3bf 8f6f 	isb	sy
 8000434:	f3bf 8f4f 	dsb	sy
 8000438:	60fa      	str	r2, [r7, #12]
 800043a:	60bb      	str	r3, [r7, #8]
        : "=r" ( ulOriginalBASEPRI ), "=r" ( ulNewBASEPRI ) : "i" ( configMAX_SYSCALL_INTERRUPT_PRIORITY ) : "memory"
    );

    /* This return will not be reached but is necessary to prevent compiler
     * warnings. */
    return ulOriginalBASEPRI;
 800043c:	68fb      	ldr	r3, [r7, #12]
        traceENTER_xEventGroupGetBitsFromISR( xEventGroup );

        /* MISRA Ref 4.7.1 [Return value shall be checked] */
        /* More details at: https://github.com/FreeRTOS/FreeRTOS-Kernel/blob/main/MISRA.md#dir-47 */
        /* coverity[misra_c_2012_directive_4_7_violation] */
        uxSavedInterruptStatus = taskENTER_CRITICAL_FROM_ISR();
 800043e:	61bb      	str	r3, [r7, #24]
        {
            uxReturn = pxEventBits->uxEventBits;
 8000440:	69fb      	ldr	r3, [r7, #28]
 8000442:	681b      	ldr	r3, [r3, #0]
 8000444:	617b      	str	r3, [r7, #20]
 8000446:	69bb      	ldr	r3, [r7, #24]
 8000448:	613b      	str	r3, [r7, #16]
}
/*-----------------------------------------------------------*/

portFORCE_INLINE static void vPortSetBASEPRI( uint32_t ulNewMaskValue )
{
    __asm volatile
 800044a:	693b      	ldr	r3, [r7, #16]
 800044c:	f383 8811 	msr	BASEPRI, r3
    (
        "   msr basepri, %0 " ::"r" ( ulNewMaskValue ) : "memory"
    );
}
 8000450:	bf00      	nop
        }
        taskEXIT_CRITICAL_FROM_ISR( uxSavedInterruptStatus );

        traceRETURN_xEventGroupGetBitsFromISR( uxReturn );

        return uxReturn;
 8000452:	697b      	ldr	r3, [r7, #20]
    }
 8000454:	4618      	mov	r0, r3
 8000456:	3724      	adds	r7, #36	@ 0x24
 8000458:	46bd      	mov	sp, r7
 800045a:	f85d 7b04 	ldr.w	r7, [sp], #4
 800045e:	4770      	bx	lr

08000460 <xEventGroupSetBits>:
/*-----------------------------------------------------------*/

    EventBits_t xEventGroupSetBits( EventGroupHandle_t xEventGroup,
                                    const EventBits_t uxBitsToSet )
    {
 8000460:	b580      	push	{r7, lr}
 8000462:	b08c      	sub	sp, #48	@ 0x30
 8000464:	af00      	add	r7, sp, #0
 8000466:	6078      	str	r0, [r7, #4]
 8000468:	6039      	str	r1, [r7, #0]
        ListItem_t * pxListItem;
        ListItem_t * pxNext;
        ListItem_t const * pxListEnd;
        List_t const * pxList;
        EventBits_t uxBitsToClear = 0, uxBitsWaitedFor, uxControlBits, uxReturnBits;
 800046a:	2300      	movs	r3, #0
 800046c:	62bb      	str	r3, [r7, #40]	@ 0x28
        EventGroup_t * pxEventBits = xEventGroup;
 800046e:	687b      	ldr	r3, [r7, #4]
 8000470:	623b      	str	r3, [r7, #32]
        BaseType_t xMatchFound = pdFALSE;
 8000472:	2300      	movs	r3, #0
 8000474:	627b      	str	r3, [r7, #36]	@ 0x24
        /* Check the user is not attempting to set the bits used by the kernel
         * itself. */
        configASSERT( xEventGroup );
        configASSERT( ( uxBitsToSet & eventEVENT_BITS_CONTROL_BYTES ) == 0 );

        pxList = &( pxEventBits->xTasksWaitingForBits );
 8000476:	6a3b      	ldr	r3, [r7, #32]
 8000478:	3304      	adds	r3, #4
 800047a:	61fb      	str	r3, [r7, #28]
        pxListEnd = listGET_END_MARKER( pxList );
 800047c:	69fb      	ldr	r3, [r7, #28]
 800047e:	3308      	adds	r3, #8
 8000480:	61bb      	str	r3, [r7, #24]
        vTaskSuspendAll();
 8000482:	f002 fa79 	bl	8002978 <vTaskSuspendAll>
        {
            traceEVENT_GROUP_SET_BITS( xEventGroup, uxBitsToSet );

            pxListItem = listGET_HEAD_ENTRY( pxList );
 8000486:	69fb      	ldr	r3, [r7, #28]
 8000488:	68db      	ldr	r3, [r3, #12]
 800048a:	62fb      	str	r3, [r7, #44]	@ 0x2c

            /* Set the bits. */
            pxEventBits->uxEventBits |= uxBitsToSet;
 800048c:	6a3b      	ldr	r3, [r7, #32]
 800048e:	681a      	ldr	r2, [r3, #0]
 8000490:	683b      	ldr	r3, [r7, #0]
 8000492:	431a      	orrs	r2, r3
 8000494:	6a3b      	ldr	r3, [r7, #32]
 8000496:	601a      	str	r2, [r3, #0]

            /* See if the new bit value should unblock any tasks. */
            while( pxListItem != pxListEnd )
 8000498:	e03c      	b.n	8000514 <xEventGroupSetBits+0xb4>
            {
                pxNext = listGET_NEXT( pxListItem );
 800049a:	6afb      	ldr	r3, [r7, #44]	@ 0x2c
 800049c:	685b      	ldr	r3, [r3, #4]
 800049e:	613b      	str	r3, [r7, #16]
                uxBitsWaitedFor = listGET_LIST_ITEM_VALUE( pxListItem );
 80004a0:	6afb      	ldr	r3, [r7, #44]	@ 0x2c
 80004a2:	681b      	ldr	r3, [r3, #0]
 80004a4:	60fb      	str	r3, [r7, #12]
                xMatchFound = pdFALSE;
 80004a6:	2300      	movs	r3, #0
 80004a8:	627b      	str	r3, [r7, #36]	@ 0x24

                /* Split the bits waited for from the control bits. */
                uxControlBits = uxBitsWaitedFor & eventEVENT_BITS_CONTROL_BYTES;
 80004aa:	68fb      	ldr	r3, [r7, #12]
 80004ac:	f003 437f 	and.w	r3, r3, #4278190080	@ 0xff000000
 80004b0:	60bb      	str	r3, [r7, #8]
                uxBitsWaitedFor &= ~eventEVENT_BITS_CONTROL_BYTES;
 80004b2:	68fb      	ldr	r3, [r7, #12]
 80004b4:	f023 437f 	bic.w	r3, r3, #4278190080	@ 0xff000000
 80004b8:	60fb      	str	r3, [r7, #12]

                if( ( uxControlBits & eventWAIT_FOR_ALL_BITS ) == ( EventBits_t ) 0 )
 80004ba:	68bb      	ldr	r3, [r7, #8]
 80004bc:	f003 6380 	and.w	r3, r3, #67108864	@ 0x4000000
 80004c0:	2b00      	cmp	r3, #0
 80004c2:	d108      	bne.n	80004d6 <xEventGroupSetBits+0x76>
                {
                    /* Just looking for single bit being set. */
                    if( ( uxBitsWaitedFor & pxEventBits->uxEventBits ) != ( EventBits_t ) 0 )
 80004c4:	6a3b      	ldr	r3, [r7, #32]
 80004c6:	681a      	ldr	r2, [r3, #0]
 80004c8:	68fb      	ldr	r3, [r7, #12]
 80004ca:	4013      	ands	r3, r2
 80004cc:	2b00      	cmp	r3, #0
 80004ce:	d00b      	beq.n	80004e8 <xEventGroupSetBits+0x88>
                    {
                        xMatchFound = pdTRUE;
 80004d0:	2301      	movs	r3, #1
 80004d2:	627b      	str	r3, [r7, #36]	@ 0x24
 80004d4:	e008      	b.n	80004e8 <xEventGroupSetBits+0x88>
                    else
                    {
                        mtCOVERAGE_TEST_MARKER();
                    }
                }
                else if( ( uxBitsWaitedFor & pxEventBits->uxEventBits ) == uxBitsWaitedFor )
 80004d6:	6a3b      	ldr	r3, [r7, #32]
 80004d8:	681a      	ldr	r2, [r3, #0]
 80004da:	68fb      	ldr	r3, [r7, #12]
 80004dc:	4013      	ands	r3, r2
 80004de:	68fa      	ldr	r2, [r7, #12]
 80004e0:	429a      	cmp	r2, r3
 80004e2:	d101      	bne.n	80004e8 <xEventGroupSetBits+0x88>
                {
                    /* All bits are set. */
                    xMatchFound = pdTRUE;
 80004e4:	2301      	movs	r3, #1
 80004e6:	627b      	str	r3, [r7, #36]	@ 0x24
                else
                {
                    /* Need all bits to be set, but not all the bits were set. */
                }

                if( xMatchFound != pdFALSE )
 80004e8:	6a7b      	ldr	r3, [r7, #36]	@ 0x24
 80004ea:	2b00      	cmp	r3, #0
 80004ec:	d010      	beq.n	8000510 <xEventGroupSetBits+0xb0>
                {
                    /* The bits match.  Should the bits be cleared on exit? */
                    if( ( uxControlBits & eventCLEAR_EVENTS_ON_EXIT_BIT ) != ( EventBits_t ) 0 )
 80004ee:	68bb      	ldr	r3, [r7, #8]
 80004f0:	f003 7380 	and.w	r3, r3, #16777216	@ 0x1000000
 80004f4:	2b00      	cmp	r3, #0
 80004f6:	d003      	beq.n	8000500 <xEventGroupSetBits+0xa0>
                    {
                        uxBitsToClear |= uxBitsWaitedFor;
 80004f8:	6aba      	ldr	r2, [r7, #40]	@ 0x28
 80004fa:	68fb      	ldr	r3, [r7, #12]
 80004fc:	4313      	orrs	r3, r2
 80004fe:	62bb      	str	r3, [r7, #40]	@ 0x28
                    /* Store the actual event flag value in the task's event list
                     * item before removing the task from the event list.  The
                     * eventUNBLOCKED_DUE_TO_BIT_SET bit is set so the task knows
                     * that is was unblocked due to its required bits matching, rather
                     * than because it timed out. */
                    vTaskRemoveFromUnorderedEventList( pxListItem, pxEventBits->uxEventBits | eventUNBLOCKED_DUE_TO_BIT_SET );
 8000500:	6a3b      	ldr	r3, [r7, #32]
 8000502:	681b      	ldr	r3, [r3, #0]
 8000504:	f043 7300 	orr.w	r3, r3, #33554432	@ 0x2000000
 8000508:	4619      	mov	r1, r3
 800050a:	6af8      	ldr	r0, [r7, #44]	@ 0x2c
 800050c:	f002 fe66 	bl	80031dc <vTaskRemoveFromUnorderedEventList>
                }

                /* Move onto the next list item.  Note pxListItem->pxNext is not
                 * used here as the list item may have been removed from the event list
                 * and inserted into the ready/pending reading list. */
                pxListItem = pxNext;
 8000510:	693b      	ldr	r3, [r7, #16]
 8000512:	62fb      	str	r3, [r7, #44]	@ 0x2c
            while( pxListItem != pxListEnd )
 8000514:	6afa      	ldr	r2, [r7, #44]	@ 0x2c
 8000516:	69bb      	ldr	r3, [r7, #24]
 8000518:	429a      	cmp	r2, r3
 800051a:	d1be      	bne.n	800049a <xEventGroupSetBits+0x3a>
            }

            /* Clear any bits that matched when the eventCLEAR_EVENTS_ON_EXIT_BIT
             * bit was set in the control word. */
            pxEventBits->uxEventBits &= ~uxBitsToClear;
 800051c:	6a3b      	ldr	r3, [r7, #32]
 800051e:	681a      	ldr	r2, [r3, #0]
 8000520:	6abb      	ldr	r3, [r7, #40]	@ 0x28
 8000522:	43db      	mvns	r3, r3
 8000524:	401a      	ands	r2, r3
 8000526:	6a3b      	ldr	r3, [r7, #32]
 8000528:	601a      	str	r2, [r3, #0]

            /* Snapshot resulting bits. */
            uxReturnBits = pxEventBits->uxEventBits;
 800052a:	6a3b      	ldr	r3, [r7, #32]
 800052c:	681b      	ldr	r3, [r3, #0]
 800052e:	617b      	str	r3, [r7, #20]
        }
        ( void ) xTaskResumeAll();
 8000530:	f002 fa30 	bl	8002994 <xTaskResumeAll>

        traceRETURN_xEventGroupSetBits( uxReturnBits );

        return uxReturnBits;
 8000534:	697b      	ldr	r3, [r7, #20]
    }
 8000536:	4618      	mov	r0, r3
 8000538:	3730      	adds	r7, #48	@ 0x30
 800053a:	46bd      	mov	sp, r7
 800053c:	bd80      	pop	{r7, pc}

0800053e <vEventGroupDelete>:
/*-----------------------------------------------------------*/

    void vEventGroupDelete( EventGroupHandle_t xEventGroup )
    {
 800053e:	b580      	push	{r7, lr}
 8000540:	b084      	sub	sp, #16
 8000542:	af00      	add	r7, sp, #0
 8000544:	6078      	str	r0, [r7, #4]
        EventGroup_t * pxEventBits = xEventGroup;
 8000546:	687b      	ldr	r3, [r7, #4]
 8000548:	60fb      	str	r3, [r7, #12]

        traceENTER_vEventGroupDelete( xEventGroup );

        configASSERT( pxEventBits );

        pxTasksWaitingForBits = &( pxEventBits->xTasksWaitingForBits );
 800054a:	68fb      	ldr	r3, [r7, #12]
 800054c:	3304      	adds	r3, #4
 800054e:	60bb      	str	r3, [r7, #8]

        vTaskSuspendAll();
 8000550:	f002 fa12 	bl	8002978 <vTaskSuspendAll>
        {
            traceEVENT_GROUP_DELETE( xEventGroup );

            while( listCURRENT_LIST_LENGTH( pxTasksWaitingForBits ) > ( UBaseType_t ) 0 )
 8000554:	e006      	b.n	8000564 <vEventGroupDelete+0x26>
            {
                /* Unblock the task, returning 0 as the event list is being deleted
                 * and cannot therefore have any bits set. */
                configASSERT( pxTasksWaitingForBits->xListEnd.pxNext != ( const ListItem_t * ) &( pxTasksWaitingForBits->xListEnd ) );
                vTaskRemoveFromUnorderedEventList( pxTasksWaitingForBits->xListEnd.pxNext, eventUNBLOCKED_DUE_TO_BIT_SET );
 8000556:	68bb      	ldr	r3, [r7, #8]
 8000558:	68db      	ldr	r3, [r3, #12]
 800055a:	f04f 7100 	mov.w	r1, #33554432	@ 0x2000000
 800055e:	4618      	mov	r0, r3
 8000560:	f002 fe3c 	bl	80031dc <vTaskRemoveFromUnorderedEventList>
            while( listCURRENT_LIST_LENGTH( pxTasksWaitingForBits ) > ( UBaseType_t ) 0 )
 8000564:	68bb      	ldr	r3, [r7, #8]
 8000566:	681b      	ldr	r3, [r3, #0]
 8000568:	2b00      	cmp	r3, #0
 800056a:	d1f4      	bne.n	8000556 <vEventGroupDelete+0x18>
            }
        }
        ( void ) xTaskResumeAll();
 800056c:	f002 fa12 	bl	8002994 <xTaskResumeAll>

        #if ( ( configSUPPORT_DYNAMIC_ALLOCATION == 1 ) && ( configSUPPORT_STATIC_ALLOCATION == 0 ) )
        {
            /* The event group can only have been allocated dynamically - free
             * it again. */
            vPortFree( pxEventBits );
 8000570:	68f8      	ldr	r0, [r7, #12]
 8000572:	f004 fd63 	bl	800503c <vPortFree>
            }
        }
        #endif /* configSUPPORT_DYNAMIC_ALLOCATION */

        traceRETURN_vEventGroupDelete();
    }
 8000576:	bf00      	nop
 8000578:	3710      	adds	r7, #16
 800057a:	46bd      	mov	sp, r7
 800057c:	bd80      	pop	{r7, pc}

0800057e <vEventGroupSetBitsCallback>:

/* For internal use only - execute a 'set bits' command that was pended from
 * an interrupt. */
    void vEventGroupSetBitsCallback( void * pvEventGroup,
                                     uint32_t ulBitsToSet )
    {
 800057e:	b580      	push	{r7, lr}
 8000580:	b082      	sub	sp, #8
 8000582:	af00      	add	r7, sp, #0
 8000584:	6078      	str	r0, [r7, #4]
 8000586:	6039      	str	r1, [r7, #0]
        traceENTER_vEventGroupSetBitsCallback( pvEventGroup, ulBitsToSet );

        /* MISRA Ref 11.5.4 [Callback function parameter] */
        /* More details at: https://github.com/FreeRTOS/FreeRTOS-Kernel/blob/main/MISRA.md#rule-115 */
        /* coverity[misra_c_2012_rule_11_5_violation] */
        ( void ) xEventGroupSetBits( pvEventGroup, ( EventBits_t ) ulBitsToSet );
 8000588:	6839      	ldr	r1, [r7, #0]
 800058a:	6878      	ldr	r0, [r7, #4]
 800058c:	f7ff ff68 	bl	8000460 <xEventGroupSetBits>

        traceRETURN_vEventGroupSetBitsCallback();
    }
 8000590:	bf00      	nop
 8000592:	3708      	adds	r7, #8
 8000594:	46bd      	mov	sp, r7
 8000596:	bd80      	pop	{r7, pc}

08000598 <vEventGroupClearBitsCallback>:

/* For internal use only - execute a 'clear bits' command that was pended from
 * an interrupt. */
    void vEventGroupClearBitsCallback( void * pvEventGroup,
                                       uint32_t ulBitsToClear )
    {
 8000598:	b580      	push	{r7, lr}
 800059a:	b082      	sub	sp, #8
 800059c:	af00      	add	r7, sp, #0
 800059e:	6078      	str	r0, [r7, #4]
 80005a0:	6039      	str	r1, [r7, #0]
        traceENTER_vEventGroupClearBitsCallback( pvEventGroup, ulBitsToClear );

        /* MISRA Ref 11.5.4 [Callback function parameter] */
        /* More details at: https://github.com/FreeRTOS/FreeRTOS-Kernel/blob/main/MISRA.md#rule-115 */
        /* coverity[misra_c_2012_rule_11_5_violation] */
        ( void ) xEventGroupClearBits( pvEventGroup, ( EventBits_t ) ulBitsToClear );
 80005a2:	6839      	ldr	r1, [r7, #0]
 80005a4:	6878      	ldr	r0, [r7, #4]
 80005a6:	f7ff ff1d 	bl	80003e4 <xEventGroupClearBits>

        traceRETURN_vEventGroupClearBitsCallback();
    }
 80005aa:	bf00      	nop
 80005ac:	3708      	adds	r7, #8
 80005ae:	46bd      	mov	sp, r7
 80005b0:	bd80      	pop	{r7, pc}

080005b2 <prvTestWaitCondition>:
/*-----------------------------------------------------------*/

    static BaseType_t prvTestWaitCondition( const EventBits_t uxCurrentEventBits,
                                            const EventBits_t uxBitsToWaitFor,
                                            const BaseType_t xWaitForAllBits )
    {
 80005b2:	b480      	push	{r7}
 80005b4:	b087      	sub	sp, #28
 80005b6:	af00      	add	r7, sp, #0
 80005b8:	60f8      	str	r0, [r7, #12]
 80005ba:	60b9      	str	r1, [r7, #8]
 80005bc:	607a      	str	r2, [r7, #4]
        BaseType_t xWaitConditionMet = pdFALSE;
 80005be:	2300      	movs	r3, #0
 80005c0:	617b      	str	r3, [r7, #20]

        if( xWaitForAllBits == pdFALSE )
 80005c2:	687b      	ldr	r3, [r7, #4]
 80005c4:	2b00      	cmp	r3, #0
 80005c6:	d107      	bne.n	80005d8 <prvTestWaitCondition+0x26>
        {
            /* Task only has to wait for one bit within uxBitsToWaitFor to be
             * set.  Is one already set? */
            if( ( uxCurrentEventBits & uxBitsToWaitFor ) != ( EventBits_t ) 0 )
 80005c8:	68fa      	ldr	r2, [r7, #12]
 80005ca:	68bb      	ldr	r3, [r7, #8]
 80005cc:	4013      	ands	r3, r2
 80005ce:	2b00      	cmp	r3, #0
 80005d0:	d00a      	beq.n	80005e8 <prvTestWaitCondition+0x36>
            {
                xWaitConditionMet = pdTRUE;
 80005d2:	2301      	movs	r3, #1
 80005d4:	617b      	str	r3, [r7, #20]
 80005d6:	e007      	b.n	80005e8 <prvTestWaitCondition+0x36>
        }
        else
        {
            /* Task has to wait for all the bits in uxBitsToWaitFor to be set.
             * Are they set already? */
            if( ( uxCurrentEventBits & uxBitsToWaitFor ) == uxBitsToWaitFor )
 80005d8:	68fa      	ldr	r2, [r7, #12]
 80005da:	68bb      	ldr	r3, [r7, #8]
 80005dc:	4013      	ands	r3, r2
 80005de:	68ba      	ldr	r2, [r7, #8]
 80005e0:	429a      	cmp	r2, r3
 80005e2:	d101      	bne.n	80005e8 <prvTestWaitCondition+0x36>
            {
                xWaitConditionMet = pdTRUE;
 80005e4:	2301      	movs	r3, #1
 80005e6:	617b      	str	r3, [r7, #20]
            {
                mtCOVERAGE_TEST_MARKER();
            }
        }

        return xWaitConditionMet;
 80005e8:	697b      	ldr	r3, [r7, #20]
    }
 80005ea:	4618      	mov	r0, r3
 80005ec:	371c      	adds	r7, #28
 80005ee:	46bd      	mov	sp, r7
 80005f0:	f85d 7b04 	ldr.w	r7, [sp], #4
 80005f4:	4770      	bx	lr
 80005f6:	bf00      	nop

080005f8 <vListInitialise>:
/*-----------------------------------------------------------
* PUBLIC LIST API documented in list.h
*----------------------------------------------------------*/

void vListInitialise( List_t * const pxList )
{
 80005f8:	b480      	push	{r7}
 80005fa:	b083      	sub	sp, #12
 80005fc:	af00      	add	r7, sp, #0
 80005fe:	6078      	str	r0, [r7, #4]
    traceENTER_vListInitialise( pxList );

    /* The list structure contains a list item which is used to mark the
     * end of the list.  To initialise the list the list end is inserted
     * as the only list entry. */
    pxList->pxIndex = ( ListItem_t * ) &( pxList->xListEnd );
 8000600:	687b      	ldr	r3, [r7, #4]
 8000602:	f103 0208 	add.w	r2, r3, #8
 8000606:	687b      	ldr	r3, [r7, #4]
 8000608:	605a      	str	r2, [r3, #4]

    listSET_FIRST_LIST_ITEM_INTEGRITY_CHECK_VALUE( &( pxList->xListEnd ) );

    /* The list end value is the highest possible value in the list to
     * ensure it remains at the end of the list. */
    pxList->xListEnd.xItemValue = portMAX_DELAY;
 800060a:	687b      	ldr	r3, [r7, #4]
 800060c:	f04f 32ff 	mov.w	r2, #4294967295
 8000610:	609a      	str	r2, [r3, #8]

    /* The list end next and previous pointers point to itself so we know
     * when the list is empty. */
    pxList->xListEnd.pxNext = ( ListItem_t * ) &( pxList->xListEnd );
 8000612:	687b      	ldr	r3, [r7, #4]
 8000614:	f103 0208 	add.w	r2, r3, #8
 8000618:	687b      	ldr	r3, [r7, #4]
 800061a:	60da      	str	r2, [r3, #12]
    pxList->xListEnd.pxPrevious = ( ListItem_t * ) &( pxList->xListEnd );
 800061c:	687b      	ldr	r3, [r7, #4]
 800061e:	f103 0208 	add.w	r2, r3, #8
 8000622:	687b      	ldr	r3, [r7, #4]
 8000624:	611a      	str	r2, [r3, #16]
        pxList->xListEnd.pxContainer = NULL;
        listSET_SECOND_LIST_ITEM_INTEGRITY_CHECK_VALUE( &( pxList->xListEnd ) );
    }
    #endif

    pxList->uxNumberOfItems = ( UBaseType_t ) 0U;
 8000626:	687b      	ldr	r3, [r7, #4]
 8000628:	2200      	movs	r2, #0
 800062a:	601a      	str	r2, [r3, #0]
     * configUSE_LIST_DATA_INTEGRITY_CHECK_BYTES is set to 1. */
    listSET_LIST_INTEGRITY_CHECK_1_VALUE( pxList );
    listSET_LIST_INTEGRITY_CHECK_2_VALUE( pxList );

    traceRETURN_vListInitialise();
}
 800062c:	bf00      	nop
 800062e:	370c      	adds	r7, #12
 8000630:	46bd      	mov	sp, r7
 8000632:	f85d 7b04 	ldr.w	r7, [sp], #4
 8000636:	4770      	bx	lr

08000638 <vListInitialiseItem>:
/*-----------------------------------------------------------*/

void vListInitialiseItem( ListItem_t * const pxItem )
{
 8000638:	b480      	push	{r7}
 800063a:	b083      	sub	sp, #12
 800063c:	af00      	add	r7, sp, #0
 800063e:	6078      	str	r0, [r7, #4]
    traceENTER_vListInitialiseItem( pxItem );

    /* Make sure the list item is not recorded as being on a list. */
    pxItem->pxContainer = NULL;
 8000640:	687b      	ldr	r3, [r7, #4]
 8000642:	2200      	movs	r2, #0
 8000644:	611a      	str	r2, [r3, #16]
     * configUSE_LIST_DATA_INTEGRITY_CHECK_BYTES is set to 1. */
    listSET_FIRST_LIST_ITEM_INTEGRITY_CHECK_VALUE( pxItem );
    listSET_SECOND_LIST_ITEM_INTEGRITY_CHECK_VALUE( pxItem );

    traceRETURN_vListInitialiseItem();
}
 8000646:	bf00      	nop
 8000648:	370c      	adds	r7, #12
 800064a:	46bd      	mov	sp, r7
 800064c:	f85d 7b04 	ldr.w	r7, [sp], #4
 8000650:	4770      	bx	lr

08000652 <vListInsertEnd>:
/*-----------------------------------------------------------*/

void vListInsertEnd( List_t * const pxList,
                     ListItem_t * const pxNewListItem )
{
 8000652:	b480      	push	{r7}
 8000654:	b085      	sub	sp, #20
 8000656:	af00      	add	r7, sp, #0
 8000658:	6078      	str	r0, [r7, #4]
 800065a:	6039      	str	r1, [r7, #0]
    ListItem_t * const pxIndex = pxList->pxIndex;
 800065c:	687b      	ldr	r3, [r7, #4]
 800065e:	685b      	ldr	r3, [r3, #4]
 8000660:	60fb      	str	r3, [r7, #12]
    listTEST_LIST_ITEM_INTEGRITY( pxNewListItem );

    /* Insert a new list item into pxList, but rather than sort the list,
     * makes the new list item the last item to be removed by a call to
     * listGET_OWNER_OF_NEXT_ENTRY(). */
    pxNewListItem->pxNext = pxIndex;
 8000662:	683b      	ldr	r3, [r7, #0]
 8000664:	68fa      	ldr	r2, [r7, #12]
 8000666:	605a      	str	r2, [r3, #4]
    pxNewListItem->pxPrevious = pxIndex->pxPrevious;
 8000668:	68fb      	ldr	r3, [r7, #12]
 800066a:	689a      	ldr	r2, [r3, #8]
 800066c:	683b      	ldr	r3, [r7, #0]
 800066e:	609a      	str	r2, [r3, #8]

    /* Only used during decision coverage testing. */
    mtCOVERAGE_TEST_DELAY();

    pxIndex->pxPrevious->pxNext = pxNewListItem;
 8000670:	68fb      	ldr	r3, [r7, #12]
 8000672:	689b      	ldr	r3, [r3, #8]
 8000674:	683a      	ldr	r2, [r7, #0]
 8000676:	605a      	str	r2, [r3, #4]
    pxIndex->pxPrevious = pxNewListItem;
 8000678:	68fb      	ldr	r3, [r7, #12]
 800067a:	683a      	ldr	r2, [r7, #0]
 800067c:	609a      	str	r2, [r3, #8]

    /* Remember which list the item is in. */
    pxNewListItem->pxContainer = pxList;
 800067e:	683b      	ldr	r3, [r7, #0]
 8000680:	687a      	ldr	r2, [r7, #4]
 8000682:	611a      	str	r2, [r3, #16]

    ( pxList->uxNumberOfItems ) = ( UBaseType_t ) ( pxList->uxNumberOfItems + 1U );
 8000684:	687b      	ldr	r3, [r7, #4]
 8000686:	681b      	ldr	r3, [r3, #0]
 8000688:	1c5a      	adds	r2, r3, #1
 800068a:	687b      	ldr	r3, [r7, #4]
 800068c:	601a      	str	r2, [r3, #0]

    traceRETURN_vListInsertEnd();
}
 800068e:	bf00      	nop
 8000690:	3714      	adds	r7, #20
 8000692:	46bd      	mov	sp, r7
 8000694:	f85d 7b04 	ldr.w	r7, [sp], #4
 8000698:	4770      	bx	lr

0800069a <vListInsert>:
/*-----------------------------------------------------------*/

void vListInsert( List_t * const pxList,
                  ListItem_t * const pxNewListItem )
{
 800069a:	b480      	push	{r7}
 800069c:	b085      	sub	sp, #20
 800069e:	af00      	add	r7, sp, #0
 80006a0:	6078      	str	r0, [r7, #4]
 80006a2:	6039      	str	r1, [r7, #0]
    ListItem_t * pxIterator;
    const TickType_t xValueOfInsertion = pxNewListItem->xItemValue;
 80006a4:	683b      	ldr	r3, [r7, #0]
 80006a6:	681b      	ldr	r3, [r3, #0]
 80006a8:	60bb      	str	r3, [r7, #8]
     * new list item should be placed after it.  This ensures that TCBs which are
     * stored in ready lists (all of which have the same xItemValue value) get a
     * share of the CPU.  However, if the xItemValue is the same as the back marker
     * the iteration loop below will not end.  Therefore the value is checked
     * first, and the algorithm slightly modified if necessary. */
    if( xValueOfInsertion == portMAX_DELAY )
 80006aa:	68bb      	ldr	r3, [r7, #8]
 80006ac:	f1b3 3fff 	cmp.w	r3, #4294967295
 80006b0:	d103      	bne.n	80006ba <vListInsert+0x20>
    {
        pxIterator = pxList->xListEnd.pxPrevious;
 80006b2:	687b      	ldr	r3, [r7, #4]
 80006b4:	691b      	ldr	r3, [r3, #16]
 80006b6:	60fb      	str	r3, [r7, #12]
 80006b8:	e00c      	b.n	80006d4 <vListInsert+0x3a>
        *   5) If the FreeRTOS port supports interrupt nesting then ensure that
        *      the priority of the tick interrupt is at or below
        *      configMAX_SYSCALL_INTERRUPT_PRIORITY.
        **********************************************************************/

        for( pxIterator = ( ListItem_t * ) &( pxList->xListEnd ); pxIterator->pxNext->xItemValue <= xValueOfInsertion; pxIterator = pxIterator->pxNext )
 80006ba:	687b      	ldr	r3, [r7, #4]
 80006bc:	3308      	adds	r3, #8
 80006be:	60fb      	str	r3, [r7, #12]
 80006c0:	e002      	b.n	80006c8 <vListInsert+0x2e>
 80006c2:	68fb      	ldr	r3, [r7, #12]
 80006c4:	685b      	ldr	r3, [r3, #4]
 80006c6:	60fb      	str	r3, [r7, #12]
 80006c8:	68fb      	ldr	r3, [r7, #12]
 80006ca:	685b      	ldr	r3, [r3, #4]
 80006cc:	681b      	ldr	r3, [r3, #0]
 80006ce:	68ba      	ldr	r2, [r7, #8]
 80006d0:	429a      	cmp	r2, r3
 80006d2:	d2f6      	bcs.n	80006c2 <vListInsert+0x28>
             * IF YOU FIND YOUR CODE STUCK HERE, SEE THE NOTE JUST ABOVE.
             */
        }
    }

    pxNewListItem->pxNext = pxIterator->pxNext;
 80006d4:	68fb      	ldr	r3, [r7, #12]
 80006d6:	685a      	ldr	r2, [r3, #4]
 80006d8:	683b      	ldr	r3, [r7, #0]
 80006da:	605a      	str	r2, [r3, #4]
    pxNewListItem->pxNext->pxPrevious = pxNewListItem;
 80006dc:	683b      	ldr	r3, [r7, #0]
 80006de:	685b      	ldr	r3, [r3, #4]
 80006e0:	683a      	ldr	r2, [r7, #0]
 80006e2:	609a      	str	r2, [r3, #8]
    pxNewListItem->pxPrevious = pxIterator;
 80006e4:	683b      	ldr	r3, [r7, #0]
 80006e6:	68fa      	ldr	r2, [r7, #12]
 80006e8:	609a      	str	r2, [r3, #8]
    pxIterator->pxNext = pxNewListItem;
 80006ea:	68fb      	ldr	r3, [r7, #12]
 80006ec:	683a      	ldr	r2, [r7, #0]
 80006ee:	605a      	str	r2, [r3, #4]

    /* Remember which list the item is in.  This allows fast removal of the
     * item later. */
    pxNewListItem->pxContainer = pxList;
 80006f0:	683b      	ldr	r3, [r7, #0]
 80006f2:	687a      	ldr	r2, [r7, #4]
 80006f4:	611a      	str	r2, [r3, #16]

    ( pxList->uxNumberOfItems ) = ( UBaseType_t ) ( pxList->uxNumberOfItems + 1U );
 80006f6:	687b      	ldr	r3, [r7, #4]
 80006f8:	681b      	ldr	r3, [r3, #0]
 80006fa:	1c5a      	adds	r2, r3, #1
 80006fc:	687b      	ldr	r3, [r7, #4]
 80006fe:	601a      	str	r2, [r3, #0]

    traceRETURN_vListInsert();
}
 8000700:	bf00      	nop
 8000702:	3714      	adds	r7, #20
 8000704:	46bd      	mov	sp, r7
 8000706:	f85d 7b04 	ldr.w	r7, [sp], #4
 800070a:	4770      	bx	lr

0800070c <uxListRemove>:
/*-----------------------------------------------------------*/


UBaseType_t uxListRemove( ListItem_t * const pxItemToRemove )
{
 800070c:	b480      	push	{r7}
 800070e:	b085      	sub	sp, #20
 8000710:	af00      	add	r7, sp, #0
 8000712:	6078      	str	r0, [r7, #4]
    /* The list item knows which list it is in.  Obtain the list from the list
     * item. */
    List_t * const pxList = pxItemToRemove->pxContainer;
 8000714:	687b      	ldr	r3, [r7, #4]
 8000716:	691b      	ldr	r3, [r3, #16]
 8000718:	60fb      	str	r3, [r7, #12]

    traceENTER_uxListRemove( pxItemToRemove );

    pxItemToRemove->pxNext->pxPrevious = pxItemToRemove->pxPrevious;
 800071a:	687b      	ldr	r3, [r7, #4]
 800071c:	685b      	ldr	r3, [r3, #4]
 800071e:	687a      	ldr	r2, [r7, #4]
 8000720:	6892      	ldr	r2, [r2, #8]
 8000722:	609a      	str	r2, [r3, #8]
    pxItemToRemove->pxPrevious->pxNext = pxItemToRemove->pxNext;
 8000724:	687b      	ldr	r3, [r7, #4]
 8000726:	689b      	ldr	r3, [r3, #8]
 8000728:	687a      	ldr	r2, [r7, #4]
 800072a:	6852      	ldr	r2, [r2, #4]
 800072c:	605a      	str	r2, [r3, #4]

    /* Only used during decision coverage testing. */
    mtCOVERAGE_TEST_DELAY();

    /* Make sure the index is left pointing to a valid item. */
    if( pxList->pxIndex == pxItemToRemove )
 800072e:	68fb      	ldr	r3, [r7, #12]
 8000730:	685b      	ldr	r3, [r3, #4]
 8000732:	687a      	ldr	r2, [r7, #4]
 8000734:	429a      	cmp	r2, r3
 8000736:	d103      	bne.n	8000740 <uxListRemove+0x34>
    {
        pxList->pxIndex = pxItemToRemove->pxPrevious;
 8000738:	687b      	ldr	r3, [r7, #4]
 800073a:	689a      	ldr	r2, [r3, #8]
 800073c:	68fb      	ldr	r3, [r7, #12]
 800073e:	605a      	str	r2, [r3, #4]
    else
    {
        mtCOVERAGE_TEST_MARKER();
    }

    pxItemToRemove->pxContainer = NULL;
 8000740:	687b      	ldr	r3, [r7, #4]
 8000742:	2200      	movs	r2, #0
 8000744:	611a      	str	r2, [r3, #16]
    ( pxList->uxNumberOfItems ) = ( UBaseType_t ) ( pxList->uxNumberOfItems - 1U );
 8000746:	68fb      	ldr	r3, [r7, #12]
 8000748:	681b      	ldr	r3, [r3, #0]
 800074a:	1e5a      	subs	r2, r3, #1
 800074c:	68fb      	ldr	r3, [r7, #12]
 800074e:	601a      	str	r2, [r3, #0]

    traceRETURN_uxListRemove( pxList->uxNumberOfItems );

    return pxList->uxNumberOfItems;
 8000750:	68fb      	ldr	r3, [r7, #12]
 8000752:	681b      	ldr	r3, [r3, #0]
}
 8000754:	4618      	mov	r0, r3
 8000756:	3714      	adds	r7, #20
 8000758:	46bd      	mov	sp, r7
 800075a:	f85d 7b04 	ldr.w	r7, [sp], #4
 800075e:	4770      	bx	lr

08000760 <xQueueGenericReset>:
    } while( 0 )
/*-----------------------------------------------------------*/

BaseType_t xQueueGenericReset( QueueHandle_t xQueue,
                               BaseType_t xNewQueue )
{
 8000760:	b580      	push	{r7, lr}
 8000762:	b084      	sub	sp, #16
 8000764:	af00      	add	r7, sp, #0
 8000766:	6078      	str	r0, [r7, #4]
 8000768:	6039      	str	r1, [r7, #0]
    BaseType_t xReturn = pdPASS;
 800076a:	2301      	movs	r3, #1
 800076c:	60fb      	str	r3, [r7, #12]
    Queue_t * const pxQueue = xQueue;
 800076e:	687b      	ldr	r3, [r7, #4]
 8000770:	60bb      	str	r3, [r7, #8]

    traceENTER_xQueueGenericReset( xQueue, xNewQueue );

    configASSERT( pxQueue );

    if( ( pxQueue != NULL ) &&
 8000772:	68bb      	ldr	r3, [r7, #8]
 8000774:	2b00      	cmp	r3, #0
 8000776:	d05d      	beq.n	8000834 <xQueueGenericReset+0xd4>
        ( pxQueue->uxLength >= 1U ) &&
 8000778:	68bb      	ldr	r3, [r7, #8]
 800077a:	6bdb      	ldr	r3, [r3, #60]	@ 0x3c
    if( ( pxQueue != NULL ) &&
 800077c:	2b00      	cmp	r3, #0
 800077e:	d059      	beq.n	8000834 <xQueueGenericReset+0xd4>
        /* Check for multiplication overflow. */
        ( ( SIZE_MAX / pxQueue->uxLength ) >= pxQueue->uxItemSize ) )
 8000780:	68bb      	ldr	r3, [r7, #8]
 8000782:	6c1a      	ldr	r2, [r3, #64]	@ 0x40
 8000784:	68bb      	ldr	r3, [r7, #8]
 8000786:	6bdb      	ldr	r3, [r3, #60]	@ 0x3c
 8000788:	2100      	movs	r1, #0
 800078a:	fba3 2302 	umull	r2, r3, r3, r2
 800078e:	2b00      	cmp	r3, #0
 8000790:	d000      	beq.n	8000794 <xQueueGenericReset+0x34>
 8000792:	2101      	movs	r1, #1
 8000794:	460b      	mov	r3, r1
        ( pxQueue->uxLength >= 1U ) &&
 8000796:	2b00      	cmp	r3, #0
 8000798:	d14c      	bne.n	8000834 <xQueueGenericReset+0xd4>
    {
        taskENTER_CRITICAL();
 800079a:	f004 fae8 	bl	8004d6e <vPortEnterCritical>
        {
            pxQueue->u.xQueue.pcTail = pxQueue->pcHead + ( pxQueue->uxLength * pxQueue->uxItemSize );
 800079e:	68bb      	ldr	r3, [r7, #8]
 80007a0:	681a      	ldr	r2, [r3, #0]
 80007a2:	68bb      	ldr	r3, [r7, #8]
 80007a4:	6bdb      	ldr	r3, [r3, #60]	@ 0x3c
 80007a6:	68b9      	ldr	r1, [r7, #8]
 80007a8:	6c09      	ldr	r1, [r1, #64]	@ 0x40
 80007aa:	fb01 f303 	mul.w	r3, r1, r3
 80007ae:	441a      	add	r2, r3
 80007b0:	68bb      	ldr	r3, [r7, #8]
 80007b2:	609a      	str	r2, [r3, #8]
            pxQueue->uxMessagesWaiting = ( UBaseType_t ) 0U;
 80007b4:	68bb      	ldr	r3, [r7, #8]
 80007b6:	2200      	movs	r2, #0
 80007b8:	639a      	str	r2, [r3, #56]	@ 0x38
            pxQueue->pcWriteTo = pxQueue->pcHead;
 80007ba:	68bb      	ldr	r3, [r7, #8]
 80007bc:	681a      	ldr	r2, [r3, #0]
 80007be:	68bb      	ldr	r3, [r7, #8]
 80007c0:	605a      	str	r2, [r3, #4]
            pxQueue->u.xQueue.pcReadFrom = pxQueue->pcHead + ( ( pxQueue->uxLength - 1U ) * pxQueue->uxItemSize );
 80007c2:	68bb      	ldr	r3, [r7, #8]
 80007c4:	681a      	ldr	r2, [r3, #0]
 80007c6:	68bb      	ldr	r3, [r7, #8]
 80007c8:	6bdb      	ldr	r3, [r3, #60]	@ 0x3c
 80007ca:	3b01      	subs	r3, #1
 80007cc:	68b9      	ldr	r1, [r7, #8]
 80007ce:	6c09      	ldr	r1, [r1, #64]	@ 0x40
 80007d0:	fb01 f303 	mul.w	r3, r1, r3
 80007d4:	441a      	add	r2, r3
 80007d6:	68bb      	ldr	r3, [r7, #8]
 80007d8:	60da      	str	r2, [r3, #12]
            pxQueue->cRxLock = queueUNLOCKED;
 80007da:	68bb      	ldr	r3, [r7, #8]
 80007dc:	22ff      	movs	r2, #255	@ 0xff
 80007de:	f883 2044 	strb.w	r2, [r3, #68]	@ 0x44
            pxQueue->cTxLock = queueUNLOCKED;
 80007e2:	68bb      	ldr	r3, [r7, #8]
 80007e4:	22ff      	movs	r2, #255	@ 0xff
 80007e6:	f883 2045 	strb.w	r2, [r3, #69]	@ 0x45

            if( xNewQueue == pdFALSE )
 80007ea:	683b      	ldr	r3, [r7, #0]
 80007ec:	2b00      	cmp	r3, #0
 80007ee:	d114      	bne.n	800081a <xQueueGenericReset+0xba>
                /* If there are tasks blocked waiting to read from the queue, then
                 * the tasks will remain blocked as after this function exits the queue
                 * will still be empty.  If there are tasks blocked waiting to write to
                 * the queue, then one should be unblocked as after this function exits
                 * it will be possible to write to it. */
                if( listLIST_IS_EMPTY( &( pxQueue->xTasksWaitingToSend ) ) == pdFALSE )
 80007f0:	68bb      	ldr	r3, [r7, #8]
 80007f2:	691b      	ldr	r3, [r3, #16]
 80007f4:	2b00      	cmp	r3, #0
 80007f6:	d01a      	beq.n	800082e <xQueueGenericReset+0xce>
                {
                    if( xTaskRemoveFromEventList( &( pxQueue->xTasksWaitingToSend ) ) != pdFALSE )
 80007f8:	68bb      	ldr	r3, [r7, #8]
 80007fa:	3310      	adds	r3, #16
 80007fc:	4618      	mov	r0, r3
 80007fe:	f002 fc23 	bl	8003048 <xTaskRemoveFromEventList>
 8000802:	4603      	mov	r3, r0
 8000804:	2b00      	cmp	r3, #0
 8000806:	d012      	beq.n	800082e <xQueueGenericReset+0xce>
                    {
                        queueYIELD_IF_USING_PREEMPTION();
 8000808:	4b0e      	ldr	r3, [pc, #56]	@ (8000844 <xQueueGenericReset+0xe4>)
 800080a:	f04f 5280 	mov.w	r2, #268435456	@ 0x10000000
 800080e:	601a      	str	r2, [r3, #0]
 8000810:	f3bf 8f4f 	dsb	sy
 8000814:	f3bf 8f6f 	isb	sy
 8000818:	e009      	b.n	800082e <xQueueGenericReset+0xce>
                }
            }
            else
            {
                /* Ensure the event queues start in the correct state. */
                vListInitialise( &( pxQueue->xTasksWaitingToSend ) );
 800081a:	68bb      	ldr	r3, [r7, #8]
 800081c:	3310      	adds	r3, #16
 800081e:	4618      	mov	r0, r3
 8000820:	f7ff feea 	bl	80005f8 <vListInitialise>
                vListInitialise( &( pxQueue->xTasksWaitingToReceive ) );
 8000824:	68bb      	ldr	r3, [r7, #8]
 8000826:	3324      	adds	r3, #36	@ 0x24
 8000828:	4618      	mov	r0, r3
 800082a:	f7ff fee5 	bl	80005f8 <vListInitialise>
            }
        }
        taskEXIT_CRITICAL();
 800082e:	f004 fab9 	bl	8004da4 <vPortExitCritical>
 8000832:	e001      	b.n	8000838 <xQueueGenericReset+0xd8>
    }
    else
    {
        xReturn = pdFAIL;
 8000834:	2300      	movs	r3, #0
 8000836:	60fb      	str	r3, [r7, #12]

    /* A value is returned for calling semantic consistency with previous
     * versions. */
    traceRETURN_xQueueGenericReset( xReturn );

    return xReturn;
 8000838:	68fb      	ldr	r3, [r7, #12]
}
 800083a:	4618      	mov	r0, r3
 800083c:	3710      	adds	r7, #16
 800083e:	46bd      	mov	sp, r7
 8000840:	bd80      	pop	{r7, pc}
 8000842:	bf00      	nop
 8000844:	e000ed04 	.word	0xe000ed04

08000848 <xQueueGenericCreate>:
#if ( configSUPPORT_DYNAMIC_ALLOCATION == 1 )

    QueueHandle_t xQueueGenericCreate( const UBaseType_t uxQueueLength,
                                       const UBaseType_t uxItemSize,
                                       const uint8_t ucQueueType )
    {
 8000848:	b580      	push	{r7, lr}
 800084a:	b08a      	sub	sp, #40	@ 0x28
 800084c:	af02      	add	r7, sp, #8
 800084e:	60f8      	str	r0, [r7, #12]
 8000850:	60b9      	str	r1, [r7, #8]
 8000852:	4613      	mov	r3, r2
 8000854:	71fb      	strb	r3, [r7, #7]
        Queue_t * pxNewQueue = NULL;
 8000856:	2300      	movs	r3, #0
 8000858:	61fb      	str	r3, [r7, #28]
        size_t xQueueSizeInBytes;
        uint8_t * pucQueueStorage;

        traceENTER_xQueueGenericCreate( uxQueueLength, uxItemSize, ucQueueType );

        if( ( uxQueueLength > ( UBaseType_t ) 0 ) &&
 800085a:	68fb      	ldr	r3, [r7, #12]
 800085c:	2b00      	cmp	r3, #0
 800085e:	d02d      	beq.n	80008bc <xQueueGenericCreate+0x74>
            /* Check for multiplication overflow. */
            ( ( SIZE_MAX / uxQueueLength ) >= uxItemSize ) &&
 8000860:	2100      	movs	r1, #0
 8000862:	68ba      	ldr	r2, [r7, #8]
 8000864:	68fb      	ldr	r3, [r7, #12]
 8000866:	fba3 2302 	umull	r2, r3, r3, r2
 800086a:	2b00      	cmp	r3, #0
 800086c:	d000      	beq.n	8000870 <xQueueGenericCreate+0x28>
 800086e:	2101      	movs	r1, #1
 8000870:	460b      	mov	r3, r1
        if( ( uxQueueLength > ( UBaseType_t ) 0 ) &&
 8000872:	2b00      	cmp	r3, #0
 8000874:	d122      	bne.n	80008bc <xQueueGenericCreate+0x74>
            /* Check for addition overflow. */
            /* MISRA Ref 14.3.1 [Configuration dependent invariant] */
            /* More details at: https://github.com/FreeRTOS/FreeRTOS-Kernel/blob/main/MISRA.md#rule-143. */
            /* coverity[misra_c_2012_rule_14_3_violation] */
            ( ( SIZE_MAX - sizeof( Queue_t ) ) >= ( size_t ) ( ( size_t ) uxQueueLength * ( size_t ) uxItemSize ) ) )
 8000876:	68fb      	ldr	r3, [r7, #12]
 8000878:	68ba      	ldr	r2, [r7, #8]
 800087a:	fb02 f303 	mul.w	r3, r2, r3
            ( ( SIZE_MAX / uxQueueLength ) >= uxItemSize ) &&
 800087e:	f113 0f49 	cmn.w	r3, #73	@ 0x49
 8000882:	d81b      	bhi.n	80008bc <xQueueGenericCreate+0x74>
        {
            /* Allocate enough space to hold the maximum number of items that
             * can be in the queue at any time.  It is valid for uxItemSize to be
             * zero in the case the queue is used as a semaphore. */
            xQueueSizeInBytes = ( size_t ) ( ( size_t ) uxQueueLength * ( size_t ) uxItemSize );
 8000884:	68fb      	ldr	r3, [r7, #12]
 8000886:	68ba      	ldr	r2, [r7, #8]
 8000888:	fb02 f303 	mul.w	r3, r2, r3
 800088c:	61bb      	str	r3, [r7, #24]

            /* MISRA Ref 11.5.1 [Malloc memory assignment] */
            /* More details at: https://github.com/FreeRTOS/FreeRTOS-Kernel/blob/main/MISRA.md#rule-115 */
            /* coverity[misra_c_2012_rule_11_5_violation] */
            pxNewQueue = ( Queue_t * ) pvPortMalloc( sizeof( Queue_t ) + xQueueSizeInBytes );
 800088e:	69bb      	ldr	r3, [r7, #24]
 8000890:	3348      	adds	r3, #72	@ 0x48
 8000892:	4618      	mov	r0, r3
 8000894:	f004 fb1a 	bl	8004ecc <pvPortMalloc>
 8000898:	61f8      	str	r0, [r7, #28]

            if( pxNewQueue != NULL )
 800089a:	69fb      	ldr	r3, [r7, #28]
 800089c:	2b00      	cmp	r3, #0
 800089e:	d00d      	beq.n	80008bc <xQueueGenericCreate+0x74>
            {
                /* Jump past the queue structure to find the location of the queue
                 * storage area. */
                pucQueueStorage = ( uint8_t * ) pxNewQueue;
 80008a0:	69fb      	ldr	r3, [r7, #28]
 80008a2:	617b      	str	r3, [r7, #20]
                pucQueueStorage += sizeof( Queue_t );
 80008a4:	697b      	ldr	r3, [r7, #20]
 80008a6:	3348      	adds	r3, #72	@ 0x48
 80008a8:	617b      	str	r3, [r7, #20]
                     * deleted. */
                    pxNewQueue->ucStaticallyAllocated = pdFALSE;
                }
                #endif /* configSUPPORT_STATIC_ALLOCATION */

                prvInitialiseNewQueue( uxQueueLength, uxItemSize, pucQueueStorage, ucQueueType, pxNewQueue );
 80008aa:	79fa      	ldrb	r2, [r7, #7]
 80008ac:	69fb      	ldr	r3, [r7, #28]
 80008ae:	9300      	str	r3, [sp, #0]
 80008b0:	4613      	mov	r3, r2
 80008b2:	697a      	ldr	r2, [r7, #20]
 80008b4:	68b9      	ldr	r1, [r7, #8]
 80008b6:	68f8      	ldr	r0, [r7, #12]
 80008b8:	f000 f805 	bl	80008c6 <prvInitialiseNewQueue>
            mtCOVERAGE_TEST_MARKER();
        }

        traceRETURN_xQueueGenericCreate( pxNewQueue );

        return pxNewQueue;
 80008bc:	69fb      	ldr	r3, [r7, #28]
    }
 80008be:	4618      	mov	r0, r3
 80008c0:	3720      	adds	r7, #32
 80008c2:	46bd      	mov	sp, r7
 80008c4:	bd80      	pop	{r7, pc}

080008c6 <prvInitialiseNewQueue>:
static void prvInitialiseNewQueue( const UBaseType_t uxQueueLength,
                                   const UBaseType_t uxItemSize,
                                   uint8_t * pucQueueStorage,
                                   const uint8_t ucQueueType,
                                   Queue_t * pxNewQueue )
{
 80008c6:	b580      	push	{r7, lr}
 80008c8:	b084      	sub	sp, #16
 80008ca:	af00      	add	r7, sp, #0
 80008cc:	60f8      	str	r0, [r7, #12]
 80008ce:	60b9      	str	r1, [r7, #8]
 80008d0:	607a      	str	r2, [r7, #4]
 80008d2:	70fb      	strb	r3, [r7, #3]
    /* Remove compiler warnings about unused parameters should
     * configUSE_TRACE_FACILITY not be set to 1. */
    ( void ) ucQueueType;

    if( uxItemSize == ( UBaseType_t ) 0 )
 80008d4:	68bb      	ldr	r3, [r7, #8]
 80008d6:	2b00      	cmp	r3, #0
 80008d8:	d103      	bne.n	80008e2 <prvInitialiseNewQueue+0x1c>
    {
        /* No RAM was allocated for the queue storage area, but PC head cannot
         * be set to NULL because NULL is used as a key to say the queue is used as
         * a mutex.  Therefore just set pcHead to point to the queue as a benign
         * value that is known to be within the memory map. */
        pxNewQueue->pcHead = ( int8_t * ) pxNewQueue;
 80008da:	69bb      	ldr	r3, [r7, #24]
 80008dc:	69ba      	ldr	r2, [r7, #24]
 80008de:	601a      	str	r2, [r3, #0]
 80008e0:	e002      	b.n	80008e8 <prvInitialiseNewQueue+0x22>
    }
    else
    {
        /* Set the head to the start of the queue storage area. */
        pxNewQueue->pcHead = ( int8_t * ) pucQueueStorage;
 80008e2:	69bb      	ldr	r3, [r7, #24]
 80008e4:	687a      	ldr	r2, [r7, #4]
 80008e6:	601a      	str	r2, [r3, #0]
    }

    /* Initialise the queue members as described where the queue type is
     * defined. */
    pxNewQueue->uxLength = uxQueueLength;
 80008e8:	69bb      	ldr	r3, [r7, #24]
 80008ea:	68fa      	ldr	r2, [r7, #12]
 80008ec:	63da      	str	r2, [r3, #60]	@ 0x3c
    pxNewQueue->uxItemSize = uxItemSize;
 80008ee:	69bb      	ldr	r3, [r7, #24]
 80008f0:	68ba      	ldr	r2, [r7, #8]
 80008f2:	641a      	str	r2, [r3, #64]	@ 0x40
    ( void ) xQueueGenericReset( pxNewQueue, pdTRUE );
 80008f4:	2101      	movs	r1, #1
 80008f6:	69b8      	ldr	r0, [r7, #24]
 80008f8:	f7ff ff32 	bl	8000760 <xQueueGenericReset>
        pxNewQueue->pxQueueSetContainer = NULL;
    }
    #endif /* configUSE_QUEUE_SETS */

    traceQUEUE_CREATE( pxNewQueue );
}
 80008fc:	bf00      	nop
 80008fe:	3710      	adds	r7, #16
 8000900:	46bd      	mov	sp, r7
 8000902:	bd80      	pop	{r7, pc}

08000904 <prvInitialiseMutex>:
/*-----------------------------------------------------------*/

#if ( configUSE_MUTEXES == 1 )

    static void prvInitialiseMutex( Queue_t * pxNewQueue )
    {
 8000904:	b580      	push	{r7, lr}
 8000906:	b082      	sub	sp, #8
 8000908:	af00      	add	r7, sp, #0
 800090a:	6078      	str	r0, [r7, #4]
        if( pxNewQueue != NULL )
 800090c:	687b      	ldr	r3, [r7, #4]
 800090e:	2b00      	cmp	r3, #0
 8000910:	d00e      	beq.n	8000930 <prvInitialiseMutex+0x2c>
        {
            /* The queue create function will set all the queue structure members
            * correctly for a generic queue, but this function is creating a
            * mutex.  Overwrite those members that need to be set differently -
            * in particular the information required for priority inheritance. */
            pxNewQueue->u.xSemaphore.xMutexHolder = NULL;
 8000912:	687b      	ldr	r3, [r7, #4]
 8000914:	2200      	movs	r2, #0
 8000916:	609a      	str	r2, [r3, #8]
            pxNewQueue->uxQueueType = queueQUEUE_IS_MUTEX;
 8000918:	687b      	ldr	r3, [r7, #4]
 800091a:	2200      	movs	r2, #0
 800091c:	601a      	str	r2, [r3, #0]

            /* In case this is a recursive mutex. */
            pxNewQueue->u.xSemaphore.uxRecursiveCallCount = 0;
 800091e:	687b      	ldr	r3, [r7, #4]
 8000920:	2200      	movs	r2, #0
 8000922:	60da      	str	r2, [r3, #12]

            traceCREATE_MUTEX( pxNewQueue );

            /* Start with the semaphore in the expected state. */
            ( void ) xQueueGenericSend( pxNewQueue, NULL, ( TickType_t ) 0U, queueSEND_TO_BACK );
 8000924:	2300      	movs	r3, #0
 8000926:	2200      	movs	r2, #0
 8000928:	2100      	movs	r1, #0
 800092a:	6878      	ldr	r0, [r7, #4]
 800092c:	f000 f889 	bl	8000a42 <xQueueGenericSend>
        }
        else
        {
            traceCREATE_MUTEX_FAILED();
        }
    }
 8000930:	bf00      	nop
 8000932:	3708      	adds	r7, #8
 8000934:	46bd      	mov	sp, r7
 8000936:	bd80      	pop	{r7, pc}

08000938 <xQueueCreateMutex>:
/*-----------------------------------------------------------*/

#if ( ( configUSE_MUTEXES == 1 ) && ( configSUPPORT_DYNAMIC_ALLOCATION == 1 ) )

    QueueHandle_t xQueueCreateMutex( const uint8_t ucQueueType )
    {
 8000938:	b580      	push	{r7, lr}
 800093a:	b086      	sub	sp, #24
 800093c:	af00      	add	r7, sp, #0
 800093e:	4603      	mov	r3, r0
 8000940:	71fb      	strb	r3, [r7, #7]
        QueueHandle_t xNewQueue;
        const UBaseType_t uxMutexLength = ( UBaseType_t ) 1, uxMutexSize = ( UBaseType_t ) 0;
 8000942:	2301      	movs	r3, #1
 8000944:	617b      	str	r3, [r7, #20]
 8000946:	2300      	movs	r3, #0
 8000948:	613b      	str	r3, [r7, #16]

        traceENTER_xQueueCreateMutex( ucQueueType );

        xNewQueue = xQueueGenericCreate( uxMutexLength, uxMutexSize, ucQueueType );
 800094a:	79fb      	ldrb	r3, [r7, #7]
 800094c:	461a      	mov	r2, r3
 800094e:	6939      	ldr	r1, [r7, #16]
 8000950:	6978      	ldr	r0, [r7, #20]
 8000952:	f7ff ff79 	bl	8000848 <xQueueGenericCreate>
 8000956:	60f8      	str	r0, [r7, #12]
        prvInitialiseMutex( ( Queue_t * ) xNewQueue );
 8000958:	68f8      	ldr	r0, [r7, #12]
 800095a:	f7ff ffd3 	bl	8000904 <prvInitialiseMutex>

        traceRETURN_xQueueCreateMutex( xNewQueue );

        return xNewQueue;
 800095e:	68fb      	ldr	r3, [r7, #12]
    }
 8000960:	4618      	mov	r0, r3
 8000962:	3718      	adds	r7, #24
 8000964:	46bd      	mov	sp, r7
 8000966:	bd80      	pop	{r7, pc}

08000968 <xQueueGiveMutexRecursive>:
/*-----------------------------------------------------------*/

#if ( configUSE_RECURSIVE_MUTEXES == 1 )

    BaseType_t xQueueGiveMutexRecursive( QueueHandle_t xMutex )
    {
 8000968:	b590      	push	{r4, r7, lr}
 800096a:	b085      	sub	sp, #20
 800096c:	af00      	add	r7, sp, #0
 800096e:	6078      	str	r0, [r7, #4]
        BaseType_t xReturn;
        Queue_t * const pxMutex = ( Queue_t * ) xMutex;
 8000970:	687b      	ldr	r3, [r7, #4]
 8000972:	60bb      	str	r3, [r7, #8]
         * change outside of this task.  If this task does not hold the mutex then
         * pxMutexHolder can never coincidentally equal the tasks handle, and as
         * this is the only condition we are interested in it does not matter if
         * pxMutexHolder is accessed simultaneously by another task.  Therefore no
         * mutual exclusion is required to test the pxMutexHolder variable. */
        if( pxMutex->u.xSemaphore.xMutexHolder == xTaskGetCurrentTaskHandle() )
 8000974:	68bb      	ldr	r3, [r7, #8]
 8000976:	689c      	ldr	r4, [r3, #8]
 8000978:	f002 fe0a 	bl	8003590 <xTaskGetCurrentTaskHandle>
 800097c:	4603      	mov	r3, r0
 800097e:	429c      	cmp	r4, r3
 8000980:	d111      	bne.n	80009a6 <xQueueGiveMutexRecursive+0x3e>
            /* uxRecursiveCallCount cannot be zero if xMutexHolder is equal to
             * the task handle, therefore no underflow check is required.  Also,
             * uxRecursiveCallCount is only modified by the mutex holder, and as
             * there can only be one, no mutual exclusion is required to modify the
             * uxRecursiveCallCount member. */
            ( pxMutex->u.xSemaphore.uxRecursiveCallCount )--;
 8000982:	68bb      	ldr	r3, [r7, #8]
 8000984:	68db      	ldr	r3, [r3, #12]
 8000986:	1e5a      	subs	r2, r3, #1
 8000988:	68bb      	ldr	r3, [r7, #8]
 800098a:	60da      	str	r2, [r3, #12]

            /* Has the recursive call count unwound to 0? */
            if( pxMutex->u.xSemaphore.uxRecursiveCallCount == ( UBaseType_t ) 0 )
 800098c:	68bb      	ldr	r3, [r7, #8]
 800098e:	68db      	ldr	r3, [r3, #12]
 8000990:	2b00      	cmp	r3, #0
 8000992:	d105      	bne.n	80009a0 <xQueueGiveMutexRecursive+0x38>
            {
                /* Return the mutex.  This will automatically unblock any other
                 * task that might be waiting to access the mutex. */
                ( void ) xQueueGenericSend( pxMutex, NULL, queueMUTEX_GIVE_BLOCK_TIME, queueSEND_TO_BACK );
 8000994:	2300      	movs	r3, #0
 8000996:	2200      	movs	r2, #0
 8000998:	2100      	movs	r1, #0
 800099a:	68b8      	ldr	r0, [r7, #8]
 800099c:	f000 f851 	bl	8000a42 <xQueueGenericSend>
            else
            {
                mtCOVERAGE_TEST_MARKER();
            }

            xReturn = pdPASS;
 80009a0:	2301      	movs	r3, #1
 80009a2:	60fb      	str	r3, [r7, #12]
 80009a4:	e001      	b.n	80009aa <xQueueGiveMutexRecursive+0x42>
        }
        else
        {
            /* The mutex cannot be given because the calling task is not the
             * holder. */
            xReturn = pdFAIL;
 80009a6:	2300      	movs	r3, #0
 80009a8:	60fb      	str	r3, [r7, #12]
            traceGIVE_MUTEX_RECURSIVE_FAILED( pxMutex );
        }

        traceRETURN_xQueueGiveMutexRecursive( xReturn );

        return xReturn;
 80009aa:	68fb      	ldr	r3, [r7, #12]
    }
 80009ac:	4618      	mov	r0, r3
 80009ae:	3714      	adds	r7, #20
 80009b0:	46bd      	mov	sp, r7
 80009b2:	bd90      	pop	{r4, r7, pc}

080009b4 <xQueueTakeMutexRecursive>:

#if ( configUSE_RECURSIVE_MUTEXES == 1 )

    BaseType_t xQueueTakeMutexRecursive( QueueHandle_t xMutex,
                                         TickType_t xTicksToWait )
    {
 80009b4:	b590      	push	{r4, r7, lr}
 80009b6:	b085      	sub	sp, #20
 80009b8:	af00      	add	r7, sp, #0
 80009ba:	6078      	str	r0, [r7, #4]
 80009bc:	6039      	str	r1, [r7, #0]
        BaseType_t xReturn;
        Queue_t * const pxMutex = ( Queue_t * ) xMutex;
 80009be:	687b      	ldr	r3, [r7, #4]
 80009c0:	60bb      	str	r3, [r7, #8]
        /* Comments regarding mutual exclusion as per those within
         * xQueueGiveMutexRecursive(). */

        traceTAKE_MUTEX_RECURSIVE( pxMutex );

        if( pxMutex->u.xSemaphore.xMutexHolder == xTaskGetCurrentTaskHandle() )
 80009c2:	68bb      	ldr	r3, [r7, #8]
 80009c4:	689c      	ldr	r4, [r3, #8]
 80009c6:	f002 fde3 	bl	8003590 <xTaskGetCurrentTaskHandle>
 80009ca:	4603      	mov	r3, r0
 80009cc:	429c      	cmp	r4, r3
 80009ce:	d107      	bne.n	80009e0 <xQueueTakeMutexRecursive+0x2c>
        {
            ( pxMutex->u.xSemaphore.uxRecursiveCallCount )++;
 80009d0:	68bb      	ldr	r3, [r7, #8]
 80009d2:	68db      	ldr	r3, [r3, #12]
 80009d4:	1c5a      	adds	r2, r3, #1
 80009d6:	68bb      	ldr	r3, [r7, #8]
 80009d8:	60da      	str	r2, [r3, #12]

            /* Check if an overflow occurred. */
            configASSERT( pxMutex->u.xSemaphore.uxRecursiveCallCount );

            xReturn = pdPASS;
 80009da:	2301      	movs	r3, #1
 80009dc:	60fb      	str	r3, [r7, #12]
 80009de:	e00c      	b.n	80009fa <xQueueTakeMutexRecursive+0x46>
        }
        else
        {
            xReturn = xQueueSemaphoreTake( pxMutex, xTicksToWait );
 80009e0:	6839      	ldr	r1, [r7, #0]
 80009e2:	68b8      	ldr	r0, [r7, #8]
 80009e4:	f000 fa3c 	bl	8000e60 <xQueueSemaphoreTake>
 80009e8:	60f8      	str	r0, [r7, #12]

            /* pdPASS will only be returned if the mutex was successfully
             * obtained.  The calling task may have entered the Blocked state
             * before reaching here. */
            if( xReturn != pdFAIL )
 80009ea:	68fb      	ldr	r3, [r7, #12]
 80009ec:	2b00      	cmp	r3, #0
 80009ee:	d004      	beq.n	80009fa <xQueueTakeMutexRecursive+0x46>
            {
                ( pxMutex->u.xSemaphore.uxRecursiveCallCount )++;
 80009f0:	68bb      	ldr	r3, [r7, #8]
 80009f2:	68db      	ldr	r3, [r3, #12]
 80009f4:	1c5a      	adds	r2, r3, #1
 80009f6:	68bb      	ldr	r3, [r7, #8]
 80009f8:	60da      	str	r2, [r3, #12]
            }
        }

        traceRETURN_xQueueTakeMutexRecursive( xReturn );

        return xReturn;
 80009fa:	68fb      	ldr	r3, [r7, #12]
    }
 80009fc:	4618      	mov	r0, r3
 80009fe:	3714      	adds	r7, #20
 8000a00:	46bd      	mov	sp, r7
 8000a02:	bd90      	pop	{r4, r7, pc}

08000a04 <xQueueCreateCountingSemaphore>:

#if ( ( configUSE_COUNTING_SEMAPHORES == 1 ) && ( configSUPPORT_DYNAMIC_ALLOCATION == 1 ) )

    QueueHandle_t xQueueCreateCountingSemaphore( const UBaseType_t uxMaxCount,
                                                 const UBaseType_t uxInitialCount )
    {
 8000a04:	b580      	push	{r7, lr}
 8000a06:	b084      	sub	sp, #16
 8000a08:	af00      	add	r7, sp, #0
 8000a0a:	6078      	str	r0, [r7, #4]
 8000a0c:	6039      	str	r1, [r7, #0]
        QueueHandle_t xHandle = NULL;
 8000a0e:	2300      	movs	r3, #0
 8000a10:	60fb      	str	r3, [r7, #12]

        traceENTER_xQueueCreateCountingSemaphore( uxMaxCount, uxInitialCount );

        if( ( uxMaxCount != 0U ) &&
 8000a12:	687b      	ldr	r3, [r7, #4]
 8000a14:	2b00      	cmp	r3, #0
 8000a16:	d00f      	beq.n	8000a38 <xQueueCreateCountingSemaphore+0x34>
 8000a18:	683a      	ldr	r2, [r7, #0]
 8000a1a:	687b      	ldr	r3, [r7, #4]
 8000a1c:	429a      	cmp	r2, r3
 8000a1e:	d80b      	bhi.n	8000a38 <xQueueCreateCountingSemaphore+0x34>
            ( uxInitialCount <= uxMaxCount ) )
        {
            xHandle = xQueueGenericCreate( uxMaxCount, queueSEMAPHORE_QUEUE_ITEM_LENGTH, queueQUEUE_TYPE_COUNTING_SEMAPHORE );
 8000a20:	2202      	movs	r2, #2
 8000a22:	2100      	movs	r1, #0
 8000a24:	6878      	ldr	r0, [r7, #4]
 8000a26:	f7ff ff0f 	bl	8000848 <xQueueGenericCreate>
 8000a2a:	60f8      	str	r0, [r7, #12]

            if( xHandle != NULL )
 8000a2c:	68fb      	ldr	r3, [r7, #12]
 8000a2e:	2b00      	cmp	r3, #0
 8000a30:	d002      	beq.n	8000a38 <xQueueCreateCountingSemaphore+0x34>
            {
                ( ( Queue_t * ) xHandle )->uxMessagesWaiting = uxInitialCount;
 8000a32:	68fb      	ldr	r3, [r7, #12]
 8000a34:	683a      	ldr	r2, [r7, #0]
 8000a36:	639a      	str	r2, [r3, #56]	@ 0x38
            mtCOVERAGE_TEST_MARKER();
        }

        traceRETURN_xQueueCreateCountingSemaphore( xHandle );

        return xHandle;
 8000a38:	68fb      	ldr	r3, [r7, #12]
    }
 8000a3a:	4618      	mov	r0, r3
 8000a3c:	3710      	adds	r7, #16
 8000a3e:	46bd      	mov	sp, r7
 8000a40:	bd80      	pop	{r7, pc}

08000a42 <xQueueGenericSend>:

BaseType_t xQueueGenericSend( QueueHandle_t xQueue,
                              const void * const pvItemToQueue,
                              TickType_t xTicksToWait,
                              const BaseType_t xCopyPosition )
{
 8000a42:	b580      	push	{r7, lr}
 8000a44:	b08a      	sub	sp, #40	@ 0x28
 8000a46:	af00      	add	r7, sp, #0
 8000a48:	60f8      	str	r0, [r7, #12]
 8000a4a:	60b9      	str	r1, [r7, #8]
 8000a4c:	607a      	str	r2, [r7, #4]
 8000a4e:	603b      	str	r3, [r7, #0]
    BaseType_t xEntryTimeSet = pdFALSE, xYieldRequired;
 8000a50:	2300      	movs	r3, #0
 8000a52:	627b      	str	r3, [r7, #36]	@ 0x24
    TimeOut_t xTimeOut;
    Queue_t * const pxQueue = xQueue;
 8000a54:	68fb      	ldr	r3, [r7, #12]
 8000a56:	623b      	str	r3, [r7, #32]
    }
    #endif

    for( ; ; )
    {
        taskENTER_CRITICAL();
 8000a58:	f004 f989 	bl	8004d6e <vPortEnterCritical>
        {
            /* Is there room on the queue now?  The running task must be the
             * highest priority task wanting to access the queue.  If the head item
             * in the queue is to be overwritten then it does not matter if the
             * queue is full. */
            if( ( pxQueue->uxMessagesWaiting < pxQueue->uxLength ) || ( xCopyPosition == queueOVERWRITE ) )
 8000a5c:	6a3b      	ldr	r3, [r7, #32]
 8000a5e:	6b9a      	ldr	r2, [r3, #56]	@ 0x38
 8000a60:	6a3b      	ldr	r3, [r7, #32]
 8000a62:	6bdb      	ldr	r3, [r3, #60]	@ 0x3c
 8000a64:	429a      	cmp	r2, r3
 8000a66:	d302      	bcc.n	8000a6e <xQueueGenericSend+0x2c>
 8000a68:	683b      	ldr	r3, [r7, #0]
 8000a6a:	2b02      	cmp	r3, #2
 8000a6c:	d129      	bne.n	8000ac2 <xQueueGenericSend+0x80>
                        }
                    }
                }
                #else /* configUSE_QUEUE_SETS */
                {
                    xYieldRequired = prvCopyDataToQueue( pxQueue, pvItemToQueue, xCopyPosition );
 8000a6e:	683a      	ldr	r2, [r7, #0]
 8000a70:	68b9      	ldr	r1, [r7, #8]
 8000a72:	6a38      	ldr	r0, [r7, #32]
 8000a74:	f000 fc66 	bl	8001344 <prvCopyDataToQueue>
 8000a78:	61f8      	str	r0, [r7, #28]

                    /* If there was a task waiting for data to arrive on the
                     * queue then unblock it now. */
                    if( listLIST_IS_EMPTY( &( pxQueue->xTasksWaitingToReceive ) ) == pdFALSE )
 8000a7a:	6a3b      	ldr	r3, [r7, #32]
 8000a7c:	6a5b      	ldr	r3, [r3, #36]	@ 0x24
 8000a7e:	2b00      	cmp	r3, #0
 8000a80:	d010      	beq.n	8000aa4 <xQueueGenericSend+0x62>
                    {
                        if( xTaskRemoveFromEventList( &( pxQueue->xTasksWaitingToReceive ) ) != pdFALSE )
 8000a82:	6a3b      	ldr	r3, [r7, #32]
 8000a84:	3324      	adds	r3, #36	@ 0x24
 8000a86:	4618      	mov	r0, r3
 8000a88:	f002 fade 	bl	8003048 <xTaskRemoveFromEventList>
 8000a8c:	4603      	mov	r3, r0
 8000a8e:	2b00      	cmp	r3, #0
 8000a90:	d013      	beq.n	8000aba <xQueueGenericSend+0x78>
                        {
                            /* The unblocked task has a priority higher than
                             * our own so yield immediately.  Yes it is ok to do
                             * this from within the critical section - the kernel
                             * takes care of that. */
                            queueYIELD_IF_USING_PREEMPTION();
 8000a92:	4b40      	ldr	r3, [pc, #256]	@ (8000b94 <xQueueGenericSend+0x152>)
 8000a94:	f04f 5280 	mov.w	r2, #268435456	@ 0x10000000
 8000a98:	601a      	str	r2, [r3, #0]
 8000a9a:	f3bf 8f4f 	dsb	sy
 8000a9e:	f3bf 8f6f 	isb	sy
 8000aa2:	e00a      	b.n	8000aba <xQueueGenericSend+0x78>
                        else
                        {
                            mtCOVERAGE_TEST_MARKER();
                        }
                    }
                    else if( xYieldRequired != pdFALSE )
 8000aa4:	69fb      	ldr	r3, [r7, #28]
 8000aa6:	2b00      	cmp	r3, #0
 8000aa8:	d007      	beq.n	8000aba <xQueueGenericSend+0x78>
                    {
                        /* This path is a special case that will only get
                         * executed if the task was holding multiple mutexes and
                         * the mutexes were given back in an order that is
                         * different to that in which they were taken. */
                        queueYIELD_IF_USING_PREEMPTION();
 8000aaa:	4b3a      	ldr	r3, [pc, #232]	@ (8000b94 <xQueueGenericSend+0x152>)
 8000aac:	f04f 5280 	mov.w	r2, #268435456	@ 0x10000000
 8000ab0:	601a      	str	r2, [r3, #0]
 8000ab2:	f3bf 8f4f 	dsb	sy
 8000ab6:	f3bf 8f6f 	isb	sy
                        mtCOVERAGE_TEST_MARKER();
                    }
                }
                #endif /* configUSE_QUEUE_SETS */

                taskEXIT_CRITICAL();
 8000aba:	f004 f973 	bl	8004da4 <vPortExitCritical>

                traceRETURN_xQueueGenericSend( pdPASS );

                return pdPASS;
 8000abe:	2301      	movs	r3, #1
 8000ac0:	e063      	b.n	8000b8a <xQueueGenericSend+0x148>
            }
            else
            {
                if( xTicksToWait == ( TickType_t ) 0 )
 8000ac2:	687b      	ldr	r3, [r7, #4]
 8000ac4:	2b00      	cmp	r3, #0
 8000ac6:	d103      	bne.n	8000ad0 <xQueueGenericSend+0x8e>
                {
                    /* The queue was full and no block time is specified (or
                     * the block time has expired) so leave now. */
                    taskEXIT_CRITICAL();
 8000ac8:	f004 f96c 	bl	8004da4 <vPortExitCritical>
                    /* Return to the original privilege level before exiting
                     * the function. */
                    traceQUEUE_SEND_FAILED( pxQueue );
                    traceRETURN_xQueueGenericSend( errQUEUE_FULL );

                    return errQUEUE_FULL;
 8000acc:	2300      	movs	r3, #0
 8000ace:	e05c      	b.n	8000b8a <xQueueGenericSend+0x148>
                }
                else if( xEntryTimeSet == pdFALSE )
 8000ad0:	6a7b      	ldr	r3, [r7, #36]	@ 0x24
 8000ad2:	2b00      	cmp	r3, #0
 8000ad4:	d106      	bne.n	8000ae4 <xQueueGenericSend+0xa2>
                {
                    /* The queue was full and a block time was specified so
                     * configure the timeout structure. */
                    vTaskInternalSetTimeOutState( &xTimeOut );
 8000ad6:	f107 0314 	add.w	r3, r7, #20
 8000ada:	4618      	mov	r0, r3
 8000adc:	f002 fc3a 	bl	8003354 <vTaskInternalSetTimeOutState>
                    xEntryTimeSet = pdTRUE;
 8000ae0:	2301      	movs	r3, #1
 8000ae2:	627b      	str	r3, [r7, #36]	@ 0x24
                    /* Entry time was already set. */
                    mtCOVERAGE_TEST_MARKER();
                }
            }
        }
        taskEXIT_CRITICAL();
 8000ae4:	f004 f95e 	bl	8004da4 <vPortExitCritical>

        /* Interrupts and other tasks can send to and receive from the queue
         * now the critical section has been exited. */

        vTaskSuspendAll();
 8000ae8:	f001 ff46 	bl	8002978 <vTaskSuspendAll>
        prvLockQueue( pxQueue );
 8000aec:	f004 f93f 	bl	8004d6e <vPortEnterCritical>
 8000af0:	6a3b      	ldr	r3, [r7, #32]
 8000af2:	f893 3044 	ldrb.w	r3, [r3, #68]	@ 0x44
 8000af6:	b25b      	sxtb	r3, r3
 8000af8:	f1b3 3fff 	cmp.w	r3, #4294967295
 8000afc:	d103      	bne.n	8000b06 <xQueueGenericSend+0xc4>
 8000afe:	6a3b      	ldr	r3, [r7, #32]
 8000b00:	2200      	movs	r2, #0
 8000b02:	f883 2044 	strb.w	r2, [r3, #68]	@ 0x44
 8000b06:	6a3b      	ldr	r3, [r7, #32]
 8000b08:	f893 3045 	ldrb.w	r3, [r3, #69]	@ 0x45
 8000b0c:	b25b      	sxtb	r3, r3
 8000b0e:	f1b3 3fff 	cmp.w	r3, #4294967295
 8000b12:	d103      	bne.n	8000b1c <xQueueGenericSend+0xda>
 8000b14:	6a3b      	ldr	r3, [r7, #32]
 8000b16:	2200      	movs	r2, #0
 8000b18:	f883 2045 	strb.w	r2, [r3, #69]	@ 0x45
 8000b1c:	f004 f942 	bl	8004da4 <vPortExitCritical>

        /* Update the timeout state to see if it has expired yet. */
        if( xTaskCheckForTimeOut( &xTimeOut, &xTicksToWait ) == pdFALSE )
 8000b20:	1d3a      	adds	r2, r7, #4
 8000b22:	f107 0314 	add.w	r3, r7, #20
 8000b26:	4611      	mov	r1, r2
 8000b28:	4618      	mov	r0, r3
 8000b2a:	f002 fc29 	bl	8003380 <xTaskCheckForTimeOut>
 8000b2e:	4603      	mov	r3, r0
 8000b30:	2b00      	cmp	r3, #0
 8000b32:	d124      	bne.n	8000b7e <xQueueGenericSend+0x13c>
        {
            if( prvIsQueueFull( pxQueue ) != pdFALSE )
 8000b34:	6a38      	ldr	r0, [r7, #32]
 8000b36:	f000 fd13 	bl	8001560 <prvIsQueueFull>
 8000b3a:	4603      	mov	r3, r0
 8000b3c:	2b00      	cmp	r3, #0
 8000b3e:	d018      	beq.n	8000b72 <xQueueGenericSend+0x130>
            {
                traceBLOCKING_ON_QUEUE_SEND( pxQueue );
                vTaskPlaceOnEventList( &( pxQueue->xTasksWaitingToSend ), xTicksToWait );
 8000b40:	6a3b      	ldr	r3, [r7, #32]
 8000b42:	3310      	adds	r3, #16
 8000b44:	687a      	ldr	r2, [r7, #4]
 8000b46:	4611      	mov	r1, r2
 8000b48:	4618      	mov	r0, r3
 8000b4a:	f002 f9f7 	bl	8002f3c <vTaskPlaceOnEventList>
                /* Unlocking the queue means queue events can effect the
                 * event list. It is possible that interrupts occurring now
                 * remove this task from the event list again - but as the
                 * scheduler is suspended the task will go onto the pending
                 * ready list instead of the actual ready list. */
                prvUnlockQueue( pxQueue );
 8000b4e:	6a38      	ldr	r0, [r7, #32]
 8000b50:	f000 fc88 	bl	8001464 <prvUnlockQueue>
                /* Resuming the scheduler will move tasks from the pending
                 * ready list into the ready list - so it is feasible that this
                 * task is already in the ready list before it yields - in which
                 * case the yield will not cause a context switch unless there
                 * is also a higher priority task in the pending ready list. */
                if( xTaskResumeAll() == pdFALSE )
 8000b54:	f001 ff1e 	bl	8002994 <xTaskResumeAll>
 8000b58:	4603      	mov	r3, r0
 8000b5a:	2b00      	cmp	r3, #0
 8000b5c:	f47f af7c 	bne.w	8000a58 <xQueueGenericSend+0x16>
                {
                    taskYIELD_WITHIN_API();
 8000b60:	4b0c      	ldr	r3, [pc, #48]	@ (8000b94 <xQueueGenericSend+0x152>)
 8000b62:	f04f 5280 	mov.w	r2, #268435456	@ 0x10000000
 8000b66:	601a      	str	r2, [r3, #0]
 8000b68:	f3bf 8f4f 	dsb	sy
 8000b6c:	f3bf 8f6f 	isb	sy
 8000b70:	e772      	b.n	8000a58 <xQueueGenericSend+0x16>
                }
            }
            else
            {
                /* Try again. */
                prvUnlockQueue( pxQueue );
 8000b72:	6a38      	ldr	r0, [r7, #32]
 8000b74:	f000 fc76 	bl	8001464 <prvUnlockQueue>
                ( void ) xTaskResumeAll();
 8000b78:	f001 ff0c 	bl	8002994 <xTaskResumeAll>
 8000b7c:	e76c      	b.n	8000a58 <xQueueGenericSend+0x16>
            }
        }
        else
        {
            /* The timeout has expired. */
            prvUnlockQueue( pxQueue );
 8000b7e:	6a38      	ldr	r0, [r7, #32]
 8000b80:	f000 fc70 	bl	8001464 <prvUnlockQueue>
            ( void ) xTaskResumeAll();
 8000b84:	f001 ff06 	bl	8002994 <xTaskResumeAll>

            traceQUEUE_SEND_FAILED( pxQueue );
            traceRETURN_xQueueGenericSend( errQUEUE_FULL );

            return errQUEUE_FULL;
 8000b88:	2300      	movs	r3, #0
        }
    }
}
 8000b8a:	4618      	mov	r0, r3
 8000b8c:	3728      	adds	r7, #40	@ 0x28
 8000b8e:	46bd      	mov	sp, r7
 8000b90:	bd80      	pop	{r7, pc}
 8000b92:	bf00      	nop
 8000b94:	e000ed04 	.word	0xe000ed04

08000b98 <xQueueGenericSendFromISR>:

BaseType_t xQueueGenericSendFromISR( QueueHandle_t xQueue,
                                     const void * const pvItemToQueue,
                                     BaseType_t * const pxHigherPriorityTaskWoken,
                                     const BaseType_t xCopyPosition )
{
 8000b98:	b580      	push	{r7, lr}
 8000b9a:	b08e      	sub	sp, #56	@ 0x38
 8000b9c:	af00      	add	r7, sp, #0
 8000b9e:	60f8      	str	r0, [r7, #12]
 8000ba0:	60b9      	str	r1, [r7, #8]
 8000ba2:	607a      	str	r2, [r7, #4]
 8000ba4:	603b      	str	r3, [r7, #0]
    BaseType_t xReturn;
    UBaseType_t uxSavedInterruptStatus;
    Queue_t * const pxQueue = xQueue;
 8000ba6:	68fb      	ldr	r3, [r7, #12]
 8000ba8:	633b      	str	r3, [r7, #48]	@ 0x30
    __asm volatile
 8000baa:	f3ef 8211 	mrs	r2, BASEPRI
 8000bae:	f04f 0350 	mov.w	r3, #80	@ 0x50
 8000bb2:	f383 8811 	msr	BASEPRI, r3
 8000bb6:	f3bf 8f6f 	isb	sy
 8000bba:	f3bf 8f4f 	dsb	sy
 8000bbe:	61fa      	str	r2, [r7, #28]
 8000bc0:	61bb      	str	r3, [r7, #24]
    return ulOriginalBASEPRI;
 8000bc2:	69fb      	ldr	r3, [r7, #28]
     * not (i.e. has a task with a higher priority than us been woken by this
     * post). */
    /* MISRA Ref 4.7.1 [Return value shall be checked] */
    /* More details at: https://github.com/FreeRTOS/FreeRTOS-Kernel/blob/main/MISRA.md#dir-47 */
    /* coverity[misra_c_2012_directive_4_7_violation] */
    uxSavedInterruptStatus = ( UBaseType_t ) taskENTER_CRITICAL_FROM_ISR();
 8000bc4:	62fb      	str	r3, [r7, #44]	@ 0x2c
    {
        if( ( pxQueue->uxMessagesWaiting < pxQueue->uxLength ) || ( xCopyPosition == queueOVERWRITE ) )
 8000bc6:	6b3b      	ldr	r3, [r7, #48]	@ 0x30
 8000bc8:	6b9a      	ldr	r2, [r3, #56]	@ 0x38
 8000bca:	6b3b      	ldr	r3, [r7, #48]	@ 0x30
 8000bcc:	6bdb      	ldr	r3, [r3, #60]	@ 0x3c
 8000bce:	429a      	cmp	r2, r3
 8000bd0:	d302      	bcc.n	8000bd8 <xQueueGenericSendFromISR+0x40>
 8000bd2:	683b      	ldr	r3, [r7, #0]
 8000bd4:	2b02      	cmp	r3, #2
 8000bd6:	d137      	bne.n	8000c48 <xQueueGenericSendFromISR+0xb0>
        {
            const int8_t cTxLock = pxQueue->cTxLock;
 8000bd8:	6b3b      	ldr	r3, [r7, #48]	@ 0x30
 8000bda:	f893 3045 	ldrb.w	r3, [r3, #69]	@ 0x45
 8000bde:	f887 302b 	strb.w	r3, [r7, #43]	@ 0x2b
            const UBaseType_t uxPreviousMessagesWaiting = pxQueue->uxMessagesWaiting;
 8000be2:	6b3b      	ldr	r3, [r7, #48]	@ 0x30
 8000be4:	6b9b      	ldr	r3, [r3, #56]	@ 0x38
 8000be6:	627b      	str	r3, [r7, #36]	@ 0x24
            /* Semaphores use xQueueGiveFromISR(), so pxQueue will not be a
             *  semaphore or mutex.  That means prvCopyDataToQueue() cannot result
             *  in a task disinheriting a priority and prvCopyDataToQueue() can be
             *  called here even though the disinherit function does not check if
             *  the scheduler is suspended before accessing the ready lists. */
            ( void ) prvCopyDataToQueue( pxQueue, pvItemToQueue, xCopyPosition );
 8000be8:	683a      	ldr	r2, [r7, #0]
 8000bea:	68b9      	ldr	r1, [r7, #8]
 8000bec:	6b38      	ldr	r0, [r7, #48]	@ 0x30
 8000bee:	f000 fba9 	bl	8001344 <prvCopyDataToQueue>

            /* The event list is not altered if the queue is locked.  This will
             * be done when the queue is unlocked later. */
            if( cTxLock == queueUNLOCKED )
 8000bf2:	f997 302b 	ldrsb.w	r3, [r7, #43]	@ 0x2b
 8000bf6:	f1b3 3fff 	cmp.w	r3, #4294967295
 8000bfa:	d112      	bne.n	8000c22 <xQueueGenericSendFromISR+0x8a>
                        }
                    }
                }
                #else /* configUSE_QUEUE_SETS */
                {
                    if( listLIST_IS_EMPTY( &( pxQueue->xTasksWaitingToReceive ) ) == pdFALSE )
 8000bfc:	6b3b      	ldr	r3, [r7, #48]	@ 0x30
 8000bfe:	6a5b      	ldr	r3, [r3, #36]	@ 0x24
 8000c00:	2b00      	cmp	r3, #0
 8000c02:	d01e      	beq.n	8000c42 <xQueueGenericSendFromISR+0xaa>
                    {
                        if( xTaskRemoveFromEventList( &( pxQueue->xTasksWaitingToReceive ) ) != pdFALSE )
 8000c04:	6b3b      	ldr	r3, [r7, #48]	@ 0x30
 8000c06:	3324      	adds	r3, #36	@ 0x24
 8000c08:	4618      	mov	r0, r3
 8000c0a:	f002 fa1d 	bl	8003048 <xTaskRemoveFromEventList>
 8000c0e:	4603      	mov	r3, r0
 8000c10:	2b00      	cmp	r3, #0
 8000c12:	d016      	beq.n	8000c42 <xQueueGenericSendFromISR+0xaa>
                        {
                            /* The task waiting has a higher priority so record that a
                             * context switch is required. */
                            if( pxHigherPriorityTaskWoken != NULL )
 8000c14:	687b      	ldr	r3, [r7, #4]
 8000c16:	2b00      	cmp	r3, #0
 8000c18:	d013      	beq.n	8000c42 <xQueueGenericSendFromISR+0xaa>
                            {
                                *pxHigherPriorityTaskWoken = pdTRUE;
 8000c1a:	687b      	ldr	r3, [r7, #4]
 8000c1c:	2201      	movs	r2, #1
 8000c1e:	601a      	str	r2, [r3, #0]
 8000c20:	e00f      	b.n	8000c42 <xQueueGenericSendFromISR+0xaa>
            }
            else
            {
                /* Increment the lock count so the task that unlocks the queue
                 * knows that data was posted while it was locked. */
                prvIncrementQueueTxLock( pxQueue, cTxLock );
 8000c22:	f001 ffd1 	bl	8002bc8 <uxTaskGetNumberOfTasks>
 8000c26:	6238      	str	r0, [r7, #32]
 8000c28:	f997 302b 	ldrsb.w	r3, [r7, #43]	@ 0x2b
 8000c2c:	6a3a      	ldr	r2, [r7, #32]
 8000c2e:	429a      	cmp	r2, r3
 8000c30:	d907      	bls.n	8000c42 <xQueueGenericSendFromISR+0xaa>
 8000c32:	f897 302b 	ldrb.w	r3, [r7, #43]	@ 0x2b
 8000c36:	3301      	adds	r3, #1
 8000c38:	b2db      	uxtb	r3, r3
 8000c3a:	b25a      	sxtb	r2, r3
 8000c3c:	6b3b      	ldr	r3, [r7, #48]	@ 0x30
 8000c3e:	f883 2045 	strb.w	r2, [r3, #69]	@ 0x45
            }

            xReturn = pdPASS;
 8000c42:	2301      	movs	r3, #1
 8000c44:	637b      	str	r3, [r7, #52]	@ 0x34
        {
 8000c46:	e001      	b.n	8000c4c <xQueueGenericSendFromISR+0xb4>
        }
        else
        {
            traceQUEUE_SEND_FROM_ISR_FAILED( pxQueue );
            xReturn = errQUEUE_FULL;
 8000c48:	2300      	movs	r3, #0
 8000c4a:	637b      	str	r3, [r7, #52]	@ 0x34
 8000c4c:	6afb      	ldr	r3, [r7, #44]	@ 0x2c
 8000c4e:	617b      	str	r3, [r7, #20]
    __asm volatile
 8000c50:	697b      	ldr	r3, [r7, #20]
 8000c52:	f383 8811 	msr	BASEPRI, r3
}
 8000c56:	bf00      	nop
    }
    taskEXIT_CRITICAL_FROM_ISR( uxSavedInterruptStatus );

    traceRETURN_xQueueGenericSendFromISR( xReturn );

    return xReturn;
 8000c58:	6b7b      	ldr	r3, [r7, #52]	@ 0x34
}
 8000c5a:	4618      	mov	r0, r3
 8000c5c:	3738      	adds	r7, #56	@ 0x38
 8000c5e:	46bd      	mov	sp, r7
 8000c60:	bd80      	pop	{r7, pc}

08000c62 <xQueueGiveFromISR>:
/*-----------------------------------------------------------*/

BaseType_t xQueueGiveFromISR( QueueHandle_t xQueue,
                              BaseType_t * const pxHigherPriorityTaskWoken )
{
 8000c62:	b580      	push	{r7, lr}
 8000c64:	b08c      	sub	sp, #48	@ 0x30
 8000c66:	af00      	add	r7, sp, #0
 8000c68:	6078      	str	r0, [r7, #4]
 8000c6a:	6039      	str	r1, [r7, #0]
    BaseType_t xReturn;
    UBaseType_t uxSavedInterruptStatus;
    Queue_t * const pxQueue = xQueue;
 8000c6c:	687b      	ldr	r3, [r7, #4]
 8000c6e:	62bb      	str	r3, [r7, #40]	@ 0x28
    __asm volatile
 8000c70:	f3ef 8211 	mrs	r2, BASEPRI
 8000c74:	f04f 0350 	mov.w	r3, #80	@ 0x50
 8000c78:	f383 8811 	msr	BASEPRI, r3
 8000c7c:	f3bf 8f6f 	isb	sy
 8000c80:	f3bf 8f4f 	dsb	sy
 8000c84:	617a      	str	r2, [r7, #20]
 8000c86:	613b      	str	r3, [r7, #16]
    return ulOriginalBASEPRI;
 8000c88:	697b      	ldr	r3, [r7, #20]
    portASSERT_IF_INTERRUPT_PRIORITY_INVALID();

    /* MISRA Ref 4.7.1 [Return value shall be checked] */
    /* More details at: https://github.com/FreeRTOS/FreeRTOS-Kernel/blob/main/MISRA.md#dir-47 */
    /* coverity[misra_c_2012_directive_4_7_violation] */
    uxSavedInterruptStatus = ( UBaseType_t ) taskENTER_CRITICAL_FROM_ISR();
 8000c8a:	627b      	str	r3, [r7, #36]	@ 0x24
    {
        const UBaseType_t uxMessagesWaiting = pxQueue->uxMessagesWaiting;
 8000c8c:	6abb      	ldr	r3, [r7, #40]	@ 0x28
 8000c8e:	6b9b      	ldr	r3, [r3, #56]	@ 0x38
 8000c90:	623b      	str	r3, [r7, #32]

        /* When the queue is used to implement a semaphore no data is ever
         * moved through the queue but it is still valid to see if the queue 'has
         * space'. */
        if( uxMessagesWaiting < pxQueue->uxLength )
 8000c92:	6abb      	ldr	r3, [r7, #40]	@ 0x28
 8000c94:	6bdb      	ldr	r3, [r3, #60]	@ 0x3c
 8000c96:	6a3a      	ldr	r2, [r7, #32]
 8000c98:	429a      	cmp	r2, r3
 8000c9a:	d231      	bcs.n	8000d00 <xQueueGiveFromISR+0x9e>
        {
            const int8_t cTxLock = pxQueue->cTxLock;
 8000c9c:	6abb      	ldr	r3, [r7, #40]	@ 0x28
 8000c9e:	f893 3045 	ldrb.w	r3, [r3, #69]	@ 0x45
 8000ca2:	77fb      	strb	r3, [r7, #31]
             * holder - and if there is a mutex holder then the mutex cannot be
             * given from an ISR.  As this is the ISR version of the function it
             * can be assumed there is no mutex holder and no need to determine if
             * priority disinheritance is needed.  Simply increase the count of
             * messages (semaphores) available. */
            pxQueue->uxMessagesWaiting = ( UBaseType_t ) ( uxMessagesWaiting + ( UBaseType_t ) 1 );
 8000ca4:	6a3b      	ldr	r3, [r7, #32]
 8000ca6:	1c5a      	adds	r2, r3, #1
 8000ca8:	6abb      	ldr	r3, [r7, #40]	@ 0x28
 8000caa:	639a      	str	r2, [r3, #56]	@ 0x38

            /* The event list is not altered if the queue is locked.  This will
             * be done when the queue is unlocked later. */
            if( cTxLock == queueUNLOCKED )
 8000cac:	f997 301f 	ldrsb.w	r3, [r7, #31]
 8000cb0:	f1b3 3fff 	cmp.w	r3, #4294967295
 8000cb4:	d112      	bne.n	8000cdc <xQueueGiveFromISR+0x7a>
                        }
                    }
                }
                #else /* configUSE_QUEUE_SETS */
                {
                    if( listLIST_IS_EMPTY( &( pxQueue->xTasksWaitingToReceive ) ) == pdFALSE )
 8000cb6:	6abb      	ldr	r3, [r7, #40]	@ 0x28
 8000cb8:	6a5b      	ldr	r3, [r3, #36]	@ 0x24
 8000cba:	2b00      	cmp	r3, #0
 8000cbc:	d01d      	beq.n	8000cfa <xQueueGiveFromISR+0x98>
                    {
                        if( xTaskRemoveFromEventList( &( pxQueue->xTasksWaitingToReceive ) ) != pdFALSE )
 8000cbe:	6abb      	ldr	r3, [r7, #40]	@ 0x28
 8000cc0:	3324      	adds	r3, #36	@ 0x24
 8000cc2:	4618      	mov	r0, r3
 8000cc4:	f002 f9c0 	bl	8003048 <xTaskRemoveFromEventList>
 8000cc8:	4603      	mov	r3, r0
 8000cca:	2b00      	cmp	r3, #0
 8000ccc:	d015      	beq.n	8000cfa <xQueueGiveFromISR+0x98>
                        {
                            /* The task waiting has a higher priority so record that a
                             * context switch is required. */
                            if( pxHigherPriorityTaskWoken != NULL )
 8000cce:	683b      	ldr	r3, [r7, #0]
 8000cd0:	2b00      	cmp	r3, #0
 8000cd2:	d012      	beq.n	8000cfa <xQueueGiveFromISR+0x98>
                            {
                                *pxHigherPriorityTaskWoken = pdTRUE;
 8000cd4:	683b      	ldr	r3, [r7, #0]
 8000cd6:	2201      	movs	r2, #1
 8000cd8:	601a      	str	r2, [r3, #0]
 8000cda:	e00e      	b.n	8000cfa <xQueueGiveFromISR+0x98>
            }
            else
            {
                /* Increment the lock count so the task that unlocks the queue
                 * knows that data was posted while it was locked. */
                prvIncrementQueueTxLock( pxQueue, cTxLock );
 8000cdc:	f001 ff74 	bl	8002bc8 <uxTaskGetNumberOfTasks>
 8000ce0:	61b8      	str	r0, [r7, #24]
 8000ce2:	f997 301f 	ldrsb.w	r3, [r7, #31]
 8000ce6:	69ba      	ldr	r2, [r7, #24]
 8000ce8:	429a      	cmp	r2, r3
 8000cea:	d906      	bls.n	8000cfa <xQueueGiveFromISR+0x98>
 8000cec:	7ffb      	ldrb	r3, [r7, #31]
 8000cee:	3301      	adds	r3, #1
 8000cf0:	b2db      	uxtb	r3, r3
 8000cf2:	b25a      	sxtb	r2, r3
 8000cf4:	6abb      	ldr	r3, [r7, #40]	@ 0x28
 8000cf6:	f883 2045 	strb.w	r2, [r3, #69]	@ 0x45
            }

            xReturn = pdPASS;
 8000cfa:	2301      	movs	r3, #1
 8000cfc:	62fb      	str	r3, [r7, #44]	@ 0x2c
 8000cfe:	e001      	b.n	8000d04 <xQueueGiveFromISR+0xa2>
        }
        else
        {
            traceQUEUE_SEND_FROM_ISR_FAILED( pxQueue );
            xReturn = errQUEUE_FULL;
 8000d00:	2300      	movs	r3, #0
 8000d02:	62fb      	str	r3, [r7, #44]	@ 0x2c
 8000d04:	6a7b      	ldr	r3, [r7, #36]	@ 0x24
 8000d06:	60fb      	str	r3, [r7, #12]
    __asm volatile
 8000d08:	68fb      	ldr	r3, [r7, #12]
 8000d0a:	f383 8811 	msr	BASEPRI, r3
}
 8000d0e:	bf00      	nop
    }
    taskEXIT_CRITICAL_FROM_ISR( uxSavedInterruptStatus );

    traceRETURN_xQueueGiveFromISR( xReturn );

    return xReturn;
 8000d10:	6afb      	ldr	r3, [r7, #44]	@ 0x2c
}
 8000d12:	4618      	mov	r0, r3
 8000d14:	3730      	adds	r7, #48	@ 0x30
 8000d16:	46bd      	mov	sp, r7
 8000d18:	bd80      	pop	{r7, pc}

08000d1a <xQueueReceive>:
/*-----------------------------------------------------------*/

BaseType_t xQueueReceive( QueueHandle_t xQueue,
                          void * const pvBuffer,
                          TickType_t xTicksToWait )
{
 8000d1a:	b580      	push	{r7, lr}
 8000d1c:	b08a      	sub	sp, #40	@ 0x28
 8000d1e:	af00      	add	r7, sp, #0
 8000d20:	60f8      	str	r0, [r7, #12]
 8000d22:	60b9      	str	r1, [r7, #8]
 8000d24:	607a      	str	r2, [r7, #4]
    BaseType_t xEntryTimeSet = pdFALSE;
 8000d26:	2300      	movs	r3, #0
 8000d28:	627b      	str	r3, [r7, #36]	@ 0x24
    TimeOut_t xTimeOut;
    Queue_t * const pxQueue = xQueue;
 8000d2a:	68fb      	ldr	r3, [r7, #12]
 8000d2c:	623b      	str	r3, [r7, #32]
    }
    #endif

    for( ; ; )
    {
        taskENTER_CRITICAL();
 8000d2e:	f004 f81e 	bl	8004d6e <vPortEnterCritical>
        {
            const UBaseType_t uxMessagesWaiting = pxQueue->uxMessagesWaiting;
 8000d32:	6a3b      	ldr	r3, [r7, #32]
 8000d34:	6b9b      	ldr	r3, [r3, #56]	@ 0x38
 8000d36:	61fb      	str	r3, [r7, #28]

            /* Is there data in the queue now?  To be running the calling task
             * must be the highest priority task wanting to access the queue. */
            if( uxMessagesWaiting > ( UBaseType_t ) 0 )
 8000d38:	69fb      	ldr	r3, [r7, #28]
 8000d3a:	2b00      	cmp	r3, #0
 8000d3c:	d01f      	beq.n	8000d7e <xQueueReceive+0x64>
            {
                /* Data available, remove one item. */
                prvCopyDataFromQueue( pxQueue, pvBuffer );
 8000d3e:	68b9      	ldr	r1, [r7, #8]
 8000d40:	6a38      	ldr	r0, [r7, #32]
 8000d42:	f000 fb69 	bl	8001418 <prvCopyDataFromQueue>
                traceQUEUE_RECEIVE( pxQueue );
                pxQueue->uxMessagesWaiting = ( UBaseType_t ) ( uxMessagesWaiting - ( UBaseType_t ) 1 );
 8000d46:	69fb      	ldr	r3, [r7, #28]
 8000d48:	1e5a      	subs	r2, r3, #1
 8000d4a:	6a3b      	ldr	r3, [r7, #32]
 8000d4c:	639a      	str	r2, [r3, #56]	@ 0x38

                /* There is now space in the queue, were any tasks waiting to
                 * post to the queue?  If so, unblock the highest priority waiting
                 * task. */
                if( listLIST_IS_EMPTY( &( pxQueue->xTasksWaitingToSend ) ) == pdFALSE )
 8000d4e:	6a3b      	ldr	r3, [r7, #32]
 8000d50:	691b      	ldr	r3, [r3, #16]
 8000d52:	2b00      	cmp	r3, #0
 8000d54:	d00f      	beq.n	8000d76 <xQueueReceive+0x5c>
                {
                    if( xTaskRemoveFromEventList( &( pxQueue->xTasksWaitingToSend ) ) != pdFALSE )
 8000d56:	6a3b      	ldr	r3, [r7, #32]
 8000d58:	3310      	adds	r3, #16
 8000d5a:	4618      	mov	r0, r3
 8000d5c:	f002 f974 	bl	8003048 <xTaskRemoveFromEventList>
 8000d60:	4603      	mov	r3, r0
 8000d62:	2b00      	cmp	r3, #0
 8000d64:	d007      	beq.n	8000d76 <xQueueReceive+0x5c>
                    {
                        queueYIELD_IF_USING_PREEMPTION();
 8000d66:	4b3d      	ldr	r3, [pc, #244]	@ (8000e5c <xQueueReceive+0x142>)
 8000d68:	f04f 5280 	mov.w	r2, #268435456	@ 0x10000000
 8000d6c:	601a      	str	r2, [r3, #0]
 8000d6e:	f3bf 8f4f 	dsb	sy
 8000d72:	f3bf 8f6f 	isb	sy
                else
                {
                    mtCOVERAGE_TEST_MARKER();
                }

                taskEXIT_CRITICAL();
 8000d76:	f004 f815 	bl	8004da4 <vPortExitCritical>

                traceRETURN_xQueueReceive( pdPASS );

                return pdPASS;
 8000d7a:	2301      	movs	r3, #1
 8000d7c:	e069      	b.n	8000e52 <xQueueReceive+0x138>
            }
            else
            {
                if( xTicksToWait == ( TickType_t ) 0 )
 8000d7e:	687b      	ldr	r3, [r7, #4]
 8000d80:	2b00      	cmp	r3, #0
 8000d82:	d103      	bne.n	8000d8c <xQueueReceive+0x72>
                {
                    /* The queue was empty and no block time is specified (or
                     * the block time has expired) so leave now. */
                    taskEXIT_CRITICAL();
 8000d84:	f004 f80e 	bl	8004da4 <vPortExitCritical>

                    traceQUEUE_RECEIVE_FAILED( pxQueue );
                    traceRETURN_xQueueReceive( errQUEUE_EMPTY );

                    return errQUEUE_EMPTY;
 8000d88:	2300      	movs	r3, #0
 8000d8a:	e062      	b.n	8000e52 <xQueueReceive+0x138>
                }
                else if( xEntryTimeSet == pdFALSE )
 8000d8c:	6a7b      	ldr	r3, [r7, #36]	@ 0x24
 8000d8e:	2b00      	cmp	r3, #0
 8000d90:	d106      	bne.n	8000da0 <xQueueReceive+0x86>
                {
                    /* The queue was empty and a block time was specified so
                     * configure the timeout structure. */
                    vTaskInternalSetTimeOutState( &xTimeOut );
 8000d92:	f107 0314 	add.w	r3, r7, #20
 8000d96:	4618      	mov	r0, r3
 8000d98:	f002 fadc 	bl	8003354 <vTaskInternalSetTimeOutState>
                    xEntryTimeSet = pdTRUE;
 8000d9c:	2301      	movs	r3, #1
 8000d9e:	627b      	str	r3, [r7, #36]	@ 0x24
                    /* Entry time was already set. */
                    mtCOVERAGE_TEST_MARKER();
                }
            }
        }
        taskEXIT_CRITICAL();
 8000da0:	f004 f800 	bl	8004da4 <vPortExitCritical>

        /* Interrupts and other tasks can send to and receive from the queue
         * now the critical section has been exited. */

        vTaskSuspendAll();
 8000da4:	f001 fde8 	bl	8002978 <vTaskSuspendAll>
        prvLockQueue( pxQueue );
 8000da8:	f003 ffe1 	bl	8004d6e <vPortEnterCritical>
 8000dac:	6a3b      	ldr	r3, [r7, #32]
 8000dae:	f893 3044 	ldrb.w	r3, [r3, #68]	@ 0x44
 8000db2:	b25b      	sxtb	r3, r3
 8000db4:	f1b3 3fff 	cmp.w	r3, #4294967295
 8000db8:	d103      	bne.n	8000dc2 <xQueueReceive+0xa8>
 8000dba:	6a3b      	ldr	r3, [r7, #32]
 8000dbc:	2200      	movs	r2, #0
 8000dbe:	f883 2044 	strb.w	r2, [r3, #68]	@ 0x44
 8000dc2:	6a3b      	ldr	r3, [r7, #32]
 8000dc4:	f893 3045 	ldrb.w	r3, [r3, #69]	@ 0x45
 8000dc8:	b25b      	sxtb	r3, r3
 8000dca:	f1b3 3fff 	cmp.w	r3, #4294967295
 8000dce:	d103      	bne.n	8000dd8 <xQueueReceive+0xbe>
 8000dd0:	6a3b      	ldr	r3, [r7, #32]
 8000dd2:	2200      	movs	r2, #0
 8000dd4:	f883 2045 	strb.w	r2, [r3, #69]	@ 0x45
 8000dd8:	f003 ffe4 	bl	8004da4 <vPortExitCritical>

        /* Update the timeout state to see if it has expired yet. */
        if( xTaskCheckForTimeOut( &xTimeOut, &xTicksToWait ) == pdFALSE )
 8000ddc:	1d3a      	adds	r2, r7, #4
 8000dde:	f107 0314 	add.w	r3, r7, #20
 8000de2:	4611      	mov	r1, r2
 8000de4:	4618      	mov	r0, r3
 8000de6:	f002 facb 	bl	8003380 <xTaskCheckForTimeOut>
 8000dea:	4603      	mov	r3, r0
 8000dec:	2b00      	cmp	r3, #0
 8000dee:	d123      	bne.n	8000e38 <xQueueReceive+0x11e>
        {
            /* The timeout has not expired.  If the queue is still empty place
             * the task on the list of tasks waiting to receive from the queue. */
            if( prvIsQueueEmpty( pxQueue ) != pdFALSE )
 8000df0:	6a38      	ldr	r0, [r7, #32]
 8000df2:	f000 fb89 	bl	8001508 <prvIsQueueEmpty>
 8000df6:	4603      	mov	r3, r0
 8000df8:	2b00      	cmp	r3, #0
 8000dfa:	d017      	beq.n	8000e2c <xQueueReceive+0x112>
            {
                traceBLOCKING_ON_QUEUE_RECEIVE( pxQueue );
                vTaskPlaceOnEventList( &( pxQueue->xTasksWaitingToReceive ), xTicksToWait );
 8000dfc:	6a3b      	ldr	r3, [r7, #32]
 8000dfe:	3324      	adds	r3, #36	@ 0x24
 8000e00:	687a      	ldr	r2, [r7, #4]
 8000e02:	4611      	mov	r1, r2
 8000e04:	4618      	mov	r0, r3
 8000e06:	f002 f899 	bl	8002f3c <vTaskPlaceOnEventList>
                prvUnlockQueue( pxQueue );
 8000e0a:	6a38      	ldr	r0, [r7, #32]
 8000e0c:	f000 fb2a 	bl	8001464 <prvUnlockQueue>

                if( xTaskResumeAll() == pdFALSE )
 8000e10:	f001 fdc0 	bl	8002994 <xTaskResumeAll>
 8000e14:	4603      	mov	r3, r0
 8000e16:	2b00      	cmp	r3, #0
 8000e18:	d189      	bne.n	8000d2e <xQueueReceive+0x14>
                {
                    taskYIELD_WITHIN_API();
 8000e1a:	4b10      	ldr	r3, [pc, #64]	@ (8000e5c <xQueueReceive+0x142>)
 8000e1c:	f04f 5280 	mov.w	r2, #268435456	@ 0x10000000
 8000e20:	601a      	str	r2, [r3, #0]
 8000e22:	f3bf 8f4f 	dsb	sy
 8000e26:	f3bf 8f6f 	isb	sy
 8000e2a:	e780      	b.n	8000d2e <xQueueReceive+0x14>
            }
            else
            {
                /* The queue contains data again.  Loop back to try and read the
                 * data. */
                prvUnlockQueue( pxQueue );
 8000e2c:	6a38      	ldr	r0, [r7, #32]
 8000e2e:	f000 fb19 	bl	8001464 <prvUnlockQueue>
                ( void ) xTaskResumeAll();
 8000e32:	f001 fdaf 	bl	8002994 <xTaskResumeAll>
 8000e36:	e77a      	b.n	8000d2e <xQueueReceive+0x14>
        }
        else
        {
            /* Timed out.  If there is no data in the queue exit, otherwise loop
             * back and attempt to read the data. */
            prvUnlockQueue( pxQueue );
 8000e38:	6a38      	ldr	r0, [r7, #32]
 8000e3a:	f000 fb13 	bl	8001464 <prvUnlockQueue>
            ( void ) xTaskResumeAll();
 8000e3e:	f001 fda9 	bl	8002994 <xTaskResumeAll>

            if( prvIsQueueEmpty( pxQueue ) != pdFALSE )
 8000e42:	6a38      	ldr	r0, [r7, #32]
 8000e44:	f000 fb60 	bl	8001508 <prvIsQueueEmpty>
 8000e48:	4603      	mov	r3, r0
 8000e4a:	2b00      	cmp	r3, #0
 8000e4c:	f43f af6f 	beq.w	8000d2e <xQueueReceive+0x14>
            {
                traceQUEUE_RECEIVE_FAILED( pxQueue );
                traceRETURN_xQueueReceive( errQUEUE_EMPTY );

                return errQUEUE_EMPTY;
 8000e50:	2300      	movs	r3, #0
            {
                mtCOVERAGE_TEST_MARKER();
            }
        }
    }
}
 8000e52:	4618      	mov	r0, r3
 8000e54:	3728      	adds	r7, #40	@ 0x28
 8000e56:	46bd      	mov	sp, r7
 8000e58:	bd80      	pop	{r7, pc}
 8000e5a:	bf00      	nop
 8000e5c:	e000ed04 	.word	0xe000ed04

08000e60 <xQueueSemaphoreTake>:
/*-----------------------------------------------------------*/

BaseType_t xQueueSemaphoreTake( QueueHandle_t xQueue,
                                TickType_t xTicksToWait )
{
 8000e60:	b580      	push	{r7, lr}
 8000e62:	b08a      	sub	sp, #40	@ 0x28
 8000e64:	af00      	add	r7, sp, #0
 8000e66:	6078      	str	r0, [r7, #4]
 8000e68:	6039      	str	r1, [r7, #0]
    BaseType_t xEntryTimeSet = pdFALSE;
 8000e6a:	2300      	movs	r3, #0
 8000e6c:	627b      	str	r3, [r7, #36]	@ 0x24
    TimeOut_t xTimeOut;
    Queue_t * const pxQueue = xQueue;
 8000e6e:	687b      	ldr	r3, [r7, #4]
 8000e70:	61fb      	str	r3, [r7, #28]

    #if ( configUSE_MUTEXES == 1 )
        BaseType_t xInheritanceOccurred = pdFALSE;
 8000e72:	2300      	movs	r3, #0
 8000e74:	623b      	str	r3, [r7, #32]
    }
    #endif

    for( ; ; )
    {
        taskENTER_CRITICAL();
 8000e76:	f003 ff7a 	bl	8004d6e <vPortEnterCritical>
        {
            /* Semaphores are queues with an item size of 0, and where the
             * number of messages in the queue is the semaphore's count value. */
            const UBaseType_t uxSemaphoreCount = pxQueue->uxMessagesWaiting;
 8000e7a:	69fb      	ldr	r3, [r7, #28]
 8000e7c:	6b9b      	ldr	r3, [r3, #56]	@ 0x38
 8000e7e:	61bb      	str	r3, [r7, #24]

            /* Is there data in the queue now?  To be running the calling task
             * must be the highest priority task wanting to access the queue. */
            if( uxSemaphoreCount > ( UBaseType_t ) 0 )
 8000e80:	69bb      	ldr	r3, [r7, #24]
 8000e82:	2b00      	cmp	r3, #0
 8000e84:	d024      	beq.n	8000ed0 <xQueueSemaphoreTake+0x70>
            {
                traceQUEUE_RECEIVE( pxQueue );

                /* Semaphores are queues with a data size of zero and where the
                 * messages waiting is the semaphore's count.  Reduce the count. */
                pxQueue->uxMessagesWaiting = ( UBaseType_t ) ( uxSemaphoreCount - ( UBaseType_t ) 1 );
 8000e86:	69bb      	ldr	r3, [r7, #24]
 8000e88:	1e5a      	subs	r2, r3, #1
 8000e8a:	69fb      	ldr	r3, [r7, #28]
 8000e8c:	639a      	str	r2, [r3, #56]	@ 0x38

                #if ( configUSE_MUTEXES == 1 )
                {
                    if( pxQueue->uxQueueType == queueQUEUE_IS_MUTEX )
 8000e8e:	69fb      	ldr	r3, [r7, #28]
 8000e90:	681b      	ldr	r3, [r3, #0]
 8000e92:	2b00      	cmp	r3, #0
 8000e94:	d104      	bne.n	8000ea0 <xQueueSemaphoreTake+0x40>
                    {
                        /* Record the information required to implement
                         * priority inheritance should it become necessary. */
                        pxQueue->u.xSemaphore.xMutexHolder = pvTaskIncrementMutexHeldCount();
 8000e96:	f002 fd95 	bl	80039c4 <pvTaskIncrementMutexHeldCount>
 8000e9a:	4602      	mov	r2, r0
 8000e9c:	69fb      	ldr	r3, [r7, #28]
 8000e9e:	609a      	str	r2, [r3, #8]
                }
                #endif /* configUSE_MUTEXES */

                /* Check to see if other tasks are blocked waiting to give the
                 * semaphore, and if so, unblock the highest priority such task. */
                if( listLIST_IS_EMPTY( &( pxQueue->xTasksWaitingToSend ) ) == pdFALSE )
 8000ea0:	69fb      	ldr	r3, [r7, #28]
 8000ea2:	691b      	ldr	r3, [r3, #16]
 8000ea4:	2b00      	cmp	r3, #0
 8000ea6:	d00f      	beq.n	8000ec8 <xQueueSemaphoreTake+0x68>
                {
                    if( xTaskRemoveFromEventList( &( pxQueue->xTasksWaitingToSend ) ) != pdFALSE )
 8000ea8:	69fb      	ldr	r3, [r7, #28]
 8000eaa:	3310      	adds	r3, #16
 8000eac:	4618      	mov	r0, r3
 8000eae:	f002 f8cb 	bl	8003048 <xTaskRemoveFromEventList>
 8000eb2:	4603      	mov	r3, r0
 8000eb4:	2b00      	cmp	r3, #0
 8000eb6:	d007      	beq.n	8000ec8 <xQueueSemaphoreTake+0x68>
                    {
                        queueYIELD_IF_USING_PREEMPTION();
 8000eb8:	4b4c      	ldr	r3, [pc, #304]	@ (8000fec <xQueueSemaphoreTake+0x18c>)
 8000eba:	f04f 5280 	mov.w	r2, #268435456	@ 0x10000000
 8000ebe:	601a      	str	r2, [r3, #0]
 8000ec0:	f3bf 8f4f 	dsb	sy
 8000ec4:	f3bf 8f6f 	isb	sy
                else
                {
                    mtCOVERAGE_TEST_MARKER();
                }

                taskEXIT_CRITICAL();
 8000ec8:	f003 ff6c 	bl	8004da4 <vPortExitCritical>

                traceRETURN_xQueueSemaphoreTake( pdPASS );

                return pdPASS;
 8000ecc:	2301      	movs	r3, #1
 8000ece:	e089      	b.n	8000fe4 <xQueueSemaphoreTake+0x184>
            }
            else
            {
                if( xTicksToWait == ( TickType_t ) 0 )
 8000ed0:	683b      	ldr	r3, [r7, #0]
 8000ed2:	2b00      	cmp	r3, #0
 8000ed4:	d103      	bne.n	8000ede <xQueueSemaphoreTake+0x7e>
                {
                    /* The semaphore count was 0 and no block time is specified
                     * (or the block time has expired) so exit now. */
                    taskEXIT_CRITICAL();
 8000ed6:	f003 ff65 	bl	8004da4 <vPortExitCritical>

                    traceQUEUE_RECEIVE_FAILED( pxQueue );
                    traceRETURN_xQueueSemaphoreTake( errQUEUE_EMPTY );

                    return errQUEUE_EMPTY;
 8000eda:	2300      	movs	r3, #0
 8000edc:	e082      	b.n	8000fe4 <xQueueSemaphoreTake+0x184>
                }
                else if( xEntryTimeSet == pdFALSE )
 8000ede:	6a7b      	ldr	r3, [r7, #36]	@ 0x24
 8000ee0:	2b00      	cmp	r3, #0
 8000ee2:	d106      	bne.n	8000ef2 <xQueueSemaphoreTake+0x92>
                {
                    /* The semaphore count was 0 and a block time was specified
                     * so configure the timeout structure ready to block. */
                    vTaskInternalSetTimeOutState( &xTimeOut );
 8000ee4:	f107 030c 	add.w	r3, r7, #12
 8000ee8:	4618      	mov	r0, r3
 8000eea:	f002 fa33 	bl	8003354 <vTaskInternalSetTimeOutState>
                    xEntryTimeSet = pdTRUE;
 8000eee:	2301      	movs	r3, #1
 8000ef0:	627b      	str	r3, [r7, #36]	@ 0x24
                    /* Entry time was already set. */
                    mtCOVERAGE_TEST_MARKER();
                }
            }
        }
        taskEXIT_CRITICAL();
 8000ef2:	f003 ff57 	bl	8004da4 <vPortExitCritical>

        /* Interrupts and other tasks can give to and take from the semaphore
         * now the critical section has been exited. */

        vTaskSuspendAll();
 8000ef6:	f001 fd3f 	bl	8002978 <vTaskSuspendAll>
        prvLockQueue( pxQueue );
 8000efa:	f003 ff38 	bl	8004d6e <vPortEnterCritical>
 8000efe:	69fb      	ldr	r3, [r7, #28]
 8000f00:	f893 3044 	ldrb.w	r3, [r3, #68]	@ 0x44
 8000f04:	b25b      	sxtb	r3, r3
 8000f06:	f1b3 3fff 	cmp.w	r3, #4294967295
 8000f0a:	d103      	bne.n	8000f14 <xQueueSemaphoreTake+0xb4>
 8000f0c:	69fb      	ldr	r3, [r7, #28]
 8000f0e:	2200      	movs	r2, #0
 8000f10:	f883 2044 	strb.w	r2, [r3, #68]	@ 0x44
 8000f14:	69fb      	ldr	r3, [r7, #28]
 8000f16:	f893 3045 	ldrb.w	r3, [r3, #69]	@ 0x45
 8000f1a:	b25b      	sxtb	r3, r3
 8000f1c:	f1b3 3fff 	cmp.w	r3, #4294967295
 8000f20:	d103      	bne.n	8000f2a <xQueueSemaphoreTake+0xca>
 8000f22:	69fb      	ldr	r3, [r7, #28]
 8000f24:	2200      	movs	r2, #0
 8000f26:	f883 2045 	strb.w	r2, [r3, #69]	@ 0x45
 8000f2a:	f003 ff3b 	bl	8004da4 <vPortExitCritical>

        /* Update the timeout state to see if it has expired yet. */
        if( xTaskCheckForTimeOut( &xTimeOut, &xTicksToWait ) == pdFALSE )
 8000f2e:	463a      	mov	r2, r7
 8000f30:	f107 030c 	add.w	r3, r7, #12
 8000f34:	4611      	mov	r1, r2
 8000f36:	4618      	mov	r0, r3
 8000f38:	f002 fa22 	bl	8003380 <xTaskCheckForTimeOut>
 8000f3c:	4603      	mov	r3, r0
 8000f3e:	2b00      	cmp	r3, #0
 8000f40:	d132      	bne.n	8000fa8 <xQueueSemaphoreTake+0x148>
        {
            /* A block time is specified and not expired.  If the semaphore
             * count is 0 then enter the Blocked state to wait for a semaphore to
             * become available.  As semaphores are implemented with queues the
             * queue being empty is equivalent to the semaphore count being 0. */
            if( prvIsQueueEmpty( pxQueue ) != pdFALSE )
 8000f42:	69f8      	ldr	r0, [r7, #28]
 8000f44:	f000 fae0 	bl	8001508 <prvIsQueueEmpty>
 8000f48:	4603      	mov	r3, r0
 8000f4a:	2b00      	cmp	r3, #0
 8000f4c:	d026      	beq.n	8000f9c <xQueueSemaphoreTake+0x13c>
            {
                traceBLOCKING_ON_QUEUE_RECEIVE( pxQueue );

                #if ( configUSE_MUTEXES == 1 )
                {
                    if( pxQueue->uxQueueType == queueQUEUE_IS_MUTEX )
 8000f4e:	69fb      	ldr	r3, [r7, #28]
 8000f50:	681b      	ldr	r3, [r3, #0]
 8000f52:	2b00      	cmp	r3, #0
 8000f54:	d109      	bne.n	8000f6a <xQueueSemaphoreTake+0x10a>
                    {
                        taskENTER_CRITICAL();
 8000f56:	f003 ff0a 	bl	8004d6e <vPortEnterCritical>
                        {
                            xInheritanceOccurred = xTaskPriorityInherit( pxQueue->u.xSemaphore.xMutexHolder );
 8000f5a:	69fb      	ldr	r3, [r7, #28]
 8000f5c:	689b      	ldr	r3, [r3, #8]
 8000f5e:	4618      	mov	r0, r3
 8000f60:	f002 fb5c 	bl	800361c <xTaskPriorityInherit>
 8000f64:	6238      	str	r0, [r7, #32]
                        }
                        taskEXIT_CRITICAL();
 8000f66:	f003 ff1d 	bl	8004da4 <vPortExitCritical>
                        mtCOVERAGE_TEST_MARKER();
                    }
                }
                #endif /* if ( configUSE_MUTEXES == 1 ) */

                vTaskPlaceOnEventList( &( pxQueue->xTasksWaitingToReceive ), xTicksToWait );
 8000f6a:	69fb      	ldr	r3, [r7, #28]
 8000f6c:	3324      	adds	r3, #36	@ 0x24
 8000f6e:	683a      	ldr	r2, [r7, #0]
 8000f70:	4611      	mov	r1, r2
 8000f72:	4618      	mov	r0, r3
 8000f74:	f001 ffe2 	bl	8002f3c <vTaskPlaceOnEventList>
                prvUnlockQueue( pxQueue );
 8000f78:	69f8      	ldr	r0, [r7, #28]
 8000f7a:	f000 fa73 	bl	8001464 <prvUnlockQueue>

                if( xTaskResumeAll() == pdFALSE )
 8000f7e:	f001 fd09 	bl	8002994 <xTaskResumeAll>
 8000f82:	4603      	mov	r3, r0
 8000f84:	2b00      	cmp	r3, #0
 8000f86:	f47f af76 	bne.w	8000e76 <xQueueSemaphoreTake+0x16>
                {
                    taskYIELD_WITHIN_API();
 8000f8a:	4b18      	ldr	r3, [pc, #96]	@ (8000fec <xQueueSemaphoreTake+0x18c>)
 8000f8c:	f04f 5280 	mov.w	r2, #268435456	@ 0x10000000
 8000f90:	601a      	str	r2, [r3, #0]
 8000f92:	f3bf 8f4f 	dsb	sy
 8000f96:	f3bf 8f6f 	isb	sy
 8000f9a:	e76c      	b.n	8000e76 <xQueueSemaphoreTake+0x16>
            }
            else
            {
                /* There was no timeout and the semaphore count was not 0, so
                 * attempt to take the semaphore again. */
                prvUnlockQueue( pxQueue );
 8000f9c:	69f8      	ldr	r0, [r7, #28]
 8000f9e:	f000 fa61 	bl	8001464 <prvUnlockQueue>
                ( void ) xTaskResumeAll();
 8000fa2:	f001 fcf7 	bl	8002994 <xTaskResumeAll>
 8000fa6:	e766      	b.n	8000e76 <xQueueSemaphoreTake+0x16>
            }
        }
        else
        {
            /* Timed out. */
            prvUnlockQueue( pxQueue );
 8000fa8:	69f8      	ldr	r0, [r7, #28]
 8000faa:	f000 fa5b 	bl	8001464 <prvUnlockQueue>
            ( void ) xTaskResumeAll();
 8000fae:	f001 fcf1 	bl	8002994 <xTaskResumeAll>

            /* If the semaphore count is 0 exit now as the timeout has
             * expired.  Otherwise return to attempt to take the semaphore that is
             * known to be available.  As semaphores are implemented by queues the
             * queue being empty is equivalent to the semaphore count being 0. */
            if( prvIsQueueEmpty( pxQueue ) != pdFALSE )
 8000fb2:	69f8      	ldr	r0, [r7, #28]
 8000fb4:	f000 faa8 	bl	8001508 <prvIsQueueEmpty>
 8000fb8:	4603      	mov	r3, r0
 8000fba:	2b00      	cmp	r3, #0
 8000fbc:	f43f af5b 	beq.w	8000e76 <xQueueSemaphoreTake+0x16>
                #if ( configUSE_MUTEXES == 1 )
                {
                    /* xInheritanceOccurred could only have be set if
                     * pxQueue->uxQueueType == queueQUEUE_IS_MUTEX so no need to
                     * test the mutex type again to check it is actually a mutex. */
                    if( xInheritanceOccurred != pdFALSE )
 8000fc0:	6a3b      	ldr	r3, [r7, #32]
 8000fc2:	2b00      	cmp	r3, #0
 8000fc4:	d00d      	beq.n	8000fe2 <xQueueSemaphoreTake+0x182>
                    {
                        taskENTER_CRITICAL();
 8000fc6:	f003 fed2 	bl	8004d6e <vPortEnterCritical>
                            /* This task blocking on the mutex caused another
                             * task to inherit this task's priority.  Now this task
                             * has timed out the priority should be disinherited
                             * again, but only as low as the next highest priority
                             * task that is waiting for the same mutex. */
                            uxHighestWaitingPriority = prvGetHighestPriorityOfWaitToReceiveList( pxQueue );
 8000fca:	69f8      	ldr	r0, [r7, #28]
 8000fcc:	f000 f9a2 	bl	8001314 <prvGetHighestPriorityOfWaitToReceiveList>
 8000fd0:	6178      	str	r0, [r7, #20]
                             * mutex to the ready list for its new priority. Coverity thinks that
                             * it can result in out-of-bounds access which is not true because
                             * uxHighestWaitingPriority, as returned by prvGetHighestPriorityOfWaitToReceiveList,
                             * is capped at ( configMAX_PRIORITIES - 1 ). */
                            /* coverity[overrun] */
                            vTaskPriorityDisinheritAfterTimeout( pxQueue->u.xSemaphore.xMutexHolder, uxHighestWaitingPriority );
 8000fd2:	69fb      	ldr	r3, [r7, #28]
 8000fd4:	689b      	ldr	r3, [r3, #8]
 8000fd6:	6979      	ldr	r1, [r7, #20]
 8000fd8:	4618      	mov	r0, r3
 8000fda:	f002 fc43 	bl	8003864 <vTaskPriorityDisinheritAfterTimeout>
                        }
                        taskEXIT_CRITICAL();
 8000fde:	f003 fee1 	bl	8004da4 <vPortExitCritical>
                #endif /* configUSE_MUTEXES */

                traceQUEUE_RECEIVE_FAILED( pxQueue );
                traceRETURN_xQueueSemaphoreTake( errQUEUE_EMPTY );

                return errQUEUE_EMPTY;
 8000fe2:	2300      	movs	r3, #0
            {
                mtCOVERAGE_TEST_MARKER();
            }
        }
    }
}
 8000fe4:	4618      	mov	r0, r3
 8000fe6:	3728      	adds	r7, #40	@ 0x28
 8000fe8:	46bd      	mov	sp, r7
 8000fea:	bd80      	pop	{r7, pc}
 8000fec:	e000ed04 	.word	0xe000ed04

08000ff0 <xQueuePeek>:
/*-----------------------------------------------------------*/

BaseType_t xQueuePeek( QueueHandle_t xQueue,
                       void * const pvBuffer,
                       TickType_t xTicksToWait )
{
 8000ff0:	b580      	push	{r7, lr}
 8000ff2:	b08a      	sub	sp, #40	@ 0x28
 8000ff4:	af00      	add	r7, sp, #0
 8000ff6:	60f8      	str	r0, [r7, #12]
 8000ff8:	60b9      	str	r1, [r7, #8]
 8000ffa:	607a      	str	r2, [r7, #4]
    BaseType_t xEntryTimeSet = pdFALSE;
 8000ffc:	2300      	movs	r3, #0
 8000ffe:	627b      	str	r3, [r7, #36]	@ 0x24
    TimeOut_t xTimeOut;
    int8_t * pcOriginalReadPosition;
    Queue_t * const pxQueue = xQueue;
 8001000:	68fb      	ldr	r3, [r7, #12]
 8001002:	623b      	str	r3, [r7, #32]
    }
    #endif

    for( ; ; )
    {
        taskENTER_CRITICAL();
 8001004:	f003 feb3 	bl	8004d6e <vPortEnterCritical>
        {
            const UBaseType_t uxMessagesWaiting = pxQueue->uxMessagesWaiting;
 8001008:	6a3b      	ldr	r3, [r7, #32]
 800100a:	6b9b      	ldr	r3, [r3, #56]	@ 0x38
 800100c:	61fb      	str	r3, [r7, #28]

            /* Is there data in the queue now?  To be running the calling task
             * must be the highest priority task wanting to access the queue. */
            if( uxMessagesWaiting > ( UBaseType_t ) 0 )
 800100e:	69fb      	ldr	r3, [r7, #28]
 8001010:	2b00      	cmp	r3, #0
 8001012:	d021      	beq.n	8001058 <xQueuePeek+0x68>
            {
                /* Remember the read position so it can be reset after the data
                 * is read from the queue as this function is only peeking the
                 * data, not removing it. */
                pcOriginalReadPosition = pxQueue->u.xQueue.pcReadFrom;
 8001014:	6a3b      	ldr	r3, [r7, #32]
 8001016:	68db      	ldr	r3, [r3, #12]
 8001018:	61bb      	str	r3, [r7, #24]

                prvCopyDataFromQueue( pxQueue, pvBuffer );
 800101a:	68b9      	ldr	r1, [r7, #8]
 800101c:	6a38      	ldr	r0, [r7, #32]
 800101e:	f000 f9fb 	bl	8001418 <prvCopyDataFromQueue>
                traceQUEUE_PEEK( pxQueue );

                /* The data is not being removed, so reset the read pointer. */
                pxQueue->u.xQueue.pcReadFrom = pcOriginalReadPosition;
 8001022:	6a3b      	ldr	r3, [r7, #32]
 8001024:	69ba      	ldr	r2, [r7, #24]
 8001026:	60da      	str	r2, [r3, #12]

                /* The data is being left in the queue, so see if there are
                 * any other tasks waiting for the data. */
                if( listLIST_IS_EMPTY( &( pxQueue->xTasksWaitingToReceive ) ) == pdFALSE )
 8001028:	6a3b      	ldr	r3, [r7, #32]
 800102a:	6a5b      	ldr	r3, [r3, #36]	@ 0x24
 800102c:	2b00      	cmp	r3, #0
 800102e:	d00f      	beq.n	8001050 <xQueuePeek+0x60>
                {
                    if( xTaskRemoveFromEventList( &( pxQueue->xTasksWaitingToReceive ) ) != pdFALSE )
 8001030:	6a3b      	ldr	r3, [r7, #32]
 8001032:	3324      	adds	r3, #36	@ 0x24
 8001034:	4618      	mov	r0, r3
 8001036:	f002 f807 	bl	8003048 <xTaskRemoveFromEventList>
 800103a:	4603      	mov	r3, r0
 800103c:	2b00      	cmp	r3, #0
 800103e:	d007      	beq.n	8001050 <xQueuePeek+0x60>
                    {
                        /* The task waiting has a higher priority than this task. */
                        queueYIELD_IF_USING_PREEMPTION();
 8001040:	4b3c      	ldr	r3, [pc, #240]	@ (8001134 <xQueuePeek+0x144>)
 8001042:	f04f 5280 	mov.w	r2, #268435456	@ 0x10000000
 8001046:	601a      	str	r2, [r3, #0]
 8001048:	f3bf 8f4f 	dsb	sy
 800104c:	f3bf 8f6f 	isb	sy
                else
                {
                    mtCOVERAGE_TEST_MARKER();
                }

                taskEXIT_CRITICAL();
 8001050:	f003 fea8 	bl	8004da4 <vPortExitCritical>

                traceRETURN_xQueuePeek( pdPASS );

                return pdPASS;
 8001054:	2301      	movs	r3, #1
 8001056:	e069      	b.n	800112c <xQueuePeek+0x13c>
            }
            else
            {
                if( xTicksToWait == ( TickType_t ) 0 )
 8001058:	687b      	ldr	r3, [r7, #4]
 800105a:	2b00      	cmp	r3, #0
 800105c:	d103      	bne.n	8001066 <xQueuePeek+0x76>
                {
                    /* The queue was empty and no block time is specified (or
                     * the block time has expired) so leave now. */
                    taskEXIT_CRITICAL();
 800105e:	f003 fea1 	bl	8004da4 <vPortExitCritical>

                    traceQUEUE_PEEK_FAILED( pxQueue );
                    traceRETURN_xQueuePeek( errQUEUE_EMPTY );

                    return errQUEUE_EMPTY;
 8001062:	2300      	movs	r3, #0
 8001064:	e062      	b.n	800112c <xQueuePeek+0x13c>
                }
                else if( xEntryTimeSet == pdFALSE )
 8001066:	6a7b      	ldr	r3, [r7, #36]	@ 0x24
 8001068:	2b00      	cmp	r3, #0
 800106a:	d106      	bne.n	800107a <xQueuePeek+0x8a>
                {
                    /* The queue was empty and a block time was specified so
                     * configure the timeout structure ready to enter the blocked
                     * state. */
                    vTaskInternalSetTimeOutState( &xTimeOut );
 800106c:	f107 0310 	add.w	r3, r7, #16
 8001070:	4618      	mov	r0, r3
 8001072:	f002 f96f 	bl	8003354 <vTaskInternalSetTimeOutState>
                    xEntryTimeSet = pdTRUE;
 8001076:	2301      	movs	r3, #1
 8001078:	627b      	str	r3, [r7, #36]	@ 0x24
                    /* Entry time was already set. */
                    mtCOVERAGE_TEST_MARKER();
                }
            }
        }
        taskEXIT_CRITICAL();
 800107a:	f003 fe93 	bl	8004da4 <vPortExitCritical>

        /* Interrupts and other tasks can send to and receive from the queue
         * now that the critical section has been exited. */

        vTaskSuspendAll();
 800107e:	f001 fc7b 	bl	8002978 <vTaskSuspendAll>
        prvLockQueue( pxQueue );
 8001082:	f003 fe74 	bl	8004d6e <vPortEnterCritical>
 8001086:	6a3b      	ldr	r3, [r7, #32]
 8001088:	f893 3044 	ldrb.w	r3, [r3, #68]	@ 0x44
 800108c:	b25b      	sxtb	r3, r3
 800108e:	f1b3 3fff 	cmp.w	r3, #4294967295
 8001092:	d103      	bne.n	800109c <xQueuePeek+0xac>
 8001094:	6a3b      	ldr	r3, [r7, #32]
 8001096:	2200      	movs	r2, #0
 8001098:	f883 2044 	strb.w	r2, [r3, #68]	@ 0x44
 800109c:	6a3b      	ldr	r3, [r7, #32]
 800109e:	f893 3045 	ldrb.w	r3, [r3, #69]	@ 0x45
 80010a2:	b25b      	sxtb	r3, r3
 80010a4:	f1b3 3fff 	cmp.w	r3, #4294967295
 80010a8:	d103      	bne.n	80010b2 <xQueuePeek+0xc2>
 80010aa:	6a3b      	ldr	r3, [r7, #32]
 80010ac:	2200      	movs	r2, #0
 80010ae:	f883 2045 	strb.w	r2, [r3, #69]	@ 0x45
 80010b2:	f003 fe77 	bl	8004da4 <vPortExitCritical>

        /* Update the timeout state to see if it has expired yet. */
        if( xTaskCheckForTimeOut( &xTimeOut, &xTicksToWait ) == pdFALSE )
 80010b6:	1d3a      	adds	r2, r7, #4
 80010b8:	f107 0310 	add.w	r3, r7, #16
 80010bc:	4611      	mov	r1, r2
 80010be:	4618      	mov	r0, r3
 80010c0:	f002 f95e 	bl	8003380 <xTaskCheckForTimeOut>
 80010c4:	4603      	mov	r3, r0
 80010c6:	2b00      	cmp	r3, #0
 80010c8:	d123      	bne.n	8001112 <xQueuePeek+0x122>
        {
            /* Timeout has not expired yet, check to see if there is data in the
            * queue now, and if not enter the Blocked state to wait for data. */
            if( prvIsQueueEmpty( pxQueue ) != pdFALSE )
 80010ca:	6a38      	ldr	r0, [r7, #32]
 80010cc:	f000 fa1c 	bl	8001508 <prvIsQueueEmpty>
 80010d0:	4603      	mov	r3, r0
 80010d2:	2b00      	cmp	r3, #0
 80010d4:	d017      	beq.n	8001106 <xQueuePeek+0x116>
            {
                traceBLOCKING_ON_QUEUE_PEEK( pxQueue );
                vTaskPlaceOnEventList( &( pxQueue->xTasksWaitingToReceive ), xTicksToWait );
 80010d6:	6a3b      	ldr	r3, [r7, #32]
 80010d8:	3324      	adds	r3, #36	@ 0x24
 80010da:	687a      	ldr	r2, [r7, #4]
 80010dc:	4611      	mov	r1, r2
 80010de:	4618      	mov	r0, r3
 80010e0:	f001 ff2c 	bl	8002f3c <vTaskPlaceOnEventList>
                prvUnlockQueue( pxQueue );
 80010e4:	6a38      	ldr	r0, [r7, #32]
 80010e6:	f000 f9bd 	bl	8001464 <prvUnlockQueue>

                if( xTaskResumeAll() == pdFALSE )
 80010ea:	f001 fc53 	bl	8002994 <xTaskResumeAll>
 80010ee:	4603      	mov	r3, r0
 80010f0:	2b00      	cmp	r3, #0
 80010f2:	d187      	bne.n	8001004 <xQueuePeek+0x14>
                {
                    taskYIELD_WITHIN_API();
 80010f4:	4b0f      	ldr	r3, [pc, #60]	@ (8001134 <xQueuePeek+0x144>)
 80010f6:	f04f 5280 	mov.w	r2, #268435456	@ 0x10000000
 80010fa:	601a      	str	r2, [r3, #0]
 80010fc:	f3bf 8f4f 	dsb	sy
 8001100:	f3bf 8f6f 	isb	sy
 8001104:	e77e      	b.n	8001004 <xQueuePeek+0x14>
            }
            else
            {
                /* There is data in the queue now, so don't enter the blocked
                 * state, instead return to try and obtain the data. */
                prvUnlockQueue( pxQueue );
 8001106:	6a38      	ldr	r0, [r7, #32]
 8001108:	f000 f9ac 	bl	8001464 <prvUnlockQueue>
                ( void ) xTaskResumeAll();
 800110c:	f001 fc42 	bl	8002994 <xTaskResumeAll>
 8001110:	e778      	b.n	8001004 <xQueuePeek+0x14>
        }
        else
        {
            /* The timeout has expired.  If there is still no data in the queue
             * exit, otherwise go back and try to read the data again. */
            prvUnlockQueue( pxQueue );
 8001112:	6a38      	ldr	r0, [r7, #32]
 8001114:	f000 f9a6 	bl	8001464 <prvUnlockQueue>
            ( void ) xTaskResumeAll();
 8001118:	f001 fc3c 	bl	8002994 <xTaskResumeAll>

            if( prvIsQueueEmpty( pxQueue ) != pdFALSE )
 800111c:	6a38      	ldr	r0, [r7, #32]
 800111e:	f000 f9f3 	bl	8001508 <prvIsQueueEmpty>
 8001122:	4603      	mov	r3, r0
 8001124:	2b00      	cmp	r3, #0
 8001126:	f43f af6d 	beq.w	8001004 <xQueuePeek+0x14>
            {
                traceQUEUE_PEEK_FAILED( pxQueue );
                traceRETURN_xQueuePeek( errQUEUE_EMPTY );

                return errQUEUE_EMPTY;
 800112a:	2300      	movs	r3, #0
            {
                mtCOVERAGE_TEST_MARKER();
            }
        }
    }
}
 800112c:	4618      	mov	r0, r3
 800112e:	3728      	adds	r7, #40	@ 0x28
 8001130:	46bd      	mov	sp, r7
 8001132:	bd80      	pop	{r7, pc}
 8001134:	e000ed04 	.word	0xe000ed04

08001138 <xQueueReceiveFromISR>:
/*-----------------------------------------------------------*/

BaseType_t xQueueReceiveFromISR( QueueHandle_t xQueue,
                                 void * const pvBuffer,
                                 BaseType_t * const pxHigherPriorityTaskWoken )
{
 8001138:	b580      	push	{r7, lr}
 800113a:	b08e      	sub	sp, #56	@ 0x38
 800113c:	af00      	add	r7, sp, #0
 800113e:	60f8      	str	r0, [r7, #12]
 8001140:	60b9      	str	r1, [r7, #8]
 8001142:	607a      	str	r2, [r7, #4]
    BaseType_t xReturn;
    UBaseType_t uxSavedInterruptStatus;
    Queue_t * const pxQueue = xQueue;
 8001144:	68fb      	ldr	r3, [r7, #12]
 8001146:	633b      	str	r3, [r7, #48]	@ 0x30
    __asm volatile
 8001148:	f3ef 8211 	mrs	r2, BASEPRI
 800114c:	f04f 0350 	mov.w	r3, #80	@ 0x50
 8001150:	f383 8811 	msr	BASEPRI, r3
 8001154:	f3bf 8f6f 	isb	sy
 8001158:	f3bf 8f4f 	dsb	sy
 800115c:	61fa      	str	r2, [r7, #28]
 800115e:	61bb      	str	r3, [r7, #24]
    return ulOriginalBASEPRI;
 8001160:	69fb      	ldr	r3, [r7, #28]
    portASSERT_IF_INTERRUPT_PRIORITY_INVALID();

    /* MISRA Ref 4.7.1 [Return value shall be checked] */
    /* More details at: https://github.com/FreeRTOS/FreeRTOS-Kernel/blob/main/MISRA.md#dir-47 */
    /* coverity[misra_c_2012_directive_4_7_violation] */
    uxSavedInterruptStatus = ( UBaseType_t ) taskENTER_CRITICAL_FROM_ISR();
 8001162:	62fb      	str	r3, [r7, #44]	@ 0x2c
    {
        const UBaseType_t uxMessagesWaiting = pxQueue->uxMessagesWaiting;
 8001164:	6b3b      	ldr	r3, [r7, #48]	@ 0x30
 8001166:	6b9b      	ldr	r3, [r3, #56]	@ 0x38
 8001168:	62bb      	str	r3, [r7, #40]	@ 0x28

        /* Cannot block in an ISR, so check there is data available. */
        if( uxMessagesWaiting > ( UBaseType_t ) 0 )
 800116a:	6abb      	ldr	r3, [r7, #40]	@ 0x28
 800116c:	2b00      	cmp	r3, #0
 800116e:	d037      	beq.n	80011e0 <xQueueReceiveFromISR+0xa8>
        {
            const int8_t cRxLock = pxQueue->cRxLock;
 8001170:	6b3b      	ldr	r3, [r7, #48]	@ 0x30
 8001172:	f893 3044 	ldrb.w	r3, [r3, #68]	@ 0x44
 8001176:	f887 3027 	strb.w	r3, [r7, #39]	@ 0x27

            traceQUEUE_RECEIVE_FROM_ISR( pxQueue );

            prvCopyDataFromQueue( pxQueue, pvBuffer );
 800117a:	68b9      	ldr	r1, [r7, #8]
 800117c:	6b38      	ldr	r0, [r7, #48]	@ 0x30
 800117e:	f000 f94b 	bl	8001418 <prvCopyDataFromQueue>
            pxQueue->uxMessagesWaiting = ( UBaseType_t ) ( uxMessagesWaiting - ( UBaseType_t ) 1 );
 8001182:	6abb      	ldr	r3, [r7, #40]	@ 0x28
 8001184:	1e5a      	subs	r2, r3, #1
 8001186:	6b3b      	ldr	r3, [r7, #48]	@ 0x30
 8001188:	639a      	str	r2, [r3, #56]	@ 0x38

            /* If the queue is locked the event list will not be modified.
             * Instead update the lock count so the task that unlocks the queue
             * will know that an ISR has removed data while the queue was
             * locked. */
            if( cRxLock == queueUNLOCKED )
 800118a:	f997 3027 	ldrsb.w	r3, [r7, #39]	@ 0x27
 800118e:	f1b3 3fff 	cmp.w	r3, #4294967295
 8001192:	d112      	bne.n	80011ba <xQueueReceiveFromISR+0x82>
            {
                if( listLIST_IS_EMPTY( &( pxQueue->xTasksWaitingToSend ) ) == pdFALSE )
 8001194:	6b3b      	ldr	r3, [r7, #48]	@ 0x30
 8001196:	691b      	ldr	r3, [r3, #16]
 8001198:	2b00      	cmp	r3, #0
 800119a:	d01e      	beq.n	80011da <xQueueReceiveFromISR+0xa2>
                {
                    if( xTaskRemoveFromEventList( &( pxQueue->xTasksWaitingToSend ) ) != pdFALSE )
 800119c:	6b3b      	ldr	r3, [r7, #48]	@ 0x30
 800119e:	3310      	adds	r3, #16
 80011a0:	4618      	mov	r0, r3
 80011a2:	f001 ff51 	bl	8003048 <xTaskRemoveFromEventList>
 80011a6:	4603      	mov	r3, r0
 80011a8:	2b00      	cmp	r3, #0
 80011aa:	d016      	beq.n	80011da <xQueueReceiveFromISR+0xa2>
                    {
                        /* The task waiting has a higher priority than us so
                         * force a context switch. */
                        if( pxHigherPriorityTaskWoken != NULL )
 80011ac:	687b      	ldr	r3, [r7, #4]
 80011ae:	2b00      	cmp	r3, #0
 80011b0:	d013      	beq.n	80011da <xQueueReceiveFromISR+0xa2>
                        {
                            *pxHigherPriorityTaskWoken = pdTRUE;
 80011b2:	687b      	ldr	r3, [r7, #4]
 80011b4:	2201      	movs	r2, #1
 80011b6:	601a      	str	r2, [r3, #0]
 80011b8:	e00f      	b.n	80011da <xQueueReceiveFromISR+0xa2>
            }
            else
            {
                /* Increment the lock count so the task that unlocks the queue
                 * knows that data was removed while it was locked. */
                prvIncrementQueueRxLock( pxQueue, cRxLock );
 80011ba:	f001 fd05 	bl	8002bc8 <uxTaskGetNumberOfTasks>
 80011be:	6238      	str	r0, [r7, #32]
 80011c0:	f997 3027 	ldrsb.w	r3, [r7, #39]	@ 0x27
 80011c4:	6a3a      	ldr	r2, [r7, #32]
 80011c6:	429a      	cmp	r2, r3
 80011c8:	d907      	bls.n	80011da <xQueueReceiveFromISR+0xa2>
 80011ca:	f897 3027 	ldrb.w	r3, [r7, #39]	@ 0x27
 80011ce:	3301      	adds	r3, #1
 80011d0:	b2db      	uxtb	r3, r3
 80011d2:	b25a      	sxtb	r2, r3
 80011d4:	6b3b      	ldr	r3, [r7, #48]	@ 0x30
 80011d6:	f883 2044 	strb.w	r2, [r3, #68]	@ 0x44
            }

            xReturn = pdPASS;
 80011da:	2301      	movs	r3, #1
 80011dc:	637b      	str	r3, [r7, #52]	@ 0x34
 80011de:	e001      	b.n	80011e4 <xQueueReceiveFromISR+0xac>
        }
        else
        {
            xReturn = pdFAIL;
 80011e0:	2300      	movs	r3, #0
 80011e2:	637b      	str	r3, [r7, #52]	@ 0x34
 80011e4:	6afb      	ldr	r3, [r7, #44]	@ 0x2c
 80011e6:	617b      	str	r3, [r7, #20]
    __asm volatile
 80011e8:	697b      	ldr	r3, [r7, #20]
 80011ea:	f383 8811 	msr	BASEPRI, r3
}
 80011ee:	bf00      	nop
    }
    taskEXIT_CRITICAL_FROM_ISR( uxSavedInterruptStatus );

    traceRETURN_xQueueReceiveFromISR( xReturn );

    return xReturn;
 80011f0:	6b7b      	ldr	r3, [r7, #52]	@ 0x34
}
 80011f2:	4618      	mov	r0, r3
 80011f4:	3738      	adds	r7, #56	@ 0x38
 80011f6:	46bd      	mov	sp, r7
 80011f8:	bd80      	pop	{r7, pc}

080011fa <xQueuePeekFromISR>:
/*-----------------------------------------------------------*/

BaseType_t xQueuePeekFromISR( QueueHandle_t xQueue,
                              void * const pvBuffer )
{
 80011fa:	b580      	push	{r7, lr}
 80011fc:	b08a      	sub	sp, #40	@ 0x28
 80011fe:	af00      	add	r7, sp, #0
 8001200:	6078      	str	r0, [r7, #4]
 8001202:	6039      	str	r1, [r7, #0]
    BaseType_t xReturn;
    UBaseType_t uxSavedInterruptStatus;
    int8_t * pcOriginalReadPosition;
    Queue_t * const pxQueue = xQueue;
 8001204:	687b      	ldr	r3, [r7, #4]
 8001206:	623b      	str	r3, [r7, #32]
    __asm volatile
 8001208:	f3ef 8211 	mrs	r2, BASEPRI
 800120c:	f04f 0350 	mov.w	r3, #80	@ 0x50
 8001210:	f383 8811 	msr	BASEPRI, r3
 8001214:	f3bf 8f6f 	isb	sy
 8001218:	f3bf 8f4f 	dsb	sy
 800121c:	617a      	str	r2, [r7, #20]
 800121e:	613b      	str	r3, [r7, #16]
    return ulOriginalBASEPRI;
 8001220:	697b      	ldr	r3, [r7, #20]
    portASSERT_IF_INTERRUPT_PRIORITY_INVALID();

    /* MISRA Ref 4.7.1 [Return value shall be checked] */
    /* More details at: https://github.com/FreeRTOS/FreeRTOS-Kernel/blob/main/MISRA.md#dir-47 */
    /* coverity[misra_c_2012_directive_4_7_violation] */
    uxSavedInterruptStatus = ( UBaseType_t ) taskENTER_CRITICAL_FROM_ISR();
 8001222:	61fb      	str	r3, [r7, #28]
    {
        /* Cannot block in an ISR, so check there is data available. */
        if( pxQueue->uxMessagesWaiting > ( UBaseType_t ) 0 )
 8001224:	6a3b      	ldr	r3, [r7, #32]
 8001226:	6b9b      	ldr	r3, [r3, #56]	@ 0x38
 8001228:	2b00      	cmp	r3, #0
 800122a:	d00c      	beq.n	8001246 <xQueuePeekFromISR+0x4c>
        {
            traceQUEUE_PEEK_FROM_ISR( pxQueue );

            /* Remember the read position so it can be reset as nothing is
             * actually being removed from the queue. */
            pcOriginalReadPosition = pxQueue->u.xQueue.pcReadFrom;
 800122c:	6a3b      	ldr	r3, [r7, #32]
 800122e:	68db      	ldr	r3, [r3, #12]
 8001230:	61bb      	str	r3, [r7, #24]
            prvCopyDataFromQueue( pxQueue, pvBuffer );
 8001232:	6839      	ldr	r1, [r7, #0]
 8001234:	6a38      	ldr	r0, [r7, #32]
 8001236:	f000 f8ef 	bl	8001418 <prvCopyDataFromQueue>
            pxQueue->u.xQueue.pcReadFrom = pcOriginalReadPosition;
 800123a:	6a3b      	ldr	r3, [r7, #32]
 800123c:	69ba      	ldr	r2, [r7, #24]
 800123e:	60da      	str	r2, [r3, #12]

            xReturn = pdPASS;
 8001240:	2301      	movs	r3, #1
 8001242:	627b      	str	r3, [r7, #36]	@ 0x24
 8001244:	e001      	b.n	800124a <xQueuePeekFromISR+0x50>
        }
        else
        {
            xReturn = pdFAIL;
 8001246:	2300      	movs	r3, #0
 8001248:	627b      	str	r3, [r7, #36]	@ 0x24
 800124a:	69fb      	ldr	r3, [r7, #28]
 800124c:	60fb      	str	r3, [r7, #12]
    __asm volatile
 800124e:	68fb      	ldr	r3, [r7, #12]
 8001250:	f383 8811 	msr	BASEPRI, r3
}
 8001254:	bf00      	nop
    }
    taskEXIT_CRITICAL_FROM_ISR( uxSavedInterruptStatus );

    traceRETURN_xQueuePeekFromISR( xReturn );

    return xReturn;
 8001256:	6a7b      	ldr	r3, [r7, #36]	@ 0x24
}
 8001258:	4618      	mov	r0, r3
 800125a:	3728      	adds	r7, #40	@ 0x28
 800125c:	46bd      	mov	sp, r7
 800125e:	bd80      	pop	{r7, pc}

08001260 <uxQueueMessagesWaiting>:
/*-----------------------------------------------------------*/

UBaseType_t uxQueueMessagesWaiting( const QueueHandle_t xQueue )
{
 8001260:	b580      	push	{r7, lr}
 8001262:	b084      	sub	sp, #16
 8001264:	af00      	add	r7, sp, #0
 8001266:	6078      	str	r0, [r7, #4]

    traceENTER_uxQueueMessagesWaiting( xQueue );

    configASSERT( xQueue );

    portBASE_TYPE_ENTER_CRITICAL();
 8001268:	f003 fd81 	bl	8004d6e <vPortEnterCritical>
    {
        uxReturn = ( ( Queue_t * ) xQueue )->uxMessagesWaiting;
 800126c:	687b      	ldr	r3, [r7, #4]
 800126e:	6b9b      	ldr	r3, [r3, #56]	@ 0x38
 8001270:	60fb      	str	r3, [r7, #12]
    }
    portBASE_TYPE_EXIT_CRITICAL();
 8001272:	f003 fd97 	bl	8004da4 <vPortExitCritical>

    traceRETURN_uxQueueMessagesWaiting( uxReturn );

    return uxReturn;
 8001276:	68fb      	ldr	r3, [r7, #12]
}
 8001278:	4618      	mov	r0, r3
 800127a:	3710      	adds	r7, #16
 800127c:	46bd      	mov	sp, r7
 800127e:	bd80      	pop	{r7, pc}

08001280 <uxQueueSpacesAvailable>:
/*-----------------------------------------------------------*/

UBaseType_t uxQueueSpacesAvailable( const QueueHandle_t xQueue )
{
 8001280:	b580      	push	{r7, lr}
 8001282:	b084      	sub	sp, #16
 8001284:	af00      	add	r7, sp, #0
 8001286:	6078      	str	r0, [r7, #4]
    UBaseType_t uxReturn;
    Queue_t * const pxQueue = xQueue;
 8001288:	687b      	ldr	r3, [r7, #4]
 800128a:	60fb      	str	r3, [r7, #12]

    traceENTER_uxQueueSpacesAvailable( xQueue );

    configASSERT( pxQueue );

    portBASE_TYPE_ENTER_CRITICAL();
 800128c:	f003 fd6f 	bl	8004d6e <vPortEnterCritical>
    {
        uxReturn = ( UBaseType_t ) ( pxQueue->uxLength - pxQueue->uxMessagesWaiting );
 8001290:	68fb      	ldr	r3, [r7, #12]
 8001292:	6bda      	ldr	r2, [r3, #60]	@ 0x3c
 8001294:	68fb      	ldr	r3, [r7, #12]
 8001296:	6b9b      	ldr	r3, [r3, #56]	@ 0x38
 8001298:	1ad3      	subs	r3, r2, r3
 800129a:	60bb      	str	r3, [r7, #8]
    }
    portBASE_TYPE_EXIT_CRITICAL();
 800129c:	f003 fd82 	bl	8004da4 <vPortExitCritical>

    traceRETURN_uxQueueSpacesAvailable( uxReturn );

    return uxReturn;
 80012a0:	68bb      	ldr	r3, [r7, #8]
}
 80012a2:	4618      	mov	r0, r3
 80012a4:	3710      	adds	r7, #16
 80012a6:	46bd      	mov	sp, r7
 80012a8:	bd80      	pop	{r7, pc}

080012aa <uxQueueMessagesWaitingFromISR>:
/*-----------------------------------------------------------*/

UBaseType_t uxQueueMessagesWaitingFromISR( const QueueHandle_t xQueue )
{
 80012aa:	b480      	push	{r7}
 80012ac:	b085      	sub	sp, #20
 80012ae:	af00      	add	r7, sp, #0
 80012b0:	6078      	str	r0, [r7, #4]
    UBaseType_t uxReturn;
    Queue_t * const pxQueue = xQueue;
 80012b2:	687b      	ldr	r3, [r7, #4]
 80012b4:	60fb      	str	r3, [r7, #12]

    traceENTER_uxQueueMessagesWaitingFromISR( xQueue );

    configASSERT( pxQueue );
    uxReturn = pxQueue->uxMessagesWaiting;
 80012b6:	68fb      	ldr	r3, [r7, #12]
 80012b8:	6b9b      	ldr	r3, [r3, #56]	@ 0x38
 80012ba:	60bb      	str	r3, [r7, #8]

    traceRETURN_uxQueueMessagesWaitingFromISR( uxReturn );

    return uxReturn;
 80012bc:	68bb      	ldr	r3, [r7, #8]
}
 80012be:	4618      	mov	r0, r3
 80012c0:	3714      	adds	r7, #20
 80012c2:	46bd      	mov	sp, r7
 80012c4:	f85d 7b04 	ldr.w	r7, [sp], #4
 80012c8:	4770      	bx	lr

080012ca <vQueueDelete>:
/*-----------------------------------------------------------*/

void vQueueDelete( QueueHandle_t xQueue )
{
 80012ca:	b580      	push	{r7, lr}
 80012cc:	b084      	sub	sp, #16
 80012ce:	af00      	add	r7, sp, #0
 80012d0:	6078      	str	r0, [r7, #4]
    Queue_t * const pxQueue = xQueue;
 80012d2:	687b      	ldr	r3, [r7, #4]
 80012d4:	60fb      	str	r3, [r7, #12]

    #if ( ( configSUPPORT_DYNAMIC_ALLOCATION == 1 ) && ( configSUPPORT_STATIC_ALLOCATION == 0 ) )
    {
        /* The queue can only have been allocated dynamically - free it
         * again. */
        vPortFree( pxQueue );
 80012d6:	68f8      	ldr	r0, [r7, #12]
 80012d8:	f003 feb0 	bl	800503c <vPortFree>
        ( void ) pxQueue;
    }
    #endif /* configSUPPORT_DYNAMIC_ALLOCATION */

    traceRETURN_vQueueDelete();
}
 80012dc:	bf00      	nop
 80012de:	3710      	adds	r7, #16
 80012e0:	46bd      	mov	sp, r7
 80012e2:	bd80      	pop	{r7, pc}

080012e4 <uxQueueGetQueueItemSize>:

#endif /* configUSE_TRACE_FACILITY */
/*-----------------------------------------------------------*/

UBaseType_t uxQueueGetQueueItemSize( QueueHandle_t xQueue ) /* PRIVILEGED_FUNCTION */
{
 80012e4:	b480      	push	{r7}
 80012e6:	b083      	sub	sp, #12
 80012e8:	af00      	add	r7, sp, #0
 80012ea:	6078      	str	r0, [r7, #4]
    traceENTER_uxQueueGetQueueItemSize( xQueue );

    traceRETURN_uxQueueGetQueueItemSize( ( ( Queue_t * ) xQueue )->uxItemSize );

    return ( ( Queue_t * ) xQueue )->uxItemSize;
 80012ec:	687b      	ldr	r3, [r7, #4]
 80012ee:	6c1b      	ldr	r3, [r3, #64]	@ 0x40
}
 80012f0:	4618      	mov	r0, r3
 80012f2:	370c      	adds	r7, #12
 80012f4:	46bd      	mov	sp, r7
 80012f6:	f85d 7b04 	ldr.w	r7, [sp], #4
 80012fa:	4770      	bx	lr

080012fc <uxQueueGetQueueLength>:
/*-----------------------------------------------------------*/

UBaseType_t uxQueueGetQueueLength( QueueHandle_t xQueue ) /* PRIVILEGED_FUNCTION */
{
 80012fc:	b480      	push	{r7}
 80012fe:	b083      	sub	sp, #12
 8001300:	af00      	add	r7, sp, #0
 8001302:	6078      	str	r0, [r7, #4]
    traceENTER_uxQueueGetQueueLength( xQueue );

    traceRETURN_uxQueueGetQueueLength( ( ( Queue_t * ) xQueue )->uxLength );

    return ( ( Queue_t * ) xQueue )->uxLength;
 8001304:	687b      	ldr	r3, [r7, #4]
 8001306:	6bdb      	ldr	r3, [r3, #60]	@ 0x3c
}
 8001308:	4618      	mov	r0, r3
 800130a:	370c      	adds	r7, #12
 800130c:	46bd      	mov	sp, r7
 800130e:	f85d 7b04 	ldr.w	r7, [sp], #4
 8001312:	4770      	bx	lr

08001314 <prvGetHighestPriorityOfWaitToReceiveList>:
/*-----------------------------------------------------------*/

#if ( configUSE_MUTEXES == 1 )

    static UBaseType_t prvGetHighestPriorityOfWaitToReceiveList( const Queue_t * const pxQueue )
    {
 8001314:	b480      	push	{r7}
 8001316:	b085      	sub	sp, #20
 8001318:	af00      	add	r7, sp, #0
 800131a:	6078      	str	r0, [r7, #4]
         * priority, but the waiting task times out, then the holder should
         * disinherit the priority - but only down to the highest priority of any
         * other tasks that are waiting for the same mutex.  For this purpose,
         * return the priority of the highest priority task that is waiting for the
         * mutex. */
        if( listCURRENT_LIST_LENGTH( &( pxQueue->xTasksWaitingToReceive ) ) > 0U )
 800131c:	687b      	ldr	r3, [r7, #4]
 800131e:	6a5b      	ldr	r3, [r3, #36]	@ 0x24
 8001320:	2b00      	cmp	r3, #0
 8001322:	d006      	beq.n	8001332 <prvGetHighestPriorityOfWaitToReceiveList+0x1e>
        {
            uxHighestPriorityOfWaitingTasks = ( UBaseType_t ) ( ( UBaseType_t ) configMAX_PRIORITIES - ( UBaseType_t ) listGET_ITEM_VALUE_OF_HEAD_ENTRY( &( pxQueue->xTasksWaitingToReceive ) ) );
 8001324:	687b      	ldr	r3, [r7, #4]
 8001326:	6b1b      	ldr	r3, [r3, #48]	@ 0x30
 8001328:	681b      	ldr	r3, [r3, #0]
 800132a:	f1c3 0305 	rsb	r3, r3, #5
 800132e:	60fb      	str	r3, [r7, #12]
 8001330:	e001      	b.n	8001336 <prvGetHighestPriorityOfWaitToReceiveList+0x22>
        }
        else
        {
            uxHighestPriorityOfWaitingTasks = tskIDLE_PRIORITY;
 8001332:	2300      	movs	r3, #0
 8001334:	60fb      	str	r3, [r7, #12]
        }

        return uxHighestPriorityOfWaitingTasks;
 8001336:	68fb      	ldr	r3, [r7, #12]
    }
 8001338:	4618      	mov	r0, r3
 800133a:	3714      	adds	r7, #20
 800133c:	46bd      	mov	sp, r7
 800133e:	f85d 7b04 	ldr.w	r7, [sp], #4
 8001342:	4770      	bx	lr

08001344 <prvCopyDataToQueue>:
/*-----------------------------------------------------------*/

static BaseType_t prvCopyDataToQueue( Queue_t * const pxQueue,
                                      const void * pvItemToQueue,
                                      const BaseType_t xPosition )
{
 8001344:	b580      	push	{r7, lr}
 8001346:	b086      	sub	sp, #24
 8001348:	af00      	add	r7, sp, #0
 800134a:	60f8      	str	r0, [r7, #12]
 800134c:	60b9      	str	r1, [r7, #8]
 800134e:	607a      	str	r2, [r7, #4]
    BaseType_t xReturn = pdFALSE;
 8001350:	2300      	movs	r3, #0
 8001352:	617b      	str	r3, [r7, #20]
    UBaseType_t uxMessagesWaiting;

    /* This function is called from a critical section. */

    uxMessagesWaiting = pxQueue->uxMessagesWaiting;
 8001354:	68fb      	ldr	r3, [r7, #12]
 8001356:	6b9b      	ldr	r3, [r3, #56]	@ 0x38
 8001358:	613b      	str	r3, [r7, #16]

    if( pxQueue->uxItemSize == ( UBaseType_t ) 0 )
 800135a:	68fb      	ldr	r3, [r7, #12]
 800135c:	6c1b      	ldr	r3, [r3, #64]	@ 0x40
 800135e:	2b00      	cmp	r3, #0
 8001360:	d10d      	bne.n	800137e <prvCopyDataToQueue+0x3a>
    {
        #if ( configUSE_MUTEXES == 1 )
        {
            if( pxQueue->uxQueueType == queueQUEUE_IS_MUTEX )
 8001362:	68fb      	ldr	r3, [r7, #12]
 8001364:	681b      	ldr	r3, [r3, #0]
 8001366:	2b00      	cmp	r3, #0
 8001368:	d14d      	bne.n	8001406 <prvCopyDataToQueue+0xc2>
            {
                /* The mutex is no longer being held. */
                xReturn = xTaskPriorityDisinherit( pxQueue->u.xSemaphore.xMutexHolder );
 800136a:	68fb      	ldr	r3, [r7, #12]
 800136c:	689b      	ldr	r3, [r3, #8]
 800136e:	4618      	mov	r0, r3
 8001370:	f002 f9f4 	bl	800375c <xTaskPriorityDisinherit>
 8001374:	6178      	str	r0, [r7, #20]
                pxQueue->u.xSemaphore.xMutexHolder = NULL;
 8001376:	68fb      	ldr	r3, [r7, #12]
 8001378:	2200      	movs	r2, #0
 800137a:	609a      	str	r2, [r3, #8]
 800137c:	e043      	b.n	8001406 <prvCopyDataToQueue+0xc2>
                mtCOVERAGE_TEST_MARKER();
            }
        }
        #endif /* configUSE_MUTEXES */
    }
    else if( xPosition == queueSEND_TO_BACK )
 800137e:	687b      	ldr	r3, [r7, #4]
 8001380:	2b00      	cmp	r3, #0
 8001382:	d119      	bne.n	80013b8 <prvCopyDataToQueue+0x74>
    {
        ( void ) memcpy( ( void * ) pxQueue->pcWriteTo, pvItemToQueue, ( size_t ) pxQueue->uxItemSize );
 8001384:	68fb      	ldr	r3, [r7, #12]
 8001386:	6858      	ldr	r0, [r3, #4]
 8001388:	68fb      	ldr	r3, [r7, #12]
 800138a:	6c1b      	ldr	r3, [r3, #64]	@ 0x40
 800138c:	461a      	mov	r2, r3
 800138e:	68b9      	ldr	r1, [r7, #8]
 8001390:	f7fe fed4 	bl	800013c <memcpy>
        pxQueue->pcWriteTo += pxQueue->uxItemSize;
 8001394:	68fb      	ldr	r3, [r7, #12]
 8001396:	685a      	ldr	r2, [r3, #4]
 8001398:	68fb      	ldr	r3, [r7, #12]
 800139a:	6c1b      	ldr	r3, [r3, #64]	@ 0x40
 800139c:	441a      	add	r2, r3
 800139e:	68fb      	ldr	r3, [r7, #12]
 80013a0:	605a      	str	r2, [r3, #4]

        if( pxQueue->pcWriteTo >= pxQueue->u.xQueue.pcTail )
 80013a2:	68fb      	ldr	r3, [r7, #12]
 80013a4:	685a      	ldr	r2, [r3, #4]
 80013a6:	68fb      	ldr	r3, [r7, #12]
 80013a8:	689b      	ldr	r3, [r3, #8]
 80013aa:	429a      	cmp	r2, r3
 80013ac:	d32b      	bcc.n	8001406 <prvCopyDataToQueue+0xc2>
        {
            pxQueue->pcWriteTo = pxQueue->pcHead;
 80013ae:	68fb      	ldr	r3, [r7, #12]
 80013b0:	681a      	ldr	r2, [r3, #0]
 80013b2:	68fb      	ldr	r3, [r7, #12]
 80013b4:	605a      	str	r2, [r3, #4]
 80013b6:	e026      	b.n	8001406 <prvCopyDataToQueue+0xc2>
            mtCOVERAGE_TEST_MARKER();
        }
    }
    else
    {
        ( void ) memcpy( ( void * ) pxQueue->u.xQueue.pcReadFrom, pvItemToQueue, ( size_t ) pxQueue->uxItemSize );
 80013b8:	68fb      	ldr	r3, [r7, #12]
 80013ba:	68d8      	ldr	r0, [r3, #12]
 80013bc:	68fb      	ldr	r3, [r7, #12]
 80013be:	6c1b      	ldr	r3, [r3, #64]	@ 0x40
 80013c0:	461a      	mov	r2, r3
 80013c2:	68b9      	ldr	r1, [r7, #8]
 80013c4:	f7fe feba 	bl	800013c <memcpy>
        pxQueue->u.xQueue.pcReadFrom -= pxQueue->uxItemSize;
 80013c8:	68fb      	ldr	r3, [r7, #12]
 80013ca:	68da      	ldr	r2, [r3, #12]
 80013cc:	68fb      	ldr	r3, [r7, #12]
 80013ce:	6c1b      	ldr	r3, [r3, #64]	@ 0x40
 80013d0:	425b      	negs	r3, r3
 80013d2:	441a      	add	r2, r3
 80013d4:	68fb      	ldr	r3, [r7, #12]
 80013d6:	60da      	str	r2, [r3, #12]

        if( pxQueue->u.xQueue.pcReadFrom < pxQueue->pcHead )
 80013d8:	68fb      	ldr	r3, [r7, #12]
 80013da:	68da      	ldr	r2, [r3, #12]
 80013dc:	68fb      	ldr	r3, [r7, #12]
 80013de:	681b      	ldr	r3, [r3, #0]
 80013e0:	429a      	cmp	r2, r3
 80013e2:	d207      	bcs.n	80013f4 <prvCopyDataToQueue+0xb0>
        {
            pxQueue->u.xQueue.pcReadFrom = ( pxQueue->u.xQueue.pcTail - pxQueue->uxItemSize );
 80013e4:	68fb      	ldr	r3, [r7, #12]
 80013e6:	689a      	ldr	r2, [r3, #8]
 80013e8:	68fb      	ldr	r3, [r7, #12]
 80013ea:	6c1b      	ldr	r3, [r3, #64]	@ 0x40
 80013ec:	425b      	negs	r3, r3
 80013ee:	441a      	add	r2, r3
 80013f0:	68fb      	ldr	r3, [r7, #12]
 80013f2:	60da      	str	r2, [r3, #12]
        else
        {
            mtCOVERAGE_TEST_MARKER();
        }

        if( xPosition == queueOVERWRITE )
 80013f4:	687b      	ldr	r3, [r7, #4]
 80013f6:	2b02      	cmp	r3, #2
 80013f8:	d105      	bne.n	8001406 <prvCopyDataToQueue+0xc2>
        {
            if( uxMessagesWaiting > ( UBaseType_t ) 0 )
 80013fa:	693b      	ldr	r3, [r7, #16]
 80013fc:	2b00      	cmp	r3, #0
 80013fe:	d002      	beq.n	8001406 <prvCopyDataToQueue+0xc2>
            {
                /* An item is not being added but overwritten, so subtract
                 * one from the recorded number of items in the queue so when
                 * one is added again below the number of recorded items remains
                 * correct. */
                --uxMessagesWaiting;
 8001400:	693b      	ldr	r3, [r7, #16]
 8001402:	3b01      	subs	r3, #1
 8001404:	613b      	str	r3, [r7, #16]
        {
            mtCOVERAGE_TEST_MARKER();
        }
    }

    pxQueue->uxMessagesWaiting = ( UBaseType_t ) ( uxMessagesWaiting + ( UBaseType_t ) 1 );
 8001406:	693b      	ldr	r3, [r7, #16]
 8001408:	1c5a      	adds	r2, r3, #1
 800140a:	68fb      	ldr	r3, [r7, #12]
 800140c:	639a      	str	r2, [r3, #56]	@ 0x38

    return xReturn;
 800140e:	697b      	ldr	r3, [r7, #20]
}
 8001410:	4618      	mov	r0, r3
 8001412:	3718      	adds	r7, #24
 8001414:	46bd      	mov	sp, r7
 8001416:	bd80      	pop	{r7, pc}

08001418 <prvCopyDataFromQueue>:
/*-----------------------------------------------------------*/

static void prvCopyDataFromQueue( Queue_t * const pxQueue,
                                  void * const pvBuffer )
{
 8001418:	b580      	push	{r7, lr}
 800141a:	b082      	sub	sp, #8
 800141c:	af00      	add	r7, sp, #0
 800141e:	6078      	str	r0, [r7, #4]
 8001420:	6039      	str	r1, [r7, #0]
    if( pxQueue->uxItemSize != ( UBaseType_t ) 0 )
 8001422:	687b      	ldr	r3, [r7, #4]
 8001424:	6c1b      	ldr	r3, [r3, #64]	@ 0x40
 8001426:	2b00      	cmp	r3, #0
 8001428:	d018      	beq.n	800145c <prvCopyDataFromQueue+0x44>
    {
        pxQueue->u.xQueue.pcReadFrom += pxQueue->uxItemSize;
 800142a:	687b      	ldr	r3, [r7, #4]
 800142c:	68da      	ldr	r2, [r3, #12]
 800142e:	687b      	ldr	r3, [r7, #4]
 8001430:	6c1b      	ldr	r3, [r3, #64]	@ 0x40
 8001432:	441a      	add	r2, r3
 8001434:	687b      	ldr	r3, [r7, #4]
 8001436:	60da      	str	r2, [r3, #12]

        if( pxQueue->u.xQueue.pcReadFrom >= pxQueue->u.xQueue.pcTail )
 8001438:	687b      	ldr	r3, [r7, #4]
 800143a:	68da      	ldr	r2, [r3, #12]
 800143c:	687b      	ldr	r3, [r7, #4]
 800143e:	689b      	ldr	r3, [r3, #8]
 8001440:	429a      	cmp	r2, r3
 8001442:	d303      	bcc.n	800144c <prvCopyDataFromQueue+0x34>
        {
            pxQueue->u.xQueue.pcReadFrom = pxQueue->pcHead;
 8001444:	687b      	ldr	r3, [r7, #4]
 8001446:	681a      	ldr	r2, [r3, #0]
 8001448:	687b      	ldr	r3, [r7, #4]
 800144a:	60da      	str	r2, [r3, #12]
        else
        {
            mtCOVERAGE_TEST_MARKER();
        }

        ( void ) memcpy( ( void * ) pvBuffer, ( void * ) pxQueue->u.xQueue.pcReadFrom, ( size_t ) pxQueue->uxItemSize );
 800144c:	687b      	ldr	r3, [r7, #4]
 800144e:	68d9      	ldr	r1, [r3, #12]
 8001450:	687b      	ldr	r3, [r7, #4]
 8001452:	6c1b      	ldr	r3, [r3, #64]	@ 0x40
 8001454:	461a      	mov	r2, r3
 8001456:	6838      	ldr	r0, [r7, #0]
 8001458:	f7fe fe70 	bl	800013c <memcpy>
    }
}
 800145c:	bf00      	nop
 800145e:	3708      	adds	r7, #8
 8001460:	46bd      	mov	sp, r7
 8001462:	bd80      	pop	{r7, pc}

08001464 <prvUnlockQueue>:
/*-----------------------------------------------------------*/

static void prvUnlockQueue( Queue_t * const pxQueue )
{
 8001464:	b580      	push	{r7, lr}
 8001466:	b084      	sub	sp, #16
 8001468:	af00      	add	r7, sp, #0
 800146a:	6078      	str	r0, [r7, #4]

    /* The lock counts contains the number of extra data items placed or
     * removed from the queue while the queue was locked.  When a queue is
     * locked items can be added or removed, but the event lists cannot be
     * updated. */
    taskENTER_CRITICAL();
 800146c:	f003 fc7f 	bl	8004d6e <vPortEnterCritical>
    {
        int8_t cTxLock = pxQueue->cTxLock;
 8001470:	687b      	ldr	r3, [r7, #4]
 8001472:	f893 3045 	ldrb.w	r3, [r3, #69]	@ 0x45
 8001476:	73fb      	strb	r3, [r7, #15]

        /* See if data was added to the queue while it was locked. */
        while( cTxLock > queueLOCKED_UNMODIFIED )
 8001478:	e011      	b.n	800149e <prvUnlockQueue+0x3a>
            }
            #else /* configUSE_QUEUE_SETS */
            {
                /* Tasks that are removed from the event list will get added to
                 * the pending ready list as the scheduler is still suspended. */
                if( listLIST_IS_EMPTY( &( pxQueue->xTasksWaitingToReceive ) ) == pdFALSE )
 800147a:	687b      	ldr	r3, [r7, #4]
 800147c:	6a5b      	ldr	r3, [r3, #36]	@ 0x24
 800147e:	2b00      	cmp	r3, #0
 8001480:	d012      	beq.n	80014a8 <prvUnlockQueue+0x44>
                {
                    if( xTaskRemoveFromEventList( &( pxQueue->xTasksWaitingToReceive ) ) != pdFALSE )
 8001482:	687b      	ldr	r3, [r7, #4]
 8001484:	3324      	adds	r3, #36	@ 0x24
 8001486:	4618      	mov	r0, r3
 8001488:	f001 fdde 	bl	8003048 <xTaskRemoveFromEventList>
 800148c:	4603      	mov	r3, r0
 800148e:	2b00      	cmp	r3, #0
 8001490:	d001      	beq.n	8001496 <prvUnlockQueue+0x32>
                    {
                        /* The task waiting has a higher priority so record that
                         * a context switch is required. */
                        vTaskMissedYield();
 8001492:	f001 ffbf 	bl	8003414 <vTaskMissedYield>
                    break;
                }
            }
            #endif /* configUSE_QUEUE_SETS */

            --cTxLock;
 8001496:	7bfb      	ldrb	r3, [r7, #15]
 8001498:	3b01      	subs	r3, #1
 800149a:	b2db      	uxtb	r3, r3
 800149c:	73fb      	strb	r3, [r7, #15]
        while( cTxLock > queueLOCKED_UNMODIFIED )
 800149e:	f997 300f 	ldrsb.w	r3, [r7, #15]
 80014a2:	2b00      	cmp	r3, #0
 80014a4:	dce9      	bgt.n	800147a <prvUnlockQueue+0x16>
 80014a6:	e000      	b.n	80014aa <prvUnlockQueue+0x46>
                    break;
 80014a8:	bf00      	nop
        }

        pxQueue->cTxLock = queueUNLOCKED;
 80014aa:	687b      	ldr	r3, [r7, #4]
 80014ac:	22ff      	movs	r2, #255	@ 0xff
 80014ae:	f883 2045 	strb.w	r2, [r3, #69]	@ 0x45
    }
    taskEXIT_CRITICAL();
 80014b2:	f003 fc77 	bl	8004da4 <vPortExitCritical>

    /* Do the same for the Rx lock. */
    taskENTER_CRITICAL();
 80014b6:	f003 fc5a 	bl	8004d6e <vPortEnterCritical>
    {
        int8_t cRxLock = pxQueue->cRxLock;
 80014ba:	687b      	ldr	r3, [r7, #4]
 80014bc:	f893 3044 	ldrb.w	r3, [r3, #68]	@ 0x44
 80014c0:	73bb      	strb	r3, [r7, #14]

        while( cRxLock > queueLOCKED_UNMODIFIED )
 80014c2:	e011      	b.n	80014e8 <prvUnlockQueue+0x84>
        {
            if( listLIST_IS_EMPTY( &( pxQueue->xTasksWaitingToSend ) ) == pdFALSE )
 80014c4:	687b      	ldr	r3, [r7, #4]
 80014c6:	691b      	ldr	r3, [r3, #16]
 80014c8:	2b00      	cmp	r3, #0
 80014ca:	d012      	beq.n	80014f2 <prvUnlockQueue+0x8e>
            {
                if( xTaskRemoveFromEventList( &( pxQueue->xTasksWaitingToSend ) ) != pdFALSE )
 80014cc:	687b      	ldr	r3, [r7, #4]
 80014ce:	3310      	adds	r3, #16
 80014d0:	4618      	mov	r0, r3
 80014d2:	f001 fdb9 	bl	8003048 <xTaskRemoveFromEventList>
 80014d6:	4603      	mov	r3, r0
 80014d8:	2b00      	cmp	r3, #0
 80014da:	d001      	beq.n	80014e0 <prvUnlockQueue+0x7c>
                {
                    vTaskMissedYield();
 80014dc:	f001 ff9a 	bl	8003414 <vTaskMissedYield>
                else
                {
                    mtCOVERAGE_TEST_MARKER();
                }

                --cRxLock;
 80014e0:	7bbb      	ldrb	r3, [r7, #14]
 80014e2:	3b01      	subs	r3, #1
 80014e4:	b2db      	uxtb	r3, r3
 80014e6:	73bb      	strb	r3, [r7, #14]
        while( cRxLock > queueLOCKED_UNMODIFIED )
 80014e8:	f997 300e 	ldrsb.w	r3, [r7, #14]
 80014ec:	2b00      	cmp	r3, #0
 80014ee:	dce9      	bgt.n	80014c4 <prvUnlockQueue+0x60>
 80014f0:	e000      	b.n	80014f4 <prvUnlockQueue+0x90>
            }
            else
            {
                break;
 80014f2:	bf00      	nop
            }
        }

        pxQueue->cRxLock = queueUNLOCKED;
 80014f4:	687b      	ldr	r3, [r7, #4]
 80014f6:	22ff      	movs	r2, #255	@ 0xff
 80014f8:	f883 2044 	strb.w	r2, [r3, #68]	@ 0x44
    }
    taskEXIT_CRITICAL();
 80014fc:	f003 fc52 	bl	8004da4 <vPortExitCritical>
}
 8001500:	bf00      	nop
 8001502:	3710      	adds	r7, #16
 8001504:	46bd      	mov	sp, r7
 8001506:	bd80      	pop	{r7, pc}

08001508 <prvIsQueueEmpty>:
/*-----------------------------------------------------------*/

static BaseType_t prvIsQueueEmpty( const Queue_t * pxQueue )
{
 8001508:	b580      	push	{r7, lr}
 800150a:	b084      	sub	sp, #16
 800150c:	af00      	add	r7, sp, #0
 800150e:	6078      	str	r0, [r7, #4]
    BaseType_t xReturn;

    taskENTER_CRITICAL();
 8001510:	f003 fc2d 	bl	8004d6e <vPortEnterCritical>
    {
        if( pxQueue->uxMessagesWaiting == ( UBaseType_t ) 0 )
 8001514:	687b      	ldr	r3, [r7, #4]
 8001516:	6b9b      	ldr	r3, [r3, #56]	@ 0x38
 8001518:	2b00      	cmp	r3, #0
 800151a:	d102      	bne.n	8001522 <prvIsQueueEmpty+0x1a>
        {
            xReturn = pdTRUE;
 800151c:	2301      	movs	r3, #1
 800151e:	60fb      	str	r3, [r7, #12]
 8001520:	e001      	b.n	8001526 <prvIsQueueEmpty+0x1e>
        }
        else
        {
            xReturn = pdFALSE;
 8001522:	2300      	movs	r3, #0
 8001524:	60fb      	str	r3, [r7, #12]
        }
    }
    taskEXIT_CRITICAL();
 8001526:	f003 fc3d 	bl	8004da4 <vPortExitCritical>

    return xReturn;
 800152a:	68fb      	ldr	r3, [r7, #12]
}
 800152c:	4618      	mov	r0, r3
 800152e:	3710      	adds	r7, #16
 8001530:	46bd      	mov	sp, r7
 8001532:	bd80      	pop	{r7, pc}

08001534 <xQueueIsQueueEmptyFromISR>:
/*-----------------------------------------------------------*/

BaseType_t xQueueIsQueueEmptyFromISR( const QueueHandle_t xQueue )
{
 8001534:	b480      	push	{r7}
 8001536:	b085      	sub	sp, #20
 8001538:	af00      	add	r7, sp, #0
 800153a:	6078      	str	r0, [r7, #4]
    BaseType_t xReturn;
    Queue_t * const pxQueue = xQueue;
 800153c:	687b      	ldr	r3, [r7, #4]
 800153e:	60bb      	str	r3, [r7, #8]

    traceENTER_xQueueIsQueueEmptyFromISR( xQueue );

    configASSERT( pxQueue );

    if( pxQueue->uxMessagesWaiting == ( UBaseType_t ) 0 )
 8001540:	68bb      	ldr	r3, [r7, #8]
 8001542:	6b9b      	ldr	r3, [r3, #56]	@ 0x38
 8001544:	2b00      	cmp	r3, #0
 8001546:	d102      	bne.n	800154e <xQueueIsQueueEmptyFromISR+0x1a>
    {
        xReturn = pdTRUE;
 8001548:	2301      	movs	r3, #1
 800154a:	60fb      	str	r3, [r7, #12]
 800154c:	e001      	b.n	8001552 <xQueueIsQueueEmptyFromISR+0x1e>
    }
    else
    {
        xReturn = pdFALSE;
 800154e:	2300      	movs	r3, #0
 8001550:	60fb      	str	r3, [r7, #12]
    }

    traceRETURN_xQueueIsQueueEmptyFromISR( xReturn );

    return xReturn;
 8001552:	68fb      	ldr	r3, [r7, #12]
}
 8001554:	4618      	mov	r0, r3
 8001556:	3714      	adds	r7, #20
 8001558:	46bd      	mov	sp, r7
 800155a:	f85d 7b04 	ldr.w	r7, [sp], #4
 800155e:	4770      	bx	lr

08001560 <prvIsQueueFull>:
/*-----------------------------------------------------------*/

static BaseType_t prvIsQueueFull( const Queue_t * pxQueue )
{
 8001560:	b580      	push	{r7, lr}
 8001562:	b084      	sub	sp, #16
 8001564:	af00      	add	r7, sp, #0
 8001566:	6078      	str	r0, [r7, #4]
    BaseType_t xReturn;

    taskENTER_CRITICAL();
 8001568:	f003 fc01 	bl	8004d6e <vPortEnterCritical>
    {
        if( pxQueue->uxMessagesWaiting == pxQueue->uxLength )
 800156c:	687b      	ldr	r3, [r7, #4]
 800156e:	6b9a      	ldr	r2, [r3, #56]	@ 0x38
 8001570:	687b      	ldr	r3, [r7, #4]
 8001572:	6bdb      	ldr	r3, [r3, #60]	@ 0x3c
 8001574:	429a      	cmp	r2, r3
 8001576:	d102      	bne.n	800157e <prvIsQueueFull+0x1e>
        {
            xReturn = pdTRUE;
 8001578:	2301      	movs	r3, #1
 800157a:	60fb      	str	r3, [r7, #12]
 800157c:	e001      	b.n	8001582 <prvIsQueueFull+0x22>
        }
        else
        {
            xReturn = pdFALSE;
 800157e:	2300      	movs	r3, #0
 8001580:	60fb      	str	r3, [r7, #12]
        }
    }
    taskEXIT_CRITICAL();
 8001582:	f003 fc0f 	bl	8004da4 <vPortExitCritical>

    return xReturn;
 8001586:	68fb      	ldr	r3, [r7, #12]
}
 8001588:	4618      	mov	r0, r3
 800158a:	3710      	adds	r7, #16
 800158c:	46bd      	mov	sp, r7
 800158e:	bd80      	pop	{r7, pc}

08001590 <xQueueIsQueueFullFromISR>:
/*-----------------------------------------------------------*/

BaseType_t xQueueIsQueueFullFromISR( const QueueHandle_t xQueue )
{
 8001590:	b480      	push	{r7}
 8001592:	b085      	sub	sp, #20
 8001594:	af00      	add	r7, sp, #0
 8001596:	6078      	str	r0, [r7, #4]
    BaseType_t xReturn;
    Queue_t * const pxQueue = xQueue;
 8001598:	687b      	ldr	r3, [r7, #4]
 800159a:	60bb      	str	r3, [r7, #8]

    traceENTER_xQueueIsQueueFullFromISR( xQueue );

    configASSERT( pxQueue );

    if( pxQueue->uxMessagesWaiting == pxQueue->uxLength )
 800159c:	68bb      	ldr	r3, [r7, #8]
 800159e:	6b9a      	ldr	r2, [r3, #56]	@ 0x38
 80015a0:	68bb      	ldr	r3, [r7, #8]
 80015a2:	6bdb      	ldr	r3, [r3, #60]	@ 0x3c
 80015a4:	429a      	cmp	r2, r3
 80015a6:	d102      	bne.n	80015ae <xQueueIsQueueFullFromISR+0x1e>
    {
        xReturn = pdTRUE;
 80015a8:	2301      	movs	r3, #1
 80015aa:	60fb      	str	r3, [r7, #12]
 80015ac:	e001      	b.n	80015b2 <xQueueIsQueueFullFromISR+0x22>
    }
    else
    {
        xReturn = pdFALSE;
 80015ae:	2300      	movs	r3, #0
 80015b0:	60fb      	str	r3, [r7, #12]
    }

    traceRETURN_xQueueIsQueueFullFromISR( xReturn );

    return xReturn;
 80015b2:	68fb      	ldr	r3, [r7, #12]
}
 80015b4:	4618      	mov	r0, r3
 80015b6:	3714      	adds	r7, #20
 80015b8:	46bd      	mov	sp, r7
 80015ba:	f85d 7b04 	ldr.w	r7, [sp], #4
 80015be:	4770      	bx	lr

080015c0 <vQueueWaitForMessageRestricted>:
#if ( configUSE_TIMERS == 1 )

    void vQueueWaitForMessageRestricted( QueueHandle_t xQueue,
                                         TickType_t xTicksToWait,
                                         const BaseType_t xWaitIndefinitely )
    {
 80015c0:	b580      	push	{r7, lr}
 80015c2:	b086      	sub	sp, #24
 80015c4:	af00      	add	r7, sp, #0
 80015c6:	60f8      	str	r0, [r7, #12]
 80015c8:	60b9      	str	r1, [r7, #8]
 80015ca:	607a      	str	r2, [r7, #4]
        Queue_t * const pxQueue = xQueue;
 80015cc:	68fb      	ldr	r3, [r7, #12]
 80015ce:	617b      	str	r3, [r7, #20]
         *  will not actually cause the task to block, just place it on a blocked
         *  list.  It will not block until the scheduler is unlocked - at which
         *  time a yield will be performed.  If an item is added to the queue while
         *  the queue is locked, and the calling task blocks on the queue, then the
         *  calling task will be immediately unblocked when the queue is unlocked. */
        prvLockQueue( pxQueue );
 80015d0:	f003 fbcd 	bl	8004d6e <vPortEnterCritical>
 80015d4:	697b      	ldr	r3, [r7, #20]
 80015d6:	f893 3044 	ldrb.w	r3, [r3, #68]	@ 0x44
 80015da:	b25b      	sxtb	r3, r3
 80015dc:	f1b3 3fff 	cmp.w	r3, #4294967295
 80015e0:	d103      	bne.n	80015ea <vQueueWaitForMessageRestricted+0x2a>
 80015e2:	697b      	ldr	r3, [r7, #20]
 80015e4:	2200      	movs	r2, #0
 80015e6:	f883 2044 	strb.w	r2, [r3, #68]	@ 0x44
 80015ea:	697b      	ldr	r3, [r7, #20]
 80015ec:	f893 3045 	ldrb.w	r3, [r3, #69]	@ 0x45
 80015f0:	b25b      	sxtb	r3, r3
 80015f2:	f1b3 3fff 	cmp.w	r3, #4294967295
 80015f6:	d103      	bne.n	8001600 <vQueueWaitForMessageRestricted+0x40>
 80015f8:	697b      	ldr	r3, [r7, #20]
 80015fa:	2200      	movs	r2, #0
 80015fc:	f883 2045 	strb.w	r2, [r3, #69]	@ 0x45
 8001600:	f003 fbd0 	bl	8004da4 <vPortExitCritical>

        if( pxQueue->uxMessagesWaiting == ( UBaseType_t ) 0U )
 8001604:	697b      	ldr	r3, [r7, #20]
 8001606:	6b9b      	ldr	r3, [r3, #56]	@ 0x38
 8001608:	2b00      	cmp	r3, #0
 800160a:	d106      	bne.n	800161a <vQueueWaitForMessageRestricted+0x5a>
        {
            /* There is nothing in the queue, block for the specified period. */
            vTaskPlaceOnEventListRestricted( &( pxQueue->xTasksWaitingToReceive ), xTicksToWait, xWaitIndefinitely );
 800160c:	697b      	ldr	r3, [r7, #20]
 800160e:	3324      	adds	r3, #36	@ 0x24
 8001610:	687a      	ldr	r2, [r7, #4]
 8001612:	68b9      	ldr	r1, [r7, #8]
 8001614:	4618      	mov	r0, r3
 8001616:	f001 fcdf 	bl	8002fd8 <vTaskPlaceOnEventListRestricted>
        else
        {
            mtCOVERAGE_TEST_MARKER();
        }

        prvUnlockQueue( pxQueue );
 800161a:	6978      	ldr	r0, [r7, #20]
 800161c:	f7ff ff22 	bl	8001464 <prvUnlockQueue>

        traceRETURN_vQueueWaitForMessageRestricted();
    }
 8001620:	bf00      	nop
 8001622:	3718      	adds	r7, #24
 8001624:	46bd      	mov	sp, r7
 8001626:	bd80      	pop	{r7, pc}

08001628 <xStreamBufferGenericCreate>:
    StreamBufferHandle_t xStreamBufferGenericCreate( size_t xBufferSizeBytes,
                                                     size_t xTriggerLevelBytes,
                                                     BaseType_t xStreamBufferType,
                                                     StreamBufferCallbackFunction_t pxSendCompletedCallback,
                                                     StreamBufferCallbackFunction_t pxReceiveCompletedCallback )
    {
 8001628:	b580      	push	{r7, lr}
 800162a:	b08a      	sub	sp, #40	@ 0x28
 800162c:	af04      	add	r7, sp, #16
 800162e:	60f8      	str	r0, [r7, #12]
 8001630:	60b9      	str	r1, [r7, #8]
 8001632:	607a      	str	r2, [r7, #4]
 8001634:	603b      	str	r3, [r7, #0]

        /* In case the stream buffer is going to be used as a message buffer
         * (that is, it will hold discrete messages with a little meta data that
         * says how big the next message is) check the buffer will be large enough
         * to hold at least one message. */
        if( xStreamBufferType == sbTYPE_MESSAGE_BUFFER )
 8001636:	687b      	ldr	r3, [r7, #4]
 8001638:	2b01      	cmp	r3, #1
 800163a:	d102      	bne.n	8001642 <xStreamBufferGenericCreate+0x1a>
        {
            /* Is a message buffer but not statically allocated. */
            ucFlags = sbFLAGS_IS_MESSAGE_BUFFER;
 800163c:	2301      	movs	r3, #1
 800163e:	74fb      	strb	r3, [r7, #19]
 8001640:	e007      	b.n	8001652 <xStreamBufferGenericCreate+0x2a>
            configASSERT( xBufferSizeBytes > sbBYTES_TO_STORE_MESSAGE_LENGTH );
        }
        else if( xStreamBufferType == sbTYPE_STREAM_BATCHING_BUFFER )
 8001642:	687b      	ldr	r3, [r7, #4]
 8001644:	2b02      	cmp	r3, #2
 8001646:	d102      	bne.n	800164e <xStreamBufferGenericCreate+0x26>
        {
            /* Is a batching buffer but not statically allocated. */
            ucFlags = sbFLAGS_IS_BATCHING_BUFFER;
 8001648:	2304      	movs	r3, #4
 800164a:	74fb      	strb	r3, [r7, #19]
 800164c:	e001      	b.n	8001652 <xStreamBufferGenericCreate+0x2a>
            configASSERT( xBufferSizeBytes > 0 );
        }
        else
        {
            /* Not a message buffer and not statically allocated. */
            ucFlags = 0;
 800164e:	2300      	movs	r3, #0
 8001650:	74fb      	strb	r3, [r7, #19]

        configASSERT( xTriggerLevelBytes <= xBufferSizeBytes );

        /* A trigger level of 0 would cause a waiting task to unblock even when
         * the buffer was empty. */
        if( xTriggerLevelBytes == ( size_t ) 0 )
 8001652:	68bb      	ldr	r3, [r7, #8]
 8001654:	2b00      	cmp	r3, #0
 8001656:	d101      	bne.n	800165c <xStreamBufferGenericCreate+0x34>
        {
            xTriggerLevelBytes = ( size_t ) 1;
 8001658:	2301      	movs	r3, #1
 800165a:	60bb      	str	r3, [r7, #8]
         * and the buffer follows immediately after.  The requested size is
         * incremented so the free space is returned as the user would expect -
         * this is a quirk of the implementation that means otherwise the free
         * space would be reported as one byte smaller than would be logically
         * expected. */
        if( xBufferSizeBytes < ( xBufferSizeBytes + 1U + sizeof( StreamBuffer_t ) ) )
 800165c:	68fb      	ldr	r3, [r7, #12]
 800165e:	f113 0f26 	cmn.w	r3, #38	@ 0x26
 8001662:	d809      	bhi.n	8001678 <xStreamBufferGenericCreate+0x50>
        {
            xBufferSizeBytes++;
 8001664:	68fb      	ldr	r3, [r7, #12]
 8001666:	3301      	adds	r3, #1
 8001668:	60fb      	str	r3, [r7, #12]
            pvAllocatedMemory = pvPortMalloc( xBufferSizeBytes + sizeof( StreamBuffer_t ) );
 800166a:	68fb      	ldr	r3, [r7, #12]
 800166c:	3324      	adds	r3, #36	@ 0x24
 800166e:	4618      	mov	r0, r3
 8001670:	f003 fc2c 	bl	8004ecc <pvPortMalloc>
 8001674:	6178      	str	r0, [r7, #20]
 8001676:	e001      	b.n	800167c <xStreamBufferGenericCreate+0x54>
        }
        else
        {
            pvAllocatedMemory = NULL;
 8001678:	2300      	movs	r3, #0
 800167a:	617b      	str	r3, [r7, #20]
        }

        if( pvAllocatedMemory != NULL )
 800167c:	697b      	ldr	r3, [r7, #20]
 800167e:	2b00      	cmp	r3, #0
 8001680:	d00d      	beq.n	800169e <xStreamBufferGenericCreate+0x76>
        {
            /* MISRA Ref 11.5.1 [Malloc memory assignment] */
            /* More details at: https://github.com/FreeRTOS/FreeRTOS-Kernel/blob/main/MISRA.md#rule-115 */
            /* coverity[misra_c_2012_rule_11_5_violation] */
            prvInitialiseNewStreamBuffer( ( StreamBuffer_t * ) pvAllocatedMemory,                         /* Structure at the start of the allocated memory. */
 8001682:	697b      	ldr	r3, [r7, #20]
 8001684:	f103 0124 	add.w	r1, r3, #36	@ 0x24
 8001688:	6a3b      	ldr	r3, [r7, #32]
 800168a:	9302      	str	r3, [sp, #8]
 800168c:	683b      	ldr	r3, [r7, #0]
 800168e:	9301      	str	r3, [sp, #4]
 8001690:	7cfb      	ldrb	r3, [r7, #19]
 8001692:	9300      	str	r3, [sp, #0]
 8001694:	68bb      	ldr	r3, [r7, #8]
 8001696:	68fa      	ldr	r2, [r7, #12]
 8001698:	6978      	ldr	r0, [r7, #20]
 800169a:	f000 fc8a 	bl	8001fb2 <prvInitialiseNewStreamBuffer>
        traceRETURN_xStreamBufferGenericCreate( pvAllocatedMemory );

        /* MISRA Ref 11.5.1 [Malloc memory assignment] */
        /* More details at: https://github.com/FreeRTOS/FreeRTOS-Kernel/blob/main/MISRA.md#rule-115 */
        /* coverity[misra_c_2012_rule_11_5_violation] */
        return ( StreamBufferHandle_t ) pvAllocatedMemory;
 800169e:	697b      	ldr	r3, [r7, #20]
    }
 80016a0:	4618      	mov	r0, r3
 80016a2:	3718      	adds	r7, #24
 80016a4:	46bd      	mov	sp, r7
 80016a6:	bd80      	pop	{r7, pc}

080016a8 <vStreamBufferDelete>:
    }
    #endif /* configSUPPORT_STATIC_ALLOCATION */
/*-----------------------------------------------------------*/

void vStreamBufferDelete( StreamBufferHandle_t xStreamBuffer )
{
 80016a8:	b580      	push	{r7, lr}
 80016aa:	b084      	sub	sp, #16
 80016ac:	af00      	add	r7, sp, #0
 80016ae:	6078      	str	r0, [r7, #4]
    StreamBuffer_t * pxStreamBuffer = xStreamBuffer;
 80016b0:	687b      	ldr	r3, [r7, #4]
 80016b2:	60fb      	str	r3, [r7, #12]

    configASSERT( pxStreamBuffer );

    traceSTREAM_BUFFER_DELETE( xStreamBuffer );

    if( ( pxStreamBuffer->ucFlags & sbFLAGS_IS_STATICALLY_ALLOCATED ) == ( uint8_t ) pdFALSE )
 80016b4:	68fb      	ldr	r3, [r7, #12]
 80016b6:	7f1b      	ldrb	r3, [r3, #28]
 80016b8:	f003 0302 	and.w	r3, r3, #2
 80016bc:	2b00      	cmp	r3, #0
 80016be:	d103      	bne.n	80016c8 <vStreamBufferDelete+0x20>
    {
        #if ( configSUPPORT_DYNAMIC_ALLOCATION == 1 )
        {
            /* Both the structure and the buffer were allocated using a single call
            * to pvPortMalloc(), hence only one call to vPortFree() is required. */
            vPortFree( ( void * ) pxStreamBuffer );
 80016c0:	68f8      	ldr	r0, [r7, #12]
 80016c2:	f003 fcbb 	bl	800503c <vPortFree>
         * freed - just scrub the structure so future use will assert. */
        ( void ) memset( pxStreamBuffer, 0x00, sizeof( StreamBuffer_t ) );
    }

    traceRETURN_vStreamBufferDelete();
}
 80016c6:	e004      	b.n	80016d2 <vStreamBufferDelete+0x2a>
        ( void ) memset( pxStreamBuffer, 0x00, sizeof( StreamBuffer_t ) );
 80016c8:	2224      	movs	r2, #36	@ 0x24
 80016ca:	2100      	movs	r1, #0
 80016cc:	68f8      	ldr	r0, [r7, #12]
 80016ce:	f7fe fd54 	bl	800017a <memset>
}
 80016d2:	bf00      	nop
 80016d4:	3710      	adds	r7, #16
 80016d6:	46bd      	mov	sp, r7
 80016d8:	bd80      	pop	{r7, pc}

080016da <xStreamBufferReset>:
/*-----------------------------------------------------------*/

BaseType_t xStreamBufferReset( StreamBufferHandle_t xStreamBuffer )
{
 80016da:	b590      	push	{r4, r7, lr}
 80016dc:	b08b      	sub	sp, #44	@ 0x2c
 80016de:	af04      	add	r7, sp, #16
 80016e0:	6078      	str	r0, [r7, #4]
    StreamBuffer_t * const pxStreamBuffer = xStreamBuffer;
 80016e2:	687b      	ldr	r3, [r7, #4]
 80016e4:	613b      	str	r3, [r7, #16]
    BaseType_t xReturn = pdFAIL;
 80016e6:	2300      	movs	r3, #0
 80016e8:	617b      	str	r3, [r7, #20]
    StreamBufferCallbackFunction_t pxSendCallback = NULL, pxReceiveCallback = NULL;
 80016ea:	2300      	movs	r3, #0
 80016ec:	60fb      	str	r3, [r7, #12]
 80016ee:	2300      	movs	r3, #0
 80016f0:	60bb      	str	r3, [r7, #8]
        uxStreamBufferNumber = pxStreamBuffer->uxStreamBufferNumber;
    }
    #endif

    /* Can only reset a message buffer if there are no tasks blocked on it. */
    taskENTER_CRITICAL();
 80016f2:	f003 fb3c 	bl	8004d6e <vPortEnterCritical>
    {
        if( ( pxStreamBuffer->xTaskWaitingToReceive == NULL ) && ( pxStreamBuffer->xTaskWaitingToSend == NULL ) )
 80016f6:	693b      	ldr	r3, [r7, #16]
 80016f8:	691b      	ldr	r3, [r3, #16]
 80016fa:	2b00      	cmp	r3, #0
 80016fc:	d117      	bne.n	800172e <xStreamBufferReset+0x54>
 80016fe:	693b      	ldr	r3, [r7, #16]
 8001700:	695b      	ldr	r3, [r3, #20]
 8001702:	2b00      	cmp	r3, #0
 8001704:	d113      	bne.n	800172e <xStreamBufferReset+0x54>
                pxSendCallback = pxStreamBuffer->pxSendCompletedCallback;
                pxReceiveCallback = pxStreamBuffer->pxReceiveCompletedCallback;
            }
            #endif

            prvInitialiseNewStreamBuffer( pxStreamBuffer,
 8001706:	693b      	ldr	r3, [r7, #16]
 8001708:	6999      	ldr	r1, [r3, #24]
 800170a:	693b      	ldr	r3, [r7, #16]
 800170c:	6898      	ldr	r0, [r3, #8]
 800170e:	693b      	ldr	r3, [r7, #16]
 8001710:	68dc      	ldr	r4, [r3, #12]
 8001712:	693b      	ldr	r3, [r7, #16]
 8001714:	7f1b      	ldrb	r3, [r3, #28]
 8001716:	68ba      	ldr	r2, [r7, #8]
 8001718:	9202      	str	r2, [sp, #8]
 800171a:	68fa      	ldr	r2, [r7, #12]
 800171c:	9201      	str	r2, [sp, #4]
 800171e:	9300      	str	r3, [sp, #0]
 8001720:	4623      	mov	r3, r4
 8001722:	4602      	mov	r2, r0
 8001724:	6938      	ldr	r0, [r7, #16]
 8001726:	f000 fc44 	bl	8001fb2 <prvInitialiseNewStreamBuffer>
            }
            #endif

            traceSTREAM_BUFFER_RESET( xStreamBuffer );

            xReturn = pdPASS;
 800172a:	2301      	movs	r3, #1
 800172c:	617b      	str	r3, [r7, #20]
        }
    }
    taskEXIT_CRITICAL();
 800172e:	f003 fb39 	bl	8004da4 <vPortExitCritical>

    traceRETURN_xStreamBufferReset( xReturn );

    return xReturn;
 8001732:	697b      	ldr	r3, [r7, #20]
}
 8001734:	4618      	mov	r0, r3
 8001736:	371c      	adds	r7, #28
 8001738:	46bd      	mov	sp, r7
 800173a:	bd90      	pop	{r4, r7, pc}

0800173c <xStreamBufferResetFromISR>:
/*-----------------------------------------------------------*/

BaseType_t xStreamBufferResetFromISR( StreamBufferHandle_t xStreamBuffer )
{
 800173c:	b590      	push	{r4, r7, lr}
 800173e:	b08f      	sub	sp, #60	@ 0x3c
 8001740:	af04      	add	r7, sp, #16
 8001742:	6078      	str	r0, [r7, #4]
    StreamBuffer_t * const pxStreamBuffer = xStreamBuffer;
 8001744:	687b      	ldr	r3, [r7, #4]
 8001746:	623b      	str	r3, [r7, #32]
    BaseType_t xReturn = pdFAIL;
 8001748:	2300      	movs	r3, #0
 800174a:	627b      	str	r3, [r7, #36]	@ 0x24
    StreamBufferCallbackFunction_t pxSendCallback = NULL, pxReceiveCallback = NULL;
 800174c:	2300      	movs	r3, #0
 800174e:	61fb      	str	r3, [r7, #28]
 8001750:	2300      	movs	r3, #0
 8001752:	61bb      	str	r3, [r7, #24]
    __asm volatile
 8001754:	f3ef 8211 	mrs	r2, BASEPRI
 8001758:	f04f 0350 	mov.w	r3, #80	@ 0x50
 800175c:	f383 8811 	msr	BASEPRI, r3
 8001760:	f3bf 8f6f 	isb	sy
 8001764:	f3bf 8f4f 	dsb	sy
 8001768:	613a      	str	r2, [r7, #16]
 800176a:	60fb      	str	r3, [r7, #12]
    return ulOriginalBASEPRI;
 800176c:	693b      	ldr	r3, [r7, #16]

    /* Can only reset a message buffer if there are no tasks blocked on it. */
    /* MISRA Ref 4.7.1 [Return value shall be checked] */
    /* More details at: https://github.com/FreeRTOS/FreeRTOS-Kernel/blob/main/MISRA.md#dir-47 */
    /* coverity[misra_c_2012_directive_4_7_violation] */
    uxSavedInterruptStatus = taskENTER_CRITICAL_FROM_ISR();
 800176e:	617b      	str	r3, [r7, #20]
    {
        if( ( pxStreamBuffer->xTaskWaitingToReceive == NULL ) && ( pxStreamBuffer->xTaskWaitingToSend == NULL ) )
 8001770:	6a3b      	ldr	r3, [r7, #32]
 8001772:	691b      	ldr	r3, [r3, #16]
 8001774:	2b00      	cmp	r3, #0
 8001776:	d117      	bne.n	80017a8 <xStreamBufferResetFromISR+0x6c>
 8001778:	6a3b      	ldr	r3, [r7, #32]
 800177a:	695b      	ldr	r3, [r3, #20]
 800177c:	2b00      	cmp	r3, #0
 800177e:	d113      	bne.n	80017a8 <xStreamBufferResetFromISR+0x6c>
                pxSendCallback = pxStreamBuffer->pxSendCompletedCallback;
                pxReceiveCallback = pxStreamBuffer->pxReceiveCompletedCallback;
            }
            #endif

            prvInitialiseNewStreamBuffer( pxStreamBuffer,
 8001780:	6a3b      	ldr	r3, [r7, #32]
 8001782:	6999      	ldr	r1, [r3, #24]
 8001784:	6a3b      	ldr	r3, [r7, #32]
 8001786:	6898      	ldr	r0, [r3, #8]
 8001788:	6a3b      	ldr	r3, [r7, #32]
 800178a:	68dc      	ldr	r4, [r3, #12]
 800178c:	6a3b      	ldr	r3, [r7, #32]
 800178e:	7f1b      	ldrb	r3, [r3, #28]
 8001790:	69ba      	ldr	r2, [r7, #24]
 8001792:	9202      	str	r2, [sp, #8]
 8001794:	69fa      	ldr	r2, [r7, #28]
 8001796:	9201      	str	r2, [sp, #4]
 8001798:	9300      	str	r3, [sp, #0]
 800179a:	4623      	mov	r3, r4
 800179c:	4602      	mov	r2, r0
 800179e:	6a38      	ldr	r0, [r7, #32]
 80017a0:	f000 fc07 	bl	8001fb2 <prvInitialiseNewStreamBuffer>
            }
            #endif

            traceSTREAM_BUFFER_RESET_FROM_ISR( xStreamBuffer );

            xReturn = pdPASS;
 80017a4:	2301      	movs	r3, #1
 80017a6:	627b      	str	r3, [r7, #36]	@ 0x24
 80017a8:	697b      	ldr	r3, [r7, #20]
 80017aa:	60bb      	str	r3, [r7, #8]
    __asm volatile
 80017ac:	68bb      	ldr	r3, [r7, #8]
 80017ae:	f383 8811 	msr	BASEPRI, r3
}
 80017b2:	bf00      	nop
    }
    taskEXIT_CRITICAL_FROM_ISR( uxSavedInterruptStatus );

    traceRETURN_xStreamBufferResetFromISR( xReturn );

    return xReturn;
 80017b4:	6a7b      	ldr	r3, [r7, #36]	@ 0x24
}
 80017b6:	4618      	mov	r0, r3
 80017b8:	372c      	adds	r7, #44	@ 0x2c
 80017ba:	46bd      	mov	sp, r7
 80017bc:	bd90      	pop	{r4, r7, pc}

080017be <xStreamBufferSetTriggerLevel>:
/*-----------------------------------------------------------*/

BaseType_t xStreamBufferSetTriggerLevel( StreamBufferHandle_t xStreamBuffer,
                                         size_t xTriggerLevel )
{
 80017be:	b480      	push	{r7}
 80017c0:	b085      	sub	sp, #20
 80017c2:	af00      	add	r7, sp, #0
 80017c4:	6078      	str	r0, [r7, #4]
 80017c6:	6039      	str	r1, [r7, #0]
    StreamBuffer_t * const pxStreamBuffer = xStreamBuffer;
 80017c8:	687b      	ldr	r3, [r7, #4]
 80017ca:	60bb      	str	r3, [r7, #8]
    traceENTER_xStreamBufferSetTriggerLevel( xStreamBuffer, xTriggerLevel );

    configASSERT( pxStreamBuffer );

    /* It is not valid for the trigger level to be 0. */
    if( xTriggerLevel == ( size_t ) 0 )
 80017cc:	683b      	ldr	r3, [r7, #0]
 80017ce:	2b00      	cmp	r3, #0
 80017d0:	d101      	bne.n	80017d6 <xStreamBufferSetTriggerLevel+0x18>
    {
        xTriggerLevel = ( size_t ) 1;
 80017d2:	2301      	movs	r3, #1
 80017d4:	603b      	str	r3, [r7, #0]
    }

    /* The trigger level is the number of bytes that must be in the stream
     * buffer before a task that is waiting for data is unblocked. */
    if( xTriggerLevel < pxStreamBuffer->xLength )
 80017d6:	68bb      	ldr	r3, [r7, #8]
 80017d8:	689b      	ldr	r3, [r3, #8]
 80017da:	683a      	ldr	r2, [r7, #0]
 80017dc:	429a      	cmp	r2, r3
 80017de:	d205      	bcs.n	80017ec <xStreamBufferSetTriggerLevel+0x2e>
    {
        pxStreamBuffer->xTriggerLevelBytes = xTriggerLevel;
 80017e0:	68bb      	ldr	r3, [r7, #8]
 80017e2:	683a      	ldr	r2, [r7, #0]
 80017e4:	60da      	str	r2, [r3, #12]
        xReturn = pdPASS;
 80017e6:	2301      	movs	r3, #1
 80017e8:	60fb      	str	r3, [r7, #12]
 80017ea:	e001      	b.n	80017f0 <xStreamBufferSetTriggerLevel+0x32>
    }
    else
    {
        xReturn = pdFALSE;
 80017ec:	2300      	movs	r3, #0
 80017ee:	60fb      	str	r3, [r7, #12]
    }

    traceRETURN_xStreamBufferSetTriggerLevel( xReturn );

    return xReturn;
 80017f0:	68fb      	ldr	r3, [r7, #12]
}
 80017f2:	4618      	mov	r0, r3
 80017f4:	3714      	adds	r7, #20
 80017f6:	46bd      	mov	sp, r7
 80017f8:	f85d 7b04 	ldr.w	r7, [sp], #4
 80017fc:	4770      	bx	lr

080017fe <xStreamBufferSpacesAvailable>:
/*-----------------------------------------------------------*/

size_t xStreamBufferSpacesAvailable( StreamBufferHandle_t xStreamBuffer )
{
 80017fe:	b480      	push	{r7}
 8001800:	b087      	sub	sp, #28
 8001802:	af00      	add	r7, sp, #0
 8001804:	6078      	str	r0, [r7, #4]
    const StreamBuffer_t * const pxStreamBuffer = xStreamBuffer;
 8001806:	687b      	ldr	r3, [r7, #4]
 8001808:	613b      	str	r3, [r7, #16]
    /* The code below reads xTail and then xHead.  This is safe if the stream
     * buffer is updated once between the two reads - but not if the stream buffer
     * is updated more than once between the two reads - hence the loop. */
    do
    {
        xOriginalTail = pxStreamBuffer->xTail;
 800180a:	693b      	ldr	r3, [r7, #16]
 800180c:	681b      	ldr	r3, [r3, #0]
 800180e:	60fb      	str	r3, [r7, #12]
        xSpace = pxStreamBuffer->xLength + pxStreamBuffer->xTail;
 8001810:	693b      	ldr	r3, [r7, #16]
 8001812:	689a      	ldr	r2, [r3, #8]
 8001814:	693b      	ldr	r3, [r7, #16]
 8001816:	681b      	ldr	r3, [r3, #0]
 8001818:	4413      	add	r3, r2
 800181a:	617b      	str	r3, [r7, #20]
        xSpace -= pxStreamBuffer->xHead;
 800181c:	693b      	ldr	r3, [r7, #16]
 800181e:	685b      	ldr	r3, [r3, #4]
 8001820:	697a      	ldr	r2, [r7, #20]
 8001822:	1ad3      	subs	r3, r2, r3
 8001824:	617b      	str	r3, [r7, #20]
    } while( xOriginalTail != pxStreamBuffer->xTail );
 8001826:	693b      	ldr	r3, [r7, #16]
 8001828:	681b      	ldr	r3, [r3, #0]
 800182a:	68fa      	ldr	r2, [r7, #12]
 800182c:	429a      	cmp	r2, r3
 800182e:	d1ec      	bne.n	800180a <xStreamBufferSpacesAvailable+0xc>

    xSpace -= ( size_t ) 1;
 8001830:	697b      	ldr	r3, [r7, #20]
 8001832:	3b01      	subs	r3, #1
 8001834:	617b      	str	r3, [r7, #20]

    if( xSpace >= pxStreamBuffer->xLength )
 8001836:	693b      	ldr	r3, [r7, #16]
 8001838:	689b      	ldr	r3, [r3, #8]
 800183a:	697a      	ldr	r2, [r7, #20]
 800183c:	429a      	cmp	r2, r3
 800183e:	d304      	bcc.n	800184a <xStreamBufferSpacesAvailable+0x4c>
    {
        xSpace -= pxStreamBuffer->xLength;
 8001840:	693b      	ldr	r3, [r7, #16]
 8001842:	689b      	ldr	r3, [r3, #8]
 8001844:	697a      	ldr	r2, [r7, #20]
 8001846:	1ad3      	subs	r3, r2, r3
 8001848:	617b      	str	r3, [r7, #20]
        mtCOVERAGE_TEST_MARKER();
    }

    traceRETURN_xStreamBufferSpacesAvailable( xSpace );

    return xSpace;
 800184a:	697b      	ldr	r3, [r7, #20]
}
 800184c:	4618      	mov	r0, r3
 800184e:	371c      	adds	r7, #28
 8001850:	46bd      	mov	sp, r7
 8001852:	f85d 7b04 	ldr.w	r7, [sp], #4
 8001856:	4770      	bx	lr

08001858 <xStreamBufferBytesAvailable>:
/*-----------------------------------------------------------*/

size_t xStreamBufferBytesAvailable( StreamBufferHandle_t xStreamBuffer )
{
 8001858:	b580      	push	{r7, lr}
 800185a:	b084      	sub	sp, #16
 800185c:	af00      	add	r7, sp, #0
 800185e:	6078      	str	r0, [r7, #4]
    const StreamBuffer_t * const pxStreamBuffer = xStreamBuffer;
 8001860:	687b      	ldr	r3, [r7, #4]
 8001862:	60fb      	str	r3, [r7, #12]

    traceENTER_xStreamBufferBytesAvailable( xStreamBuffer );

    configASSERT( pxStreamBuffer );

    xReturn = prvBytesInBuffer( pxStreamBuffer );
 8001864:	68f8      	ldr	r0, [r7, #12]
 8001866:	f000 fb84 	bl	8001f72 <prvBytesInBuffer>
 800186a:	60b8      	str	r0, [r7, #8]

    traceRETURN_xStreamBufferBytesAvailable( xReturn );

    return xReturn;
 800186c:	68bb      	ldr	r3, [r7, #8]
}
 800186e:	4618      	mov	r0, r3
 8001870:	3710      	adds	r7, #16
 8001872:	46bd      	mov	sp, r7
 8001874:	bd80      	pop	{r7, pc}

08001876 <xStreamBufferSend>:

size_t xStreamBufferSend( StreamBufferHandle_t xStreamBuffer,
                          const void * pvTxData,
                          size_t xDataLengthBytes,
                          TickType_t xTicksToWait )
{
 8001876:	b580      	push	{r7, lr}
 8001878:	b08e      	sub	sp, #56	@ 0x38
 800187a:	af02      	add	r7, sp, #8
 800187c:	60f8      	str	r0, [r7, #12]
 800187e:	60b9      	str	r1, [r7, #8]
 8001880:	607a      	str	r2, [r7, #4]
 8001882:	603b      	str	r3, [r7, #0]
    StreamBuffer_t * const pxStreamBuffer = xStreamBuffer;
 8001884:	68fb      	ldr	r3, [r7, #12]
 8001886:	627b      	str	r3, [r7, #36]	@ 0x24
    size_t xReturn, xSpace = 0;
 8001888:	2300      	movs	r3, #0
 800188a:	62fb      	str	r3, [r7, #44]	@ 0x2c
    size_t xRequiredSpace = xDataLengthBytes;
 800188c:	687b      	ldr	r3, [r7, #4]
 800188e:	62bb      	str	r3, [r7, #40]	@ 0x28
    TimeOut_t xTimeOut;
    size_t xMaxReportedSpace = 0;
 8001890:	2300      	movs	r3, #0
 8001892:	623b      	str	r3, [r7, #32]
    configASSERT( pvTxData );
    configASSERT( pxStreamBuffer );

    /* The maximum amount of space a stream buffer will ever report is its length
     * minus 1. */
    xMaxReportedSpace = pxStreamBuffer->xLength - ( size_t ) 1;
 8001894:	6a7b      	ldr	r3, [r7, #36]	@ 0x24
 8001896:	689b      	ldr	r3, [r3, #8]
 8001898:	3b01      	subs	r3, #1
 800189a:	623b      	str	r3, [r7, #32]

    /* This send function is used to write to both message buffers and stream
     * buffers.  If this is a message buffer then the space needed must be
     * increased by the amount of bytes needed to store the length of the
     * message. */
    if( ( pxStreamBuffer->ucFlags & sbFLAGS_IS_MESSAGE_BUFFER ) != ( uint8_t ) 0 )
 800189c:	6a7b      	ldr	r3, [r7, #36]	@ 0x24
 800189e:	7f1b      	ldrb	r3, [r3, #28]
 80018a0:	f003 0301 	and.w	r3, r3, #1
 80018a4:	2b00      	cmp	r3, #0
 80018a6:	d009      	beq.n	80018bc <xStreamBufferSend+0x46>
    {
        xRequiredSpace += sbBYTES_TO_STORE_MESSAGE_LENGTH;
 80018a8:	6abb      	ldr	r3, [r7, #40]	@ 0x28
 80018aa:	3304      	adds	r3, #4
 80018ac:	62bb      	str	r3, [r7, #40]	@ 0x28
        /* Overflow? */
        configASSERT( xRequiredSpace > xDataLengthBytes );

        /* If this is a message buffer then it must be possible to write the
         * whole message. */
        if( xRequiredSpace > xMaxReportedSpace )
 80018ae:	6aba      	ldr	r2, [r7, #40]	@ 0x28
 80018b0:	6a3b      	ldr	r3, [r7, #32]
 80018b2:	429a      	cmp	r2, r3
 80018b4:	d908      	bls.n	80018c8 <xStreamBufferSend+0x52>
        {
            /* The message would not fit even if the entire buffer was empty,
             * so don't wait for space. */
            xTicksToWait = ( TickType_t ) 0;
 80018b6:	2300      	movs	r3, #0
 80018b8:	603b      	str	r3, [r7, #0]
 80018ba:	e005      	b.n	80018c8 <xStreamBufferSend+0x52>
    else
    {
        /* If this is a stream buffer then it is acceptable to write only part
         * of the message to the buffer.  Cap the length to the total length of
         * the buffer. */
        if( xRequiredSpace > xMaxReportedSpace )
 80018bc:	6aba      	ldr	r2, [r7, #40]	@ 0x28
 80018be:	6a3b      	ldr	r3, [r7, #32]
 80018c0:	429a      	cmp	r2, r3
 80018c2:	d901      	bls.n	80018c8 <xStreamBufferSend+0x52>
        {
            xRequiredSpace = xMaxReportedSpace;
 80018c4:	6a3b      	ldr	r3, [r7, #32]
 80018c6:	62bb      	str	r3, [r7, #40]	@ 0x28
        {
            mtCOVERAGE_TEST_MARKER();
        }
    }

    if( xTicksToWait != ( TickType_t ) 0 )
 80018c8:	683b      	ldr	r3, [r7, #0]
 80018ca:	2b00      	cmp	r3, #0
 80018cc:	d035      	beq.n	800193a <xStreamBufferSend+0xc4>
    {
        vTaskSetTimeOutState( &xTimeOut );
 80018ce:	f107 0314 	add.w	r3, r7, #20
 80018d2:	4618      	mov	r0, r3
 80018d4:	f001 fd26 	bl	8003324 <vTaskSetTimeOutState>

        do
        {
            /* Wait until the required number of bytes are free in the message
             * buffer. */
            taskENTER_CRITICAL();
 80018d8:	f003 fa49 	bl	8004d6e <vPortEnterCritical>
            {
                xSpace = xStreamBufferSpacesAvailable( pxStreamBuffer );
 80018dc:	6a78      	ldr	r0, [r7, #36]	@ 0x24
 80018de:	f7ff ff8e 	bl	80017fe <xStreamBufferSpacesAvailable>
 80018e2:	62f8      	str	r0, [r7, #44]	@ 0x2c

                if( xSpace < xRequiredSpace )
 80018e4:	6afa      	ldr	r2, [r7, #44]	@ 0x2c
 80018e6:	6abb      	ldr	r3, [r7, #40]	@ 0x28
 80018e8:	429a      	cmp	r2, r3
 80018ea:	d20b      	bcs.n	8001904 <xStreamBufferSend+0x8e>
                {
                    /* Clear notification state as going to wait for space. */
                    ( void ) xTaskNotifyStateClearIndexed( NULL, pxStreamBuffer->uxNotificationIndex );
 80018ec:	6a7b      	ldr	r3, [r7, #36]	@ 0x24
 80018ee:	6a1b      	ldr	r3, [r3, #32]
 80018f0:	4619      	mov	r1, r3
 80018f2:	2000      	movs	r0, #0
 80018f4:	f002 fc76 	bl	80041e4 <xTaskGenericNotifyStateClear>

                    /* Should only be one writer. */
                    configASSERT( pxStreamBuffer->xTaskWaitingToSend == NULL );
                    pxStreamBuffer->xTaskWaitingToSend = xTaskGetCurrentTaskHandle();
 80018f8:	f001 fe4a 	bl	8003590 <xTaskGetCurrentTaskHandle>
 80018fc:	4602      	mov	r2, r0
 80018fe:	6a7b      	ldr	r3, [r7, #36]	@ 0x24
 8001900:	615a      	str	r2, [r3, #20]
 8001902:	e002      	b.n	800190a <xStreamBufferSend+0x94>
                }
                else
                {
                    taskEXIT_CRITICAL();
 8001904:	f003 fa4e 	bl	8004da4 <vPortExitCritical>
                    break;
 8001908:	e017      	b.n	800193a <xStreamBufferSend+0xc4>
                }
            }
            taskEXIT_CRITICAL();
 800190a:	f003 fa4b 	bl	8004da4 <vPortExitCritical>

            traceBLOCKING_ON_STREAM_BUFFER_SEND( xStreamBuffer );
            ( void ) xTaskNotifyWaitIndexed( pxStreamBuffer->uxNotificationIndex, ( uint32_t ) 0, ( uint32_t ) 0, NULL, xTicksToWait );
 800190e:	6a7b      	ldr	r3, [r7, #36]	@ 0x24
 8001910:	6a18      	ldr	r0, [r3, #32]
 8001912:	683b      	ldr	r3, [r7, #0]
 8001914:	9300      	str	r3, [sp, #0]
 8001916:	2300      	movs	r3, #0
 8001918:	2200      	movs	r2, #0
 800191a:	2100      	movs	r1, #0
 800191c:	f002 f8e2 	bl	8003ae4 <xTaskGenericNotifyWait>
            pxStreamBuffer->xTaskWaitingToSend = NULL;
 8001920:	6a7b      	ldr	r3, [r7, #36]	@ 0x24
 8001922:	2200      	movs	r2, #0
 8001924:	615a      	str	r2, [r3, #20]
        } while( xTaskCheckForTimeOut( &xTimeOut, &xTicksToWait ) == pdFALSE );
 8001926:	463a      	mov	r2, r7
 8001928:	f107 0314 	add.w	r3, r7, #20
 800192c:	4611      	mov	r1, r2
 800192e:	4618      	mov	r0, r3
 8001930:	f001 fd26 	bl	8003380 <xTaskCheckForTimeOut>
 8001934:	4603      	mov	r3, r0
 8001936:	2b00      	cmp	r3, #0
 8001938:	d0ce      	beq.n	80018d8 <xStreamBufferSend+0x62>
    else
    {
        mtCOVERAGE_TEST_MARKER();
    }

    if( xSpace == ( size_t ) 0 )
 800193a:	6afb      	ldr	r3, [r7, #44]	@ 0x2c
 800193c:	2b00      	cmp	r3, #0
 800193e:	d103      	bne.n	8001948 <xStreamBufferSend+0xd2>
    {
        xSpace = xStreamBufferSpacesAvailable( pxStreamBuffer );
 8001940:	6a78      	ldr	r0, [r7, #36]	@ 0x24
 8001942:	f7ff ff5c 	bl	80017fe <xStreamBufferSpacesAvailable>
 8001946:	62f8      	str	r0, [r7, #44]	@ 0x2c
    else
    {
        mtCOVERAGE_TEST_MARKER();
    }

    xReturn = prvWriteMessageToBuffer( pxStreamBuffer, pvTxData, xDataLengthBytes, xSpace, xRequiredSpace );
 8001948:	6abb      	ldr	r3, [r7, #40]	@ 0x28
 800194a:	9300      	str	r3, [sp, #0]
 800194c:	6afb      	ldr	r3, [r7, #44]	@ 0x2c
 800194e:	687a      	ldr	r2, [r7, #4]
 8001950:	68b9      	ldr	r1, [r7, #8]
 8001952:	6a78      	ldr	r0, [r7, #36]	@ 0x24
 8001954:	f000 f87e 	bl	8001a54 <prvWriteMessageToBuffer>
 8001958:	61f8      	str	r0, [r7, #28]

    if( xReturn > ( size_t ) 0 )
 800195a:	69fb      	ldr	r3, [r7, #28]
 800195c:	2b00      	cmp	r3, #0
 800195e:	d01c      	beq.n	800199a <xStreamBufferSend+0x124>
    {
        traceSTREAM_BUFFER_SEND( xStreamBuffer, xReturn );

        /* Was a task waiting for the data? */
        if( prvBytesInBuffer( pxStreamBuffer ) >= pxStreamBuffer->xTriggerLevelBytes )
 8001960:	6a78      	ldr	r0, [r7, #36]	@ 0x24
 8001962:	f000 fb06 	bl	8001f72 <prvBytesInBuffer>
 8001966:	4602      	mov	r2, r0
 8001968:	6a7b      	ldr	r3, [r7, #36]	@ 0x24
 800196a:	68db      	ldr	r3, [r3, #12]
 800196c:	429a      	cmp	r2, r3
 800196e:	d314      	bcc.n	800199a <xStreamBufferSend+0x124>
        {
            prvSEND_COMPLETED( pxStreamBuffer );
 8001970:	f001 f802 	bl	8002978 <vTaskSuspendAll>
 8001974:	6a7b      	ldr	r3, [r7, #36]	@ 0x24
 8001976:	691b      	ldr	r3, [r3, #16]
 8001978:	2b00      	cmp	r3, #0
 800197a:	d00c      	beq.n	8001996 <xStreamBufferSend+0x120>
 800197c:	6a7b      	ldr	r3, [r7, #36]	@ 0x24
 800197e:	6918      	ldr	r0, [r3, #16]
 8001980:	6a7b      	ldr	r3, [r7, #36]	@ 0x24
 8001982:	6a19      	ldr	r1, [r3, #32]
 8001984:	2300      	movs	r3, #0
 8001986:	9300      	str	r3, [sp, #0]
 8001988:	2300      	movs	r3, #0
 800198a:	2200      	movs	r2, #0
 800198c:	f002 f93c 	bl	8003c08 <xTaskGenericNotify>
 8001990:	6a7b      	ldr	r3, [r7, #36]	@ 0x24
 8001992:	2200      	movs	r2, #0
 8001994:	611a      	str	r2, [r3, #16]
 8001996:	f000 fffd 	bl	8002994 <xTaskResumeAll>
        traceSTREAM_BUFFER_SEND_FAILED( xStreamBuffer );
    }

    traceRETURN_xStreamBufferSend( xReturn );

    return xReturn;
 800199a:	69fb      	ldr	r3, [r7, #28]
}
 800199c:	4618      	mov	r0, r3
 800199e:	3730      	adds	r7, #48	@ 0x30
 80019a0:	46bd      	mov	sp, r7
 80019a2:	bd80      	pop	{r7, pc}

080019a4 <xStreamBufferSendFromISR>:

size_t xStreamBufferSendFromISR( StreamBufferHandle_t xStreamBuffer,
                                 const void * pvTxData,
                                 size_t xDataLengthBytes,
                                 BaseType_t * const pxHigherPriorityTaskWoken )
{
 80019a4:	b580      	push	{r7, lr}
 80019a6:	b08e      	sub	sp, #56	@ 0x38
 80019a8:	af02      	add	r7, sp, #8
 80019aa:	60f8      	str	r0, [r7, #12]
 80019ac:	60b9      	str	r1, [r7, #8]
 80019ae:	607a      	str	r2, [r7, #4]
 80019b0:	603b      	str	r3, [r7, #0]
    StreamBuffer_t * const pxStreamBuffer = xStreamBuffer;
 80019b2:	68fb      	ldr	r3, [r7, #12]
 80019b4:	62bb      	str	r3, [r7, #40]	@ 0x28
    size_t xReturn, xSpace;
    size_t xRequiredSpace = xDataLengthBytes;
 80019b6:	687b      	ldr	r3, [r7, #4]
 80019b8:	62fb      	str	r3, [r7, #44]	@ 0x2c

    /* This send function is used to write to both message buffers and stream
     * buffers.  If this is a message buffer then the space needed must be
     * increased by the amount of bytes needed to store the length of the
     * message. */
    if( ( pxStreamBuffer->ucFlags & sbFLAGS_IS_MESSAGE_BUFFER ) != ( uint8_t ) 0 )
 80019ba:	6abb      	ldr	r3, [r7, #40]	@ 0x28
 80019bc:	7f1b      	ldrb	r3, [r3, #28]
 80019be:	f003 0301 	and.w	r3, r3, #1
 80019c2:	2b00      	cmp	r3, #0
 80019c4:	d002      	beq.n	80019cc <xStreamBufferSendFromISR+0x28>
    {
        xRequiredSpace += sbBYTES_TO_STORE_MESSAGE_LENGTH;
 80019c6:	6afb      	ldr	r3, [r7, #44]	@ 0x2c
 80019c8:	3304      	adds	r3, #4
 80019ca:	62fb      	str	r3, [r7, #44]	@ 0x2c
    else
    {
        mtCOVERAGE_TEST_MARKER();
    }

    xSpace = xStreamBufferSpacesAvailable( pxStreamBuffer );
 80019cc:	6ab8      	ldr	r0, [r7, #40]	@ 0x28
 80019ce:	f7ff ff16 	bl	80017fe <xStreamBufferSpacesAvailable>
 80019d2:	6278      	str	r0, [r7, #36]	@ 0x24
    xReturn = prvWriteMessageToBuffer( pxStreamBuffer, pvTxData, xDataLengthBytes, xSpace, xRequiredSpace );
 80019d4:	6afb      	ldr	r3, [r7, #44]	@ 0x2c
 80019d6:	9300      	str	r3, [sp, #0]
 80019d8:	6a7b      	ldr	r3, [r7, #36]	@ 0x24
 80019da:	687a      	ldr	r2, [r7, #4]
 80019dc:	68b9      	ldr	r1, [r7, #8]
 80019de:	6ab8      	ldr	r0, [r7, #40]	@ 0x28
 80019e0:	f000 f838 	bl	8001a54 <prvWriteMessageToBuffer>
 80019e4:	6238      	str	r0, [r7, #32]

    if( xReturn > ( size_t ) 0 )
 80019e6:	6a3b      	ldr	r3, [r7, #32]
 80019e8:	2b00      	cmp	r3, #0
 80019ea:	d02e      	beq.n	8001a4a <xStreamBufferSendFromISR+0xa6>
    {
        /* Was a task waiting for the data? */
        if( prvBytesInBuffer( pxStreamBuffer ) >= pxStreamBuffer->xTriggerLevelBytes )
 80019ec:	6ab8      	ldr	r0, [r7, #40]	@ 0x28
 80019ee:	f000 fac0 	bl	8001f72 <prvBytesInBuffer>
 80019f2:	4602      	mov	r2, r0
 80019f4:	6abb      	ldr	r3, [r7, #40]	@ 0x28
 80019f6:	68db      	ldr	r3, [r3, #12]
 80019f8:	429a      	cmp	r2, r3
 80019fa:	d326      	bcc.n	8001a4a <xStreamBufferSendFromISR+0xa6>
    __asm volatile
 80019fc:	f3ef 8211 	mrs	r2, BASEPRI
 8001a00:	f04f 0350 	mov.w	r3, #80	@ 0x50
 8001a04:	f383 8811 	msr	BASEPRI, r3
 8001a08:	f3bf 8f6f 	isb	sy
 8001a0c:	f3bf 8f4f 	dsb	sy
 8001a10:	61ba      	str	r2, [r7, #24]
 8001a12:	617b      	str	r3, [r7, #20]
    return ulOriginalBASEPRI;
 8001a14:	69bb      	ldr	r3, [r7, #24]
        {
            /* MISRA Ref 4.7.1 [Return value shall be checked] */
            /* More details at: https://github.com/FreeRTOS/FreeRTOS-Kernel/blob/main/MISRA.md#dir-47 */
            /* coverity[misra_c_2012_directive_4_7_violation] */
            prvSEND_COMPLETE_FROM_ISR( pxStreamBuffer, pxHigherPriorityTaskWoken );
 8001a16:	61fb      	str	r3, [r7, #28]
 8001a18:	6abb      	ldr	r3, [r7, #40]	@ 0x28
 8001a1a:	691b      	ldr	r3, [r3, #16]
 8001a1c:	2b00      	cmp	r3, #0
 8001a1e:	d00e      	beq.n	8001a3e <xStreamBufferSendFromISR+0x9a>
 8001a20:	6abb      	ldr	r3, [r7, #40]	@ 0x28
 8001a22:	6918      	ldr	r0, [r3, #16]
 8001a24:	6abb      	ldr	r3, [r7, #40]	@ 0x28
 8001a26:	6a19      	ldr	r1, [r3, #32]
 8001a28:	683b      	ldr	r3, [r7, #0]
 8001a2a:	9301      	str	r3, [sp, #4]
 8001a2c:	2300      	movs	r3, #0
 8001a2e:	9300      	str	r3, [sp, #0]
 8001a30:	2300      	movs	r3, #0
 8001a32:	2200      	movs	r2, #0
 8001a34:	f002 f9d2 	bl	8003ddc <xTaskGenericNotifyFromISR>
 8001a38:	6abb      	ldr	r3, [r7, #40]	@ 0x28
 8001a3a:	2200      	movs	r2, #0
 8001a3c:	611a      	str	r2, [r3, #16]
 8001a3e:	69fb      	ldr	r3, [r7, #28]
 8001a40:	613b      	str	r3, [r7, #16]
    __asm volatile
 8001a42:	693b      	ldr	r3, [r7, #16]
 8001a44:	f383 8811 	msr	BASEPRI, r3
}
 8001a48:	bf00      	nop
    }

    traceSTREAM_BUFFER_SEND_FROM_ISR( xStreamBuffer, xReturn );
    traceRETURN_xStreamBufferSendFromISR( xReturn );

    return xReturn;
 8001a4a:	6a3b      	ldr	r3, [r7, #32]
}
 8001a4c:	4618      	mov	r0, r3
 8001a4e:	3730      	adds	r7, #48	@ 0x30
 8001a50:	46bd      	mov	sp, r7
 8001a52:	bd80      	pop	{r7, pc}

08001a54 <prvWriteMessageToBuffer>:
static size_t prvWriteMessageToBuffer( StreamBuffer_t * const pxStreamBuffer,
                                       const void * pvTxData,
                                       size_t xDataLengthBytes,
                                       size_t xSpace,
                                       size_t xRequiredSpace )
{
 8001a54:	b580      	push	{r7, lr}
 8001a56:	b086      	sub	sp, #24
 8001a58:	af00      	add	r7, sp, #0
 8001a5a:	60f8      	str	r0, [r7, #12]
 8001a5c:	60b9      	str	r1, [r7, #8]
 8001a5e:	607a      	str	r2, [r7, #4]
 8001a60:	603b      	str	r3, [r7, #0]
    size_t xNextHead = pxStreamBuffer->xHead;
 8001a62:	68fb      	ldr	r3, [r7, #12]
 8001a64:	685b      	ldr	r3, [r3, #4]
 8001a66:	617b      	str	r3, [r7, #20]
    configMESSAGE_BUFFER_LENGTH_TYPE xMessageLength;

    if( ( pxStreamBuffer->ucFlags & sbFLAGS_IS_MESSAGE_BUFFER ) != ( uint8_t ) 0 )
 8001a68:	68fb      	ldr	r3, [r7, #12]
 8001a6a:	7f1b      	ldrb	r3, [r3, #28]
 8001a6c:	f003 0301 	and.w	r3, r3, #1
 8001a70:	2b00      	cmp	r3, #0
 8001a72:	d011      	beq.n	8001a98 <prvWriteMessageToBuffer+0x44>
    {
        /* This is a message buffer, as opposed to a stream buffer. */

        /* Convert xDataLengthBytes to the message length type. */
        xMessageLength = ( configMESSAGE_BUFFER_LENGTH_TYPE ) xDataLengthBytes;
 8001a74:	687b      	ldr	r3, [r7, #4]
 8001a76:	613b      	str	r3, [r7, #16]

        /* Ensure the data length given fits within configMESSAGE_BUFFER_LENGTH_TYPE. */
        configASSERT( ( size_t ) xMessageLength == xDataLengthBytes );

        if( xSpace >= xRequiredSpace )
 8001a78:	683a      	ldr	r2, [r7, #0]
 8001a7a:	6a3b      	ldr	r3, [r7, #32]
 8001a7c:	429a      	cmp	r2, r3
 8001a7e:	d308      	bcc.n	8001a92 <prvWriteMessageToBuffer+0x3e>
        {
            /* There is enough space to write both the message length and the message
             * itself into the buffer.  Start by writing the length of the data, the data
             * itself will be written later in this function. */
            xNextHead = prvWriteBytesToBuffer( pxStreamBuffer, ( const uint8_t * ) &( xMessageLength ), sbBYTES_TO_STORE_MESSAGE_LENGTH, xNextHead );
 8001a80:	f107 0110 	add.w	r1, r7, #16
 8001a84:	697b      	ldr	r3, [r7, #20]
 8001a86:	2204      	movs	r2, #4
 8001a88:	68f8      	ldr	r0, [r7, #12]
 8001a8a:	f000 f9fc 	bl	8001e86 <prvWriteBytesToBuffer>
 8001a8e:	6178      	str	r0, [r7, #20]
 8001a90:	e008      	b.n	8001aa4 <prvWriteMessageToBuffer+0x50>
        }
        else
        {
            /* Not enough space, so do not write data to the buffer. */
            xDataLengthBytes = 0;
 8001a92:	2300      	movs	r3, #0
 8001a94:	607b      	str	r3, [r7, #4]
 8001a96:	e005      	b.n	8001aa4 <prvWriteMessageToBuffer+0x50>
    else
    {
        /* This is a stream buffer, as opposed to a message buffer, so writing a
         * stream of bytes rather than discrete messages.  Plan to write as many
         * bytes as possible. */
        xDataLengthBytes = configMIN( xDataLengthBytes, xSpace );
 8001a98:	687a      	ldr	r2, [r7, #4]
 8001a9a:	683b      	ldr	r3, [r7, #0]
 8001a9c:	4293      	cmp	r3, r2
 8001a9e:	bf28      	it	cs
 8001aa0:	4613      	movcs	r3, r2
 8001aa2:	607b      	str	r3, [r7, #4]
    }

    if( xDataLengthBytes != ( size_t ) 0 )
 8001aa4:	687b      	ldr	r3, [r7, #4]
 8001aa6:	2b00      	cmp	r3, #0
 8001aa8:	d008      	beq.n	8001abc <prvWriteMessageToBuffer+0x68>
    {
        /* Write the data to the buffer. */
        /* MISRA Ref 11.5.5 [Void pointer assignment] */
        /* More details at: https://github.com/FreeRTOS/FreeRTOS-Kernel/blob/main/MISRA.md#rule-115 */
        /* coverity[misra_c_2012_rule_11_5_violation] */
        pxStreamBuffer->xHead = prvWriteBytesToBuffer( pxStreamBuffer, ( const uint8_t * ) pvTxData, xDataLengthBytes, xNextHead );
 8001aaa:	697b      	ldr	r3, [r7, #20]
 8001aac:	687a      	ldr	r2, [r7, #4]
 8001aae:	68b9      	ldr	r1, [r7, #8]
 8001ab0:	68f8      	ldr	r0, [r7, #12]
 8001ab2:	f000 f9e8 	bl	8001e86 <prvWriteBytesToBuffer>
 8001ab6:	4602      	mov	r2, r0
 8001ab8:	68fb      	ldr	r3, [r7, #12]
 8001aba:	605a      	str	r2, [r3, #4]
    }

    return xDataLengthBytes;
 8001abc:	687b      	ldr	r3, [r7, #4]
}
 8001abe:	4618      	mov	r0, r3
 8001ac0:	3718      	adds	r7, #24
 8001ac2:	46bd      	mov	sp, r7
 8001ac4:	bd80      	pop	{r7, pc}

08001ac6 <xStreamBufferReceive>:

size_t xStreamBufferReceive( StreamBufferHandle_t xStreamBuffer,
                             void * pvRxData,
                             size_t xBufferLengthBytes,
                             TickType_t xTicksToWait )
{
 8001ac6:	b580      	push	{r7, lr}
 8001ac8:	b08a      	sub	sp, #40	@ 0x28
 8001aca:	af02      	add	r7, sp, #8
 8001acc:	60f8      	str	r0, [r7, #12]
 8001ace:	60b9      	str	r1, [r7, #8]
 8001ad0:	607a      	str	r2, [r7, #4]
 8001ad2:	603b      	str	r3, [r7, #0]
    StreamBuffer_t * const pxStreamBuffer = xStreamBuffer;
 8001ad4:	68fb      	ldr	r3, [r7, #12]
 8001ad6:	613b      	str	r3, [r7, #16]
    size_t xReceivedLength = 0, xBytesAvailable, xBytesToStoreMessageLength;
 8001ad8:	2300      	movs	r3, #0
 8001ada:	61fb      	str	r3, [r7, #28]
    /* This receive function is used by both message buffers, which store
     * discrete messages, and stream buffers, which store a continuous stream of
     * bytes.  Discrete messages include an additional
     * sbBYTES_TO_STORE_MESSAGE_LENGTH bytes that hold the length of the
     * message. */
    if( ( pxStreamBuffer->ucFlags & sbFLAGS_IS_MESSAGE_BUFFER ) != ( uint8_t ) 0 )
 8001adc:	693b      	ldr	r3, [r7, #16]
 8001ade:	7f1b      	ldrb	r3, [r3, #28]
 8001ae0:	f003 0301 	and.w	r3, r3, #1
 8001ae4:	2b00      	cmp	r3, #0
 8001ae6:	d002      	beq.n	8001aee <xStreamBufferReceive+0x28>
    {
        xBytesToStoreMessageLength = sbBYTES_TO_STORE_MESSAGE_LENGTH;
 8001ae8:	2304      	movs	r3, #4
 8001aea:	617b      	str	r3, [r7, #20]
 8001aec:	e00b      	b.n	8001b06 <xStreamBufferReceive+0x40>
    }
    else if( ( pxStreamBuffer->ucFlags & sbFLAGS_IS_BATCHING_BUFFER ) != ( uint8_t ) 0 )
 8001aee:	693b      	ldr	r3, [r7, #16]
 8001af0:	7f1b      	ldrb	r3, [r3, #28]
 8001af2:	f003 0304 	and.w	r3, r3, #4
 8001af6:	2b00      	cmp	r3, #0
 8001af8:	d003      	beq.n	8001b02 <xStreamBufferReceive+0x3c>
    {
        /* Force task to block if the batching buffer contains less bytes than
         * the trigger level. */
        xBytesToStoreMessageLength = pxStreamBuffer->xTriggerLevelBytes;
 8001afa:	693b      	ldr	r3, [r7, #16]
 8001afc:	68db      	ldr	r3, [r3, #12]
 8001afe:	617b      	str	r3, [r7, #20]
 8001b00:	e001      	b.n	8001b06 <xStreamBufferReceive+0x40>
    }
    else
    {
        xBytesToStoreMessageLength = 0;
 8001b02:	2300      	movs	r3, #0
 8001b04:	617b      	str	r3, [r7, #20]
    }

    if( xTicksToWait != ( TickType_t ) 0 )
 8001b06:	683b      	ldr	r3, [r7, #0]
 8001b08:	2b00      	cmp	r3, #0
 8001b0a:	d02b      	beq.n	8001b64 <xStreamBufferReceive+0x9e>
    {
        /* Checking if there is data and clearing the notification state must be
         * performed atomically. */
        taskENTER_CRITICAL();
 8001b0c:	f003 f92f 	bl	8004d6e <vPortEnterCritical>
        {
            xBytesAvailable = prvBytesInBuffer( pxStreamBuffer );
 8001b10:	6938      	ldr	r0, [r7, #16]
 8001b12:	f000 fa2e 	bl	8001f72 <prvBytesInBuffer>
 8001b16:	61b8      	str	r0, [r7, #24]
             * the length of the next discrete message.  If this function was
             * invoked by a stream buffer read then xBytesToStoreMessageLength will
             * be 0. If this function was invoked by a stream batch buffer read
             * then xBytesToStoreMessageLength will be xTriggerLevelBytes value
             * for the buffer.*/
            if( xBytesAvailable <= xBytesToStoreMessageLength )
 8001b18:	69ba      	ldr	r2, [r7, #24]
 8001b1a:	697b      	ldr	r3, [r7, #20]
 8001b1c:	429a      	cmp	r2, r3
 8001b1e:	d80a      	bhi.n	8001b36 <xStreamBufferReceive+0x70>
            {
                /* Clear notification state as going to wait for data. */
                ( void ) xTaskNotifyStateClearIndexed( NULL, pxStreamBuffer->uxNotificationIndex );
 8001b20:	693b      	ldr	r3, [r7, #16]
 8001b22:	6a1b      	ldr	r3, [r3, #32]
 8001b24:	4619      	mov	r1, r3
 8001b26:	2000      	movs	r0, #0
 8001b28:	f002 fb5c 	bl	80041e4 <xTaskGenericNotifyStateClear>

                /* Should only be one reader. */
                configASSERT( pxStreamBuffer->xTaskWaitingToReceive == NULL );
                pxStreamBuffer->xTaskWaitingToReceive = xTaskGetCurrentTaskHandle();
 8001b2c:	f001 fd30 	bl	8003590 <xTaskGetCurrentTaskHandle>
 8001b30:	4602      	mov	r2, r0
 8001b32:	693b      	ldr	r3, [r7, #16]
 8001b34:	611a      	str	r2, [r3, #16]
            else
            {
                mtCOVERAGE_TEST_MARKER();
            }
        }
        taskEXIT_CRITICAL();
 8001b36:	f003 f935 	bl	8004da4 <vPortExitCritical>

        if( xBytesAvailable <= xBytesToStoreMessageLength )
 8001b3a:	69ba      	ldr	r2, [r7, #24]
 8001b3c:	697b      	ldr	r3, [r7, #20]
 8001b3e:	429a      	cmp	r2, r3
 8001b40:	d814      	bhi.n	8001b6c <xStreamBufferReceive+0xa6>
        {
            /* Wait for data to be available. */
            traceBLOCKING_ON_STREAM_BUFFER_RECEIVE( xStreamBuffer );
            ( void ) xTaskNotifyWaitIndexed( pxStreamBuffer->uxNotificationIndex, ( uint32_t ) 0, ( uint32_t ) 0, NULL, xTicksToWait );
 8001b42:	693b      	ldr	r3, [r7, #16]
 8001b44:	6a18      	ldr	r0, [r3, #32]
 8001b46:	683b      	ldr	r3, [r7, #0]
 8001b48:	9300      	str	r3, [sp, #0]
 8001b4a:	2300      	movs	r3, #0
 8001b4c:	2200      	movs	r2, #0
 8001b4e:	2100      	movs	r1, #0
 8001b50:	f001 ffc8 	bl	8003ae4 <xTaskGenericNotifyWait>
            pxStreamBuffer->xTaskWaitingToReceive = NULL;
 8001b54:	693b      	ldr	r3, [r7, #16]
 8001b56:	2200      	movs	r2, #0
 8001b58:	611a      	str	r2, [r3, #16]

            /* Recheck the data available after blocking. */
            xBytesAvailable = prvBytesInBuffer( pxStreamBuffer );
 8001b5a:	6938      	ldr	r0, [r7, #16]
 8001b5c:	f000 fa09 	bl	8001f72 <prvBytesInBuffer>
 8001b60:	61b8      	str	r0, [r7, #24]
 8001b62:	e003      	b.n	8001b6c <xStreamBufferReceive+0xa6>
            mtCOVERAGE_TEST_MARKER();
        }
    }
    else
    {
        xBytesAvailable = prvBytesInBuffer( pxStreamBuffer );
 8001b64:	6938      	ldr	r0, [r7, #16]
 8001b66:	f000 fa04 	bl	8001f72 <prvBytesInBuffer>
 8001b6a:	61b8      	str	r0, [r7, #24]
    /* Whether receiving a discrete message (where xBytesToStoreMessageLength
     * holds the number of bytes used to store the message length) or a stream of
     * bytes (where xBytesToStoreMessageLength is zero), the number of bytes
     * available must be greater than xBytesToStoreMessageLength to be able to
     * read bytes from the buffer. */
    if( xBytesAvailable > xBytesToStoreMessageLength )
 8001b6c:	69ba      	ldr	r2, [r7, #24]
 8001b6e:	697b      	ldr	r3, [r7, #20]
 8001b70:	429a      	cmp	r2, r3
 8001b72:	d91e      	bls.n	8001bb2 <xStreamBufferReceive+0xec>
    {
        xReceivedLength = prvReadMessageFromBuffer( pxStreamBuffer, pvRxData, xBufferLengthBytes, xBytesAvailable );
 8001b74:	69bb      	ldr	r3, [r7, #24]
 8001b76:	687a      	ldr	r2, [r7, #4]
 8001b78:	68b9      	ldr	r1, [r7, #8]
 8001b7a:	6938      	ldr	r0, [r7, #16]
 8001b7c:	f000 f89a 	bl	8001cb4 <prvReadMessageFromBuffer>
 8001b80:	61f8      	str	r0, [r7, #28]

        /* Was a task waiting for space in the buffer? */
        if( xReceivedLength != ( size_t ) 0 )
 8001b82:	69fb      	ldr	r3, [r7, #28]
 8001b84:	2b00      	cmp	r3, #0
 8001b86:	d014      	beq.n	8001bb2 <xStreamBufferReceive+0xec>
        {
            traceSTREAM_BUFFER_RECEIVE( xStreamBuffer, xReceivedLength );
            prvRECEIVE_COMPLETED( xStreamBuffer );
 8001b88:	f000 fef6 	bl	8002978 <vTaskSuspendAll>
 8001b8c:	68fb      	ldr	r3, [r7, #12]
 8001b8e:	695b      	ldr	r3, [r3, #20]
 8001b90:	2b00      	cmp	r3, #0
 8001b92:	d00c      	beq.n	8001bae <xStreamBufferReceive+0xe8>
 8001b94:	68fb      	ldr	r3, [r7, #12]
 8001b96:	6958      	ldr	r0, [r3, #20]
 8001b98:	68fb      	ldr	r3, [r7, #12]
 8001b9a:	6a19      	ldr	r1, [r3, #32]
 8001b9c:	2300      	movs	r3, #0
 8001b9e:	9300      	str	r3, [sp, #0]
 8001ba0:	2300      	movs	r3, #0
 8001ba2:	2200      	movs	r2, #0
 8001ba4:	f002 f830 	bl	8003c08 <xTaskGenericNotify>
 8001ba8:	68fb      	ldr	r3, [r7, #12]
 8001baa:	2200      	movs	r2, #0
 8001bac:	615a      	str	r2, [r3, #20]
 8001bae:	f000 fef1 	bl	8002994 <xTaskResumeAll>
        mtCOVERAGE_TEST_MARKER();
    }

    traceRETURN_xStreamBufferReceive( xReceivedLength );

    return xReceivedLength;
 8001bb2:	69fb      	ldr	r3, [r7, #28]
}
 8001bb4:	4618      	mov	r0, r3
 8001bb6:	3720      	adds	r7, #32
 8001bb8:	46bd      	mov	sp, r7
 8001bba:	bd80      	pop	{r7, pc}

08001bbc <xStreamBufferNextMessageLengthBytes>:
/*-----------------------------------------------------------*/

size_t xStreamBufferNextMessageLengthBytes( StreamBufferHandle_t xStreamBuffer )
{
 8001bbc:	b580      	push	{r7, lr}
 8001bbe:	b086      	sub	sp, #24
 8001bc0:	af00      	add	r7, sp, #0
 8001bc2:	6078      	str	r0, [r7, #4]
    StreamBuffer_t * const pxStreamBuffer = xStreamBuffer;
 8001bc4:	687b      	ldr	r3, [r7, #4]
 8001bc6:	613b      	str	r3, [r7, #16]
    traceENTER_xStreamBufferNextMessageLengthBytes( xStreamBuffer );

    configASSERT( pxStreamBuffer );

    /* Ensure the stream buffer is being used as a message buffer. */
    if( ( pxStreamBuffer->ucFlags & sbFLAGS_IS_MESSAGE_BUFFER ) != ( uint8_t ) 0 )
 8001bc8:	693b      	ldr	r3, [r7, #16]
 8001bca:	7f1b      	ldrb	r3, [r3, #28]
 8001bcc:	f003 0301 	and.w	r3, r3, #1
 8001bd0:	2b00      	cmp	r3, #0
 8001bd2:	d014      	beq.n	8001bfe <xStreamBufferNextMessageLengthBytes+0x42>
    {
        xBytesAvailable = prvBytesInBuffer( pxStreamBuffer );
 8001bd4:	6938      	ldr	r0, [r7, #16]
 8001bd6:	f000 f9cc 	bl	8001f72 <prvBytesInBuffer>
 8001bda:	60f8      	str	r0, [r7, #12]

        if( xBytesAvailable > sbBYTES_TO_STORE_MESSAGE_LENGTH )
 8001bdc:	68fb      	ldr	r3, [r7, #12]
 8001bde:	2b04      	cmp	r3, #4
 8001be0:	d90a      	bls.n	8001bf8 <xStreamBufferNextMessageLengthBytes+0x3c>
        {
            /* The number of bytes available is greater than the number of bytes
             * required to hold the length of the next message, so another message
             * is available. */
            ( void ) prvReadBytesFromBuffer( pxStreamBuffer, ( uint8_t * ) &xTempReturn, sbBYTES_TO_STORE_MESSAGE_LENGTH, pxStreamBuffer->xTail );
 8001be2:	693b      	ldr	r3, [r7, #16]
 8001be4:	681b      	ldr	r3, [r3, #0]
 8001be6:	f107 0108 	add.w	r1, r7, #8
 8001bea:	2204      	movs	r2, #4
 8001bec:	6938      	ldr	r0, [r7, #16]
 8001bee:	f000 f985 	bl	8001efc <prvReadBytesFromBuffer>
            xReturn = ( size_t ) xTempReturn;
 8001bf2:	68bb      	ldr	r3, [r7, #8]
 8001bf4:	617b      	str	r3, [r7, #20]
 8001bf6:	e004      	b.n	8001c02 <xStreamBufferNextMessageLengthBytes+0x46>
            /* The minimum amount of bytes in a message buffer is
             * ( sbBYTES_TO_STORE_MESSAGE_LENGTH + 1 ), so if xBytesAvailable is
             * less than sbBYTES_TO_STORE_MESSAGE_LENGTH the only other valid
             * value is 0. */
            configASSERT( xBytesAvailable == 0 );
            xReturn = 0;
 8001bf8:	2300      	movs	r3, #0
 8001bfa:	617b      	str	r3, [r7, #20]
 8001bfc:	e001      	b.n	8001c02 <xStreamBufferNextMessageLengthBytes+0x46>
        }
    }
    else
    {
        xReturn = 0;
 8001bfe:	2300      	movs	r3, #0
 8001c00:	617b      	str	r3, [r7, #20]
    }

    traceRETURN_xStreamBufferNextMessageLengthBytes( xReturn );

    return xReturn;
 8001c02:	697b      	ldr	r3, [r7, #20]
}
 8001c04:	4618      	mov	r0, r3
 8001c06:	3718      	adds	r7, #24
 8001c08:	46bd      	mov	sp, r7
 8001c0a:	bd80      	pop	{r7, pc}

08001c0c <xStreamBufferReceiveFromISR>:

size_t xStreamBufferReceiveFromISR( StreamBufferHandle_t xStreamBuffer,
                                    void * pvRxData,
                                    size_t xBufferLengthBytes,
                                    BaseType_t * const pxHigherPriorityTaskWoken )
{
 8001c0c:	b580      	push	{r7, lr}
 8001c0e:	b08e      	sub	sp, #56	@ 0x38
 8001c10:	af02      	add	r7, sp, #8
 8001c12:	60f8      	str	r0, [r7, #12]
 8001c14:	60b9      	str	r1, [r7, #8]
 8001c16:	607a      	str	r2, [r7, #4]
 8001c18:	603b      	str	r3, [r7, #0]
    StreamBuffer_t * const pxStreamBuffer = xStreamBuffer;
 8001c1a:	68fb      	ldr	r3, [r7, #12]
 8001c1c:	627b      	str	r3, [r7, #36]	@ 0x24
    size_t xReceivedLength = 0, xBytesAvailable, xBytesToStoreMessageLength;
 8001c1e:	2300      	movs	r3, #0
 8001c20:	62fb      	str	r3, [r7, #44]	@ 0x2c
    /* This receive function is used by both message buffers, which store
     * discrete messages, and stream buffers, which store a continuous stream of
     * bytes.  Discrete messages include an additional
     * sbBYTES_TO_STORE_MESSAGE_LENGTH bytes that hold the length of the
     * message. */
    if( ( pxStreamBuffer->ucFlags & sbFLAGS_IS_MESSAGE_BUFFER ) != ( uint8_t ) 0 )
 8001c22:	6a7b      	ldr	r3, [r7, #36]	@ 0x24
 8001c24:	7f1b      	ldrb	r3, [r3, #28]
 8001c26:	f003 0301 	and.w	r3, r3, #1
 8001c2a:	2b00      	cmp	r3, #0
 8001c2c:	d002      	beq.n	8001c34 <xStreamBufferReceiveFromISR+0x28>
    {
        xBytesToStoreMessageLength = sbBYTES_TO_STORE_MESSAGE_LENGTH;
 8001c2e:	2304      	movs	r3, #4
 8001c30:	62bb      	str	r3, [r7, #40]	@ 0x28
 8001c32:	e001      	b.n	8001c38 <xStreamBufferReceiveFromISR+0x2c>
    }
    else
    {
        xBytesToStoreMessageLength = 0;
 8001c34:	2300      	movs	r3, #0
 8001c36:	62bb      	str	r3, [r7, #40]	@ 0x28
    }

    xBytesAvailable = prvBytesInBuffer( pxStreamBuffer );
 8001c38:	6a78      	ldr	r0, [r7, #36]	@ 0x24
 8001c3a:	f000 f99a 	bl	8001f72 <prvBytesInBuffer>
 8001c3e:	6238      	str	r0, [r7, #32]
    /* Whether receiving a discrete message (where xBytesToStoreMessageLength
     * holds the number of bytes used to store the message length) or a stream of
     * bytes (where xBytesToStoreMessageLength is zero), the number of bytes
     * available must be greater than xBytesToStoreMessageLength to be able to
     * read bytes from the buffer. */
    if( xBytesAvailable > xBytesToStoreMessageLength )
 8001c40:	6a3a      	ldr	r2, [r7, #32]
 8001c42:	6abb      	ldr	r3, [r7, #40]	@ 0x28
 8001c44:	429a      	cmp	r2, r3
 8001c46:	d930      	bls.n	8001caa <xStreamBufferReceiveFromISR+0x9e>
    {
        xReceivedLength = prvReadMessageFromBuffer( pxStreamBuffer, pvRxData, xBufferLengthBytes, xBytesAvailable );
 8001c48:	6a3b      	ldr	r3, [r7, #32]
 8001c4a:	687a      	ldr	r2, [r7, #4]
 8001c4c:	68b9      	ldr	r1, [r7, #8]
 8001c4e:	6a78      	ldr	r0, [r7, #36]	@ 0x24
 8001c50:	f000 f830 	bl	8001cb4 <prvReadMessageFromBuffer>
 8001c54:	62f8      	str	r0, [r7, #44]	@ 0x2c

        /* Was a task waiting for space in the buffer? */
        if( xReceivedLength != ( size_t ) 0 )
 8001c56:	6afb      	ldr	r3, [r7, #44]	@ 0x2c
 8001c58:	2b00      	cmp	r3, #0
 8001c5a:	d026      	beq.n	8001caa <xStreamBufferReceiveFromISR+0x9e>
    __asm volatile
 8001c5c:	f3ef 8211 	mrs	r2, BASEPRI
 8001c60:	f04f 0350 	mov.w	r3, #80	@ 0x50
 8001c64:	f383 8811 	msr	BASEPRI, r3
 8001c68:	f3bf 8f6f 	isb	sy
 8001c6c:	f3bf 8f4f 	dsb	sy
 8001c70:	61ba      	str	r2, [r7, #24]
 8001c72:	617b      	str	r3, [r7, #20]
    return ulOriginalBASEPRI;
 8001c74:	69bb      	ldr	r3, [r7, #24]
        {
            /* MISRA Ref 4.7.1 [Return value shall be checked] */
            /* More details at: https://github.com/FreeRTOS/FreeRTOS-Kernel/blob/main/MISRA.md#dir-47 */
            /* coverity[misra_c_2012_directive_4_7_violation] */
            prvRECEIVE_COMPLETED_FROM_ISR( pxStreamBuffer, pxHigherPriorityTaskWoken );
 8001c76:	61fb      	str	r3, [r7, #28]
 8001c78:	6a7b      	ldr	r3, [r7, #36]	@ 0x24
 8001c7a:	695b      	ldr	r3, [r3, #20]
 8001c7c:	2b00      	cmp	r3, #0
 8001c7e:	d00e      	beq.n	8001c9e <xStreamBufferReceiveFromISR+0x92>
 8001c80:	6a7b      	ldr	r3, [r7, #36]	@ 0x24
 8001c82:	6958      	ldr	r0, [r3, #20]
 8001c84:	6a7b      	ldr	r3, [r7, #36]	@ 0x24
 8001c86:	6a19      	ldr	r1, [r3, #32]
 8001c88:	683b      	ldr	r3, [r7, #0]
 8001c8a:	9301      	str	r3, [sp, #4]
 8001c8c:	2300      	movs	r3, #0
 8001c8e:	9300      	str	r3, [sp, #0]
 8001c90:	2300      	movs	r3, #0
 8001c92:	2200      	movs	r2, #0
 8001c94:	f002 f8a2 	bl	8003ddc <xTaskGenericNotifyFromISR>
 8001c98:	6a7b      	ldr	r3, [r7, #36]	@ 0x24
 8001c9a:	2200      	movs	r2, #0
 8001c9c:	615a      	str	r2, [r3, #20]
 8001c9e:	69fb      	ldr	r3, [r7, #28]
 8001ca0:	613b      	str	r3, [r7, #16]
    __asm volatile
 8001ca2:	693b      	ldr	r3, [r7, #16]
 8001ca4:	f383 8811 	msr	BASEPRI, r3
}
 8001ca8:	bf00      	nop
    }

    traceSTREAM_BUFFER_RECEIVE_FROM_ISR( xStreamBuffer, xReceivedLength );
    traceRETURN_xStreamBufferReceiveFromISR( xReceivedLength );

    return xReceivedLength;
 8001caa:	6afb      	ldr	r3, [r7, #44]	@ 0x2c
}
 8001cac:	4618      	mov	r0, r3
 8001cae:	3730      	adds	r7, #48	@ 0x30
 8001cb0:	46bd      	mov	sp, r7
 8001cb2:	bd80      	pop	{r7, pc}

08001cb4 <prvReadMessageFromBuffer>:

static size_t prvReadMessageFromBuffer( StreamBuffer_t * pxStreamBuffer,
                                        void * pvRxData,
                                        size_t xBufferLengthBytes,
                                        size_t xBytesAvailable )
{
 8001cb4:	b580      	push	{r7, lr}
 8001cb6:	b088      	sub	sp, #32
 8001cb8:	af00      	add	r7, sp, #0
 8001cba:	60f8      	str	r0, [r7, #12]
 8001cbc:	60b9      	str	r1, [r7, #8]
 8001cbe:	607a      	str	r2, [r7, #4]
 8001cc0:	603b      	str	r3, [r7, #0]
    size_t xCount, xNextMessageLength;
    configMESSAGE_BUFFER_LENGTH_TYPE xTempNextMessageLength;
    size_t xNextTail = pxStreamBuffer->xTail;
 8001cc2:	68fb      	ldr	r3, [r7, #12]
 8001cc4:	681b      	ldr	r3, [r3, #0]
 8001cc6:	61bb      	str	r3, [r7, #24]

    if( ( pxStreamBuffer->ucFlags & sbFLAGS_IS_MESSAGE_BUFFER ) != ( uint8_t ) 0 )
 8001cc8:	68fb      	ldr	r3, [r7, #12]
 8001cca:	7f1b      	ldrb	r3, [r3, #28]
 8001ccc:	f003 0301 	and.w	r3, r3, #1
 8001cd0:	2b00      	cmp	r3, #0
 8001cd2:	d013      	beq.n	8001cfc <prvReadMessageFromBuffer+0x48>
    {
        /* A discrete message is being received.  First receive the length
         * of the message. */
        xNextTail = prvReadBytesFromBuffer( pxStreamBuffer, ( uint8_t * ) &xTempNextMessageLength, sbBYTES_TO_STORE_MESSAGE_LENGTH, xNextTail );
 8001cd4:	f107 0110 	add.w	r1, r7, #16
 8001cd8:	69bb      	ldr	r3, [r7, #24]
 8001cda:	2204      	movs	r2, #4
 8001cdc:	68f8      	ldr	r0, [r7, #12]
 8001cde:	f000 f90d 	bl	8001efc <prvReadBytesFromBuffer>
 8001ce2:	61b8      	str	r0, [r7, #24]
        xNextMessageLength = ( size_t ) xTempNextMessageLength;
 8001ce4:	693b      	ldr	r3, [r7, #16]
 8001ce6:	61fb      	str	r3, [r7, #28]

        /* Reduce the number of bytes available by the number of bytes just
         * read out. */
        xBytesAvailable -= sbBYTES_TO_STORE_MESSAGE_LENGTH;
 8001ce8:	683b      	ldr	r3, [r7, #0]
 8001cea:	3b04      	subs	r3, #4
 8001cec:	603b      	str	r3, [r7, #0]

        /* Check there is enough space in the buffer provided by the
         * user. */
        if( xNextMessageLength > xBufferLengthBytes )
 8001cee:	69fa      	ldr	r2, [r7, #28]
 8001cf0:	687b      	ldr	r3, [r7, #4]
 8001cf2:	429a      	cmp	r2, r3
 8001cf4:	d904      	bls.n	8001d00 <prvReadMessageFromBuffer+0x4c>
        {
            /* The user has provided insufficient space to read the message. */
            xNextMessageLength = 0;
 8001cf6:	2300      	movs	r3, #0
 8001cf8:	61fb      	str	r3, [r7, #28]
 8001cfa:	e001      	b.n	8001d00 <prvReadMessageFromBuffer+0x4c>
    }
    else
    {
        /* A stream of bytes is being received (as opposed to a discrete
         * message), so read as many bytes as possible. */
        xNextMessageLength = xBufferLengthBytes;
 8001cfc:	687b      	ldr	r3, [r7, #4]
 8001cfe:	61fb      	str	r3, [r7, #28]
    }

    /* Use the minimum of the wanted bytes and the available bytes. */
    xCount = configMIN( xNextMessageLength, xBytesAvailable );
 8001d00:	683a      	ldr	r2, [r7, #0]
 8001d02:	69fb      	ldr	r3, [r7, #28]
 8001d04:	4293      	cmp	r3, r2
 8001d06:	bf28      	it	cs
 8001d08:	4613      	movcs	r3, r2
 8001d0a:	617b      	str	r3, [r7, #20]

    if( xCount != ( size_t ) 0 )
 8001d0c:	697b      	ldr	r3, [r7, #20]
 8001d0e:	2b00      	cmp	r3, #0
 8001d10:	d008      	beq.n	8001d24 <prvReadMessageFromBuffer+0x70>
    {
        /* Read the actual data and update the tail to mark the data as officially consumed. */
        /* MISRA Ref 11.5.5 [Void pointer assignment] */
        /* More details at: https://github.com/FreeRTOS/FreeRTOS-Kernel/blob/main/MISRA.md#rule-115 */
        /* coverity[misra_c_2012_rule_11_5_violation] */
        pxStreamBuffer->xTail = prvReadBytesFromBuffer( pxStreamBuffer, ( uint8_t * ) pvRxData, xCount, xNextTail );
 8001d12:	69bb      	ldr	r3, [r7, #24]
 8001d14:	697a      	ldr	r2, [r7, #20]
 8001d16:	68b9      	ldr	r1, [r7, #8]
 8001d18:	68f8      	ldr	r0, [r7, #12]
 8001d1a:	f000 f8ef 	bl	8001efc <prvReadBytesFromBuffer>
 8001d1e:	4602      	mov	r2, r0
 8001d20:	68fb      	ldr	r3, [r7, #12]
 8001d22:	601a      	str	r2, [r3, #0]
    }

    return xCount;
 8001d24:	697b      	ldr	r3, [r7, #20]
}
 8001d26:	4618      	mov	r0, r3
 8001d28:	3720      	adds	r7, #32
 8001d2a:	46bd      	mov	sp, r7
 8001d2c:	bd80      	pop	{r7, pc}

08001d2e <xStreamBufferIsEmpty>:
/*-----------------------------------------------------------*/

BaseType_t xStreamBufferIsEmpty( StreamBufferHandle_t xStreamBuffer )
{
 8001d2e:	b480      	push	{r7}
 8001d30:	b087      	sub	sp, #28
 8001d32:	af00      	add	r7, sp, #0
 8001d34:	6078      	str	r0, [r7, #4]
    const StreamBuffer_t * const pxStreamBuffer = xStreamBuffer;
 8001d36:	687b      	ldr	r3, [r7, #4]
 8001d38:	613b      	str	r3, [r7, #16]
    traceENTER_xStreamBufferIsEmpty( xStreamBuffer );

    configASSERT( pxStreamBuffer );

    /* True if no bytes are available. */
    xTail = pxStreamBuffer->xTail;
 8001d3a:	693b      	ldr	r3, [r7, #16]
 8001d3c:	681b      	ldr	r3, [r3, #0]
 8001d3e:	60fb      	str	r3, [r7, #12]

    if( pxStreamBuffer->xHead == xTail )
 8001d40:	693b      	ldr	r3, [r7, #16]
 8001d42:	685b      	ldr	r3, [r3, #4]
 8001d44:	68fa      	ldr	r2, [r7, #12]
 8001d46:	429a      	cmp	r2, r3
 8001d48:	d102      	bne.n	8001d50 <xStreamBufferIsEmpty+0x22>
    {
        xReturn = pdTRUE;
 8001d4a:	2301      	movs	r3, #1
 8001d4c:	617b      	str	r3, [r7, #20]
 8001d4e:	e001      	b.n	8001d54 <xStreamBufferIsEmpty+0x26>
    }
    else
    {
        xReturn = pdFALSE;
 8001d50:	2300      	movs	r3, #0
 8001d52:	617b      	str	r3, [r7, #20]
    }

    traceRETURN_xStreamBufferIsEmpty( xReturn );

    return xReturn;
 8001d54:	697b      	ldr	r3, [r7, #20]
}
 8001d56:	4618      	mov	r0, r3
 8001d58:	371c      	adds	r7, #28
 8001d5a:	46bd      	mov	sp, r7
 8001d5c:	f85d 7b04 	ldr.w	r7, [sp], #4
 8001d60:	4770      	bx	lr

08001d62 <xStreamBufferIsFull>:
/*-----------------------------------------------------------*/

BaseType_t xStreamBufferIsFull( StreamBufferHandle_t xStreamBuffer )
{
 8001d62:	b580      	push	{r7, lr}
 8001d64:	b086      	sub	sp, #24
 8001d66:	af00      	add	r7, sp, #0
 8001d68:	6078      	str	r0, [r7, #4]
    BaseType_t xReturn;
    size_t xBytesToStoreMessageLength;
    const StreamBuffer_t * const pxStreamBuffer = xStreamBuffer;
 8001d6a:	687b      	ldr	r3, [r7, #4]
 8001d6c:	60fb      	str	r3, [r7, #12]

    /* This generic version of the receive function is used by both message
     * buffers, which store discrete messages, and stream buffers, which store a
     * continuous stream of bytes.  Discrete messages include an additional
     * sbBYTES_TO_STORE_MESSAGE_LENGTH bytes that hold the length of the message. */
    if( ( pxStreamBuffer->ucFlags & sbFLAGS_IS_MESSAGE_BUFFER ) != ( uint8_t ) 0 )
 8001d6e:	68fb      	ldr	r3, [r7, #12]
 8001d70:	7f1b      	ldrb	r3, [r3, #28]
 8001d72:	f003 0301 	and.w	r3, r3, #1
 8001d76:	2b00      	cmp	r3, #0
 8001d78:	d002      	beq.n	8001d80 <xStreamBufferIsFull+0x1e>
    {
        xBytesToStoreMessageLength = sbBYTES_TO_STORE_MESSAGE_LENGTH;
 8001d7a:	2304      	movs	r3, #4
 8001d7c:	613b      	str	r3, [r7, #16]
 8001d7e:	e001      	b.n	8001d84 <xStreamBufferIsFull+0x22>
    }
    else
    {
        xBytesToStoreMessageLength = 0;
 8001d80:	2300      	movs	r3, #0
 8001d82:	613b      	str	r3, [r7, #16]
    }

    /* True if the available space equals zero. */
    if( xStreamBufferSpacesAvailable( xStreamBuffer ) <= xBytesToStoreMessageLength )
 8001d84:	6878      	ldr	r0, [r7, #4]
 8001d86:	f7ff fd3a 	bl	80017fe <xStreamBufferSpacesAvailable>
 8001d8a:	4602      	mov	r2, r0
 8001d8c:	693b      	ldr	r3, [r7, #16]
 8001d8e:	4293      	cmp	r3, r2
 8001d90:	d302      	bcc.n	8001d98 <xStreamBufferIsFull+0x36>
    {
        xReturn = pdTRUE;
 8001d92:	2301      	movs	r3, #1
 8001d94:	617b      	str	r3, [r7, #20]
 8001d96:	e001      	b.n	8001d9c <xStreamBufferIsFull+0x3a>
    }
    else
    {
        xReturn = pdFALSE;
 8001d98:	2300      	movs	r3, #0
 8001d9a:	617b      	str	r3, [r7, #20]
    }

    traceRETURN_xStreamBufferIsFull( xReturn );

    return xReturn;
 8001d9c:	697b      	ldr	r3, [r7, #20]
}
 8001d9e:	4618      	mov	r0, r3
 8001da0:	3718      	adds	r7, #24
 8001da2:	46bd      	mov	sp, r7
 8001da4:	bd80      	pop	{r7, pc}

08001da6 <xStreamBufferSendCompletedFromISR>:
/*-----------------------------------------------------------*/

BaseType_t xStreamBufferSendCompletedFromISR( StreamBufferHandle_t xStreamBuffer,
                                              BaseType_t * pxHigherPriorityTaskWoken )
{
 8001da6:	b580      	push	{r7, lr}
 8001da8:	b08a      	sub	sp, #40	@ 0x28
 8001daa:	af02      	add	r7, sp, #8
 8001dac:	6078      	str	r0, [r7, #4]
 8001dae:	6039      	str	r1, [r7, #0]
    StreamBuffer_t * const pxStreamBuffer = xStreamBuffer;
 8001db0:	687b      	ldr	r3, [r7, #4]
 8001db2:	61bb      	str	r3, [r7, #24]
    __asm volatile
 8001db4:	f3ef 8211 	mrs	r2, BASEPRI
 8001db8:	f04f 0350 	mov.w	r3, #80	@ 0x50
 8001dbc:	f383 8811 	msr	BASEPRI, r3
 8001dc0:	f3bf 8f6f 	isb	sy
 8001dc4:	f3bf 8f4f 	dsb	sy
 8001dc8:	613a      	str	r2, [r7, #16]
 8001dca:	60fb      	str	r3, [r7, #12]
    return ulOriginalBASEPRI;
 8001dcc:	693b      	ldr	r3, [r7, #16]
    configASSERT( pxStreamBuffer );

    /* MISRA Ref 4.7.1 [Return value shall be checked] */
    /* More details at: https://github.com/FreeRTOS/FreeRTOS-Kernel/blob/main/MISRA.md#dir-47 */
    /* coverity[misra_c_2012_directive_4_7_violation] */
    uxSavedInterruptStatus = taskENTER_CRITICAL_FROM_ISR();
 8001dce:	617b      	str	r3, [r7, #20]
    {
        if( ( pxStreamBuffer )->xTaskWaitingToReceive != NULL )
 8001dd0:	69bb      	ldr	r3, [r7, #24]
 8001dd2:	691b      	ldr	r3, [r3, #16]
 8001dd4:	2b00      	cmp	r3, #0
 8001dd6:	d011      	beq.n	8001dfc <xStreamBufferSendCompletedFromISR+0x56>
        {
            ( void ) xTaskNotifyIndexedFromISR( ( pxStreamBuffer )->xTaskWaitingToReceive,
 8001dd8:	69bb      	ldr	r3, [r7, #24]
 8001dda:	6918      	ldr	r0, [r3, #16]
 8001ddc:	69bb      	ldr	r3, [r7, #24]
 8001dde:	6a19      	ldr	r1, [r3, #32]
 8001de0:	683b      	ldr	r3, [r7, #0]
 8001de2:	9301      	str	r3, [sp, #4]
 8001de4:	2300      	movs	r3, #0
 8001de6:	9300      	str	r3, [sp, #0]
 8001de8:	2300      	movs	r3, #0
 8001dea:	2200      	movs	r2, #0
 8001dec:	f001 fff6 	bl	8003ddc <xTaskGenericNotifyFromISR>
                                                ( pxStreamBuffer )->uxNotificationIndex,
                                                ( uint32_t ) 0,
                                                eNoAction,
                                                pxHigherPriorityTaskWoken );
            ( pxStreamBuffer )->xTaskWaitingToReceive = NULL;
 8001df0:	69bb      	ldr	r3, [r7, #24]
 8001df2:	2200      	movs	r2, #0
 8001df4:	611a      	str	r2, [r3, #16]
            xReturn = pdTRUE;
 8001df6:	2301      	movs	r3, #1
 8001df8:	61fb      	str	r3, [r7, #28]
 8001dfa:	e001      	b.n	8001e00 <xStreamBufferSendCompletedFromISR+0x5a>
        }
        else
        {
            xReturn = pdFALSE;
 8001dfc:	2300      	movs	r3, #0
 8001dfe:	61fb      	str	r3, [r7, #28]
 8001e00:	697b      	ldr	r3, [r7, #20]
 8001e02:	60bb      	str	r3, [r7, #8]
    __asm volatile
 8001e04:	68bb      	ldr	r3, [r7, #8]
 8001e06:	f383 8811 	msr	BASEPRI, r3
}
 8001e0a:	bf00      	nop
    }
    taskEXIT_CRITICAL_FROM_ISR( uxSavedInterruptStatus );

    traceRETURN_xStreamBufferSendCompletedFromISR( xReturn );

    return xReturn;
 8001e0c:	69fb      	ldr	r3, [r7, #28]
}
 8001e0e:	4618      	mov	r0, r3
 8001e10:	3720      	adds	r7, #32
 8001e12:	46bd      	mov	sp, r7
 8001e14:	bd80      	pop	{r7, pc}

08001e16 <xStreamBufferReceiveCompletedFromISR>:
/*-----------------------------------------------------------*/

BaseType_t xStreamBufferReceiveCompletedFromISR( StreamBufferHandle_t xStreamBuffer,
                                                 BaseType_t * pxHigherPriorityTaskWoken )
{
 8001e16:	b580      	push	{r7, lr}
 8001e18:	b08a      	sub	sp, #40	@ 0x28
 8001e1a:	af02      	add	r7, sp, #8
 8001e1c:	6078      	str	r0, [r7, #4]
 8001e1e:	6039      	str	r1, [r7, #0]
    StreamBuffer_t * const pxStreamBuffer = xStreamBuffer;
 8001e20:	687b      	ldr	r3, [r7, #4]
 8001e22:	61bb      	str	r3, [r7, #24]
    __asm volatile
 8001e24:	f3ef 8211 	mrs	r2, BASEPRI
 8001e28:	f04f 0350 	mov.w	r3, #80	@ 0x50
 8001e2c:	f383 8811 	msr	BASEPRI, r3
 8001e30:	f3bf 8f6f 	isb	sy
 8001e34:	f3bf 8f4f 	dsb	sy
 8001e38:	613a      	str	r2, [r7, #16]
 8001e3a:	60fb      	str	r3, [r7, #12]
    return ulOriginalBASEPRI;
 8001e3c:	693b      	ldr	r3, [r7, #16]
    configASSERT( pxStreamBuffer );

    /* MISRA Ref 4.7.1 [Return value shall be checked] */
    /* More details at: https://github.com/FreeRTOS/FreeRTOS-Kernel/blob/main/MISRA.md#dir-47 */
    /* coverity[misra_c_2012_directive_4_7_violation] */
    uxSavedInterruptStatus = taskENTER_CRITICAL_FROM_ISR();
 8001e3e:	617b      	str	r3, [r7, #20]
    {
        if( ( pxStreamBuffer )->xTaskWaitingToSend != NULL )
 8001e40:	69bb      	ldr	r3, [r7, #24]
 8001e42:	695b      	ldr	r3, [r3, #20]
 8001e44:	2b00      	cmp	r3, #0
 8001e46:	d011      	beq.n	8001e6c <xStreamBufferReceiveCompletedFromISR+0x56>
        {
            ( void ) xTaskNotifyIndexedFromISR( ( pxStreamBuffer )->xTaskWaitingToSend,
 8001e48:	69bb      	ldr	r3, [r7, #24]
 8001e4a:	6958      	ldr	r0, [r3, #20]
 8001e4c:	69bb      	ldr	r3, [r7, #24]
 8001e4e:	6a19      	ldr	r1, [r3, #32]
 8001e50:	683b      	ldr	r3, [r7, #0]
 8001e52:	9301      	str	r3, [sp, #4]
 8001e54:	2300      	movs	r3, #0
 8001e56:	9300      	str	r3, [sp, #0]
 8001e58:	2300      	movs	r3, #0
 8001e5a:	2200      	movs	r2, #0
 8001e5c:	f001 ffbe 	bl	8003ddc <xTaskGenericNotifyFromISR>
                                                ( pxStreamBuffer )->uxNotificationIndex,
                                                ( uint32_t ) 0,
                                                eNoAction,
                                                pxHigherPriorityTaskWoken );
            ( pxStreamBuffer )->xTaskWaitingToSend = NULL;
 8001e60:	69bb      	ldr	r3, [r7, #24]
 8001e62:	2200      	movs	r2, #0
 8001e64:	615a      	str	r2, [r3, #20]
            xReturn = pdTRUE;
 8001e66:	2301      	movs	r3, #1
 8001e68:	61fb      	str	r3, [r7, #28]
 8001e6a:	e001      	b.n	8001e70 <xStreamBufferReceiveCompletedFromISR+0x5a>
        }
        else
        {
            xReturn = pdFALSE;
 8001e6c:	2300      	movs	r3, #0
 8001e6e:	61fb      	str	r3, [r7, #28]
 8001e70:	697b      	ldr	r3, [r7, #20]
 8001e72:	60bb      	str	r3, [r7, #8]
    __asm volatile
 8001e74:	68bb      	ldr	r3, [r7, #8]
 8001e76:	f383 8811 	msr	BASEPRI, r3
}
 8001e7a:	bf00      	nop
    }
    taskEXIT_CRITICAL_FROM_ISR( uxSavedInterruptStatus );

    traceRETURN_xStreamBufferReceiveCompletedFromISR( xReturn );

    return xReturn;
 8001e7c:	69fb      	ldr	r3, [r7, #28]
}
 8001e7e:	4618      	mov	r0, r3
 8001e80:	3720      	adds	r7, #32
 8001e82:	46bd      	mov	sp, r7
 8001e84:	bd80      	pop	{r7, pc}

08001e86 <prvWriteBytesToBuffer>:

static size_t prvWriteBytesToBuffer( StreamBuffer_t * const pxStreamBuffer,
                                     const uint8_t * pucData,
                                     size_t xCount,
                                     size_t xHead )
{
 8001e86:	b580      	push	{r7, lr}
 8001e88:	b086      	sub	sp, #24
 8001e8a:	af00      	add	r7, sp, #0
 8001e8c:	60f8      	str	r0, [r7, #12]
 8001e8e:	60b9      	str	r1, [r7, #8]
 8001e90:	607a      	str	r2, [r7, #4]
 8001e92:	603b      	str	r3, [r7, #0]
    configASSERT( xCount > ( size_t ) 0 );

    /* Calculate the number of bytes that can be added in the first write -
     * which may be less than the total number of bytes that need to be added if
     * the buffer will wrap back to the beginning. */
    xFirstLength = configMIN( pxStreamBuffer->xLength - xHead, xCount );
 8001e94:	68fb      	ldr	r3, [r7, #12]
 8001e96:	689a      	ldr	r2, [r3, #8]
 8001e98:	683b      	ldr	r3, [r7, #0]
 8001e9a:	1ad3      	subs	r3, r2, r3
 8001e9c:	687a      	ldr	r2, [r7, #4]
 8001e9e:	4293      	cmp	r3, r2
 8001ea0:	bf28      	it	cs
 8001ea2:	4613      	movcs	r3, r2
 8001ea4:	617b      	str	r3, [r7, #20]

    /* Write as many bytes as can be written in the first write. */
    configASSERT( ( xHead + xFirstLength ) <= pxStreamBuffer->xLength );
    ( void ) memcpy( ( void * ) ( &( pxStreamBuffer->pucBuffer[ xHead ] ) ), ( const void * ) pucData, xFirstLength );
 8001ea6:	68fb      	ldr	r3, [r7, #12]
 8001ea8:	699a      	ldr	r2, [r3, #24]
 8001eaa:	683b      	ldr	r3, [r7, #0]
 8001eac:	4413      	add	r3, r2
 8001eae:	697a      	ldr	r2, [r7, #20]
 8001eb0:	68b9      	ldr	r1, [r7, #8]
 8001eb2:	4618      	mov	r0, r3
 8001eb4:	f7fe f942 	bl	800013c <memcpy>

    /* If the number of bytes written was less than the number that could be
     * written in the first write... */
    if( xCount > xFirstLength )
 8001eb8:	687a      	ldr	r2, [r7, #4]
 8001eba:	697b      	ldr	r3, [r7, #20]
 8001ebc:	429a      	cmp	r2, r3
 8001ebe:	d90a      	bls.n	8001ed6 <prvWriteBytesToBuffer+0x50>
    {
        /* ...then write the remaining bytes to the start of the buffer. */
        configASSERT( ( xCount - xFirstLength ) <= pxStreamBuffer->xLength );
        ( void ) memcpy( ( void * ) pxStreamBuffer->pucBuffer, ( const void * ) &( pucData[ xFirstLength ] ), xCount - xFirstLength );
 8001ec0:	68fb      	ldr	r3, [r7, #12]
 8001ec2:	6998      	ldr	r0, [r3, #24]
 8001ec4:	68ba      	ldr	r2, [r7, #8]
 8001ec6:	697b      	ldr	r3, [r7, #20]
 8001ec8:	18d1      	adds	r1, r2, r3
 8001eca:	687a      	ldr	r2, [r7, #4]
 8001ecc:	697b      	ldr	r3, [r7, #20]
 8001ece:	1ad3      	subs	r3, r2, r3
 8001ed0:	461a      	mov	r2, r3
 8001ed2:	f7fe f933 	bl	800013c <memcpy>
    else
    {
        mtCOVERAGE_TEST_MARKER();
    }

    xHead += xCount;
 8001ed6:	683a      	ldr	r2, [r7, #0]
 8001ed8:	687b      	ldr	r3, [r7, #4]
 8001eda:	4413      	add	r3, r2
 8001edc:	603b      	str	r3, [r7, #0]

    if( xHead >= pxStreamBuffer->xLength )
 8001ede:	68fb      	ldr	r3, [r7, #12]
 8001ee0:	689b      	ldr	r3, [r3, #8]
 8001ee2:	683a      	ldr	r2, [r7, #0]
 8001ee4:	429a      	cmp	r2, r3
 8001ee6:	d304      	bcc.n	8001ef2 <prvWriteBytesToBuffer+0x6c>
    {
        xHead -= pxStreamBuffer->xLength;
 8001ee8:	68fb      	ldr	r3, [r7, #12]
 8001eea:	689b      	ldr	r3, [r3, #8]
 8001eec:	683a      	ldr	r2, [r7, #0]
 8001eee:	1ad3      	subs	r3, r2, r3
 8001ef0:	603b      	str	r3, [r7, #0]
    else
    {
        mtCOVERAGE_TEST_MARKER();
    }

    return xHead;
 8001ef2:	683b      	ldr	r3, [r7, #0]
}
 8001ef4:	4618      	mov	r0, r3
 8001ef6:	3718      	adds	r7, #24
 8001ef8:	46bd      	mov	sp, r7
 8001efa:	bd80      	pop	{r7, pc}

08001efc <prvReadBytesFromBuffer>:

static size_t prvReadBytesFromBuffer( StreamBuffer_t * pxStreamBuffer,
                                      uint8_t * pucData,
                                      size_t xCount,
                                      size_t xTail )
{
 8001efc:	b580      	push	{r7, lr}
 8001efe:	b086      	sub	sp, #24
 8001f00:	af00      	add	r7, sp, #0
 8001f02:	60f8      	str	r0, [r7, #12]
 8001f04:	60b9      	str	r1, [r7, #8]
 8001f06:	607a      	str	r2, [r7, #4]
 8001f08:	603b      	str	r3, [r7, #0]
    configASSERT( xCount != ( size_t ) 0 );

    /* Calculate the number of bytes that can be read - which may be
     * less than the number wanted if the data wraps around to the start of
     * the buffer. */
    xFirstLength = configMIN( pxStreamBuffer->xLength - xTail, xCount );
 8001f0a:	68fb      	ldr	r3, [r7, #12]
 8001f0c:	689a      	ldr	r2, [r3, #8]
 8001f0e:	683b      	ldr	r3, [r7, #0]
 8001f10:	1ad3      	subs	r3, r2, r3
 8001f12:	687a      	ldr	r2, [r7, #4]
 8001f14:	4293      	cmp	r3, r2
 8001f16:	bf28      	it	cs
 8001f18:	4613      	movcs	r3, r2
 8001f1a:	617b      	str	r3, [r7, #20]

    /* Obtain the number of bytes it is possible to obtain in the first
     * read.  Asserts check bounds of read and write. */
    configASSERT( xFirstLength <= xCount );
    configASSERT( ( xTail + xFirstLength ) <= pxStreamBuffer->xLength );
    ( void ) memcpy( ( void * ) pucData, ( const void * ) &( pxStreamBuffer->pucBuffer[ xTail ] ), xFirstLength );
 8001f1c:	68fb      	ldr	r3, [r7, #12]
 8001f1e:	699a      	ldr	r2, [r3, #24]
 8001f20:	683b      	ldr	r3, [r7, #0]
 8001f22:	4413      	add	r3, r2
 8001f24:	697a      	ldr	r2, [r7, #20]
 8001f26:	4619      	mov	r1, r3
 8001f28:	68b8      	ldr	r0, [r7, #8]
 8001f2a:	f7fe f907 	bl	800013c <memcpy>

    /* If the total number of wanted bytes is greater than the number
     * that could be read in the first read... */
    if( xCount > xFirstLength )
 8001f2e:	687a      	ldr	r2, [r7, #4]
 8001f30:	697b      	ldr	r3, [r7, #20]
 8001f32:	429a      	cmp	r2, r3
 8001f34:	d90a      	bls.n	8001f4c <prvReadBytesFromBuffer+0x50>
    {
        /* ...then read the remaining bytes from the start of the buffer. */
        ( void ) memcpy( ( void * ) &( pucData[ xFirstLength ] ), ( void * ) ( pxStreamBuffer->pucBuffer ), xCount - xFirstLength );
 8001f36:	68ba      	ldr	r2, [r7, #8]
 8001f38:	697b      	ldr	r3, [r7, #20]
 8001f3a:	18d0      	adds	r0, r2, r3
 8001f3c:	68fb      	ldr	r3, [r7, #12]
 8001f3e:	6999      	ldr	r1, [r3, #24]
 8001f40:	687a      	ldr	r2, [r7, #4]
 8001f42:	697b      	ldr	r3, [r7, #20]
 8001f44:	1ad3      	subs	r3, r2, r3
 8001f46:	461a      	mov	r2, r3
 8001f48:	f7fe f8f8 	bl	800013c <memcpy>
    {
        mtCOVERAGE_TEST_MARKER();
    }

    /* Move the tail pointer to effectively remove the data read from the buffer. */
    xTail += xCount;
 8001f4c:	683a      	ldr	r2, [r7, #0]
 8001f4e:	687b      	ldr	r3, [r7, #4]
 8001f50:	4413      	add	r3, r2
 8001f52:	603b      	str	r3, [r7, #0]

    if( xTail >= pxStreamBuffer->xLength )
 8001f54:	68fb      	ldr	r3, [r7, #12]
 8001f56:	689b      	ldr	r3, [r3, #8]
 8001f58:	683a      	ldr	r2, [r7, #0]
 8001f5a:	429a      	cmp	r2, r3
 8001f5c:	d304      	bcc.n	8001f68 <prvReadBytesFromBuffer+0x6c>
    {
        xTail -= pxStreamBuffer->xLength;
 8001f5e:	68fb      	ldr	r3, [r7, #12]
 8001f60:	689b      	ldr	r3, [r3, #8]
 8001f62:	683a      	ldr	r2, [r7, #0]
 8001f64:	1ad3      	subs	r3, r2, r3
 8001f66:	603b      	str	r3, [r7, #0]
    }

    return xTail;
 8001f68:	683b      	ldr	r3, [r7, #0]
}
 8001f6a:	4618      	mov	r0, r3
 8001f6c:	3718      	adds	r7, #24
 8001f6e:	46bd      	mov	sp, r7
 8001f70:	bd80      	pop	{r7, pc}

08001f72 <prvBytesInBuffer>:
/*-----------------------------------------------------------*/

static size_t prvBytesInBuffer( const StreamBuffer_t * const pxStreamBuffer )
{
 8001f72:	b480      	push	{r7}
 8001f74:	b085      	sub	sp, #20
 8001f76:	af00      	add	r7, sp, #0
 8001f78:	6078      	str	r0, [r7, #4]
    /* Returns the distance between xTail and xHead. */
    size_t xCount;

    xCount = pxStreamBuffer->xLength + pxStreamBuffer->xHead;
 8001f7a:	687b      	ldr	r3, [r7, #4]
 8001f7c:	689a      	ldr	r2, [r3, #8]
 8001f7e:	687b      	ldr	r3, [r7, #4]
 8001f80:	685b      	ldr	r3, [r3, #4]
 8001f82:	4413      	add	r3, r2
 8001f84:	60fb      	str	r3, [r7, #12]
    xCount -= pxStreamBuffer->xTail;
 8001f86:	687b      	ldr	r3, [r7, #4]
 8001f88:	681b      	ldr	r3, [r3, #0]
 8001f8a:	68fa      	ldr	r2, [r7, #12]
 8001f8c:	1ad3      	subs	r3, r2, r3
 8001f8e:	60fb      	str	r3, [r7, #12]

    if( xCount >= pxStreamBuffer->xLength )
 8001f90:	687b      	ldr	r3, [r7, #4]
 8001f92:	689b      	ldr	r3, [r3, #8]
 8001f94:	68fa      	ldr	r2, [r7, #12]
 8001f96:	429a      	cmp	r2, r3
 8001f98:	d304      	bcc.n	8001fa4 <prvBytesInBuffer+0x32>
    {
        xCount -= pxStreamBuffer->xLength;
 8001f9a:	687b      	ldr	r3, [r7, #4]
 8001f9c:	689b      	ldr	r3, [r3, #8]
 8001f9e:	68fa      	ldr	r2, [r7, #12]
 8001fa0:	1ad3      	subs	r3, r2, r3
 8001fa2:	60fb      	str	r3, [r7, #12]
    else
    {
        mtCOVERAGE_TEST_MARKER();
    }

    return xCount;
 8001fa4:	68fb      	ldr	r3, [r7, #12]
}
 8001fa6:	4618      	mov	r0, r3
 8001fa8:	3714      	adds	r7, #20
 8001faa:	46bd      	mov	sp, r7
 8001fac:	f85d 7b04 	ldr.w	r7, [sp], #4
 8001fb0:	4770      	bx	lr

08001fb2 <prvInitialiseNewStreamBuffer>:
                                          size_t xBufferSizeBytes,
                                          size_t xTriggerLevelBytes,
                                          uint8_t ucFlags,
                                          StreamBufferCallbackFunction_t pxSendCompletedCallback,
                                          StreamBufferCallbackFunction_t pxReceiveCompletedCallback )
{
 8001fb2:	b580      	push	{r7, lr}
 8001fb4:	b084      	sub	sp, #16
 8001fb6:	af00      	add	r7, sp, #0
 8001fb8:	60f8      	str	r0, [r7, #12]
 8001fba:	60b9      	str	r1, [r7, #8]
 8001fbc:	607a      	str	r2, [r7, #4]
 8001fbe:	603b      	str	r3, [r7, #0]
        #define STREAM_BUFFER_BUFFER_WRITE_VALUE    ( 0x55 )
        configASSERT( memset( pucBuffer, ( int ) STREAM_BUFFER_BUFFER_WRITE_VALUE, xBufferSizeBytes ) == pucBuffer );
    }
    #endif

    ( void ) memset( ( void * ) pxStreamBuffer, 0x00, sizeof( StreamBuffer_t ) );
 8001fc0:	2224      	movs	r2, #36	@ 0x24
 8001fc2:	2100      	movs	r1, #0
 8001fc4:	68f8      	ldr	r0, [r7, #12]
 8001fc6:	f7fe f8d8 	bl	800017a <memset>
    pxStreamBuffer->pucBuffer = pucBuffer;
 8001fca:	68fb      	ldr	r3, [r7, #12]
 8001fcc:	68ba      	ldr	r2, [r7, #8]
 8001fce:	619a      	str	r2, [r3, #24]
    pxStreamBuffer->xLength = xBufferSizeBytes;
 8001fd0:	68fb      	ldr	r3, [r7, #12]
 8001fd2:	687a      	ldr	r2, [r7, #4]
 8001fd4:	609a      	str	r2, [r3, #8]
    pxStreamBuffer->xTriggerLevelBytes = xTriggerLevelBytes;
 8001fd6:	68fb      	ldr	r3, [r7, #12]
 8001fd8:	683a      	ldr	r2, [r7, #0]
 8001fda:	60da      	str	r2, [r3, #12]
    pxStreamBuffer->ucFlags = ucFlags;
 8001fdc:	68fb      	ldr	r3, [r7, #12]
 8001fde:	7e3a      	ldrb	r2, [r7, #24]
 8001fe0:	771a      	strb	r2, [r3, #28]
    pxStreamBuffer->uxNotificationIndex = tskDEFAULT_INDEX_TO_NOTIFY;
 8001fe2:	68fb      	ldr	r3, [r7, #12]
 8001fe4:	2200      	movs	r2, #0
 8001fe6:	621a      	str	r2, [r3, #32]
        /* More details at: https://github.com/FreeRTOS/FreeRTOS-Kernel/blob/main/MISRA.md#rule-111 */
        /* coverity[misra_c_2012_rule_11_1_violation] */
        ( void ) pxReceiveCompletedCallback;
    }
    #endif /* if ( configUSE_SB_COMPLETED_CALLBACK == 1 ) */
}
 8001fe8:	bf00      	nop
 8001fea:	3710      	adds	r7, #16
 8001fec:	46bd      	mov	sp, r7
 8001fee:	bd80      	pop	{r7, pc}

08001ff0 <uxStreamBufferGetStreamBufferNotificationIndex>:
/*-----------------------------------------------------------*/

UBaseType_t uxStreamBufferGetStreamBufferNotificationIndex( StreamBufferHandle_t xStreamBuffer )
{
 8001ff0:	b480      	push	{r7}
 8001ff2:	b085      	sub	sp, #20
 8001ff4:	af00      	add	r7, sp, #0
 8001ff6:	6078      	str	r0, [r7, #4]
    StreamBuffer_t * const pxStreamBuffer = xStreamBuffer;
 8001ff8:	687b      	ldr	r3, [r7, #4]
 8001ffa:	60fb      	str	r3, [r7, #12]

    configASSERT( pxStreamBuffer );

    traceRETURN_uxStreamBufferGetStreamBufferNotificationIndex( pxStreamBuffer->uxNotificationIndex );

    return pxStreamBuffer->uxNotificationIndex;
 8001ffc:	68fb      	ldr	r3, [r7, #12]
 8001ffe:	6a1b      	ldr	r3, [r3, #32]
}
 8002000:	4618      	mov	r0, r3
 8002002:	3714      	adds	r7, #20
 8002004:	46bd      	mov	sp, r7
 8002006:	f85d 7b04 	ldr.w	r7, [sp], #4
 800200a:	4770      	bx	lr

0800200c <vStreamBufferSetStreamBufferNotificationIndex>:
/*-----------------------------------------------------------*/

void vStreamBufferSetStreamBufferNotificationIndex( StreamBufferHandle_t xStreamBuffer,
                                                    UBaseType_t uxNotificationIndex )
{
 800200c:	b480      	push	{r7}
 800200e:	b085      	sub	sp, #20
 8002010:	af00      	add	r7, sp, #0
 8002012:	6078      	str	r0, [r7, #4]
 8002014:	6039      	str	r1, [r7, #0]
    StreamBuffer_t * const pxStreamBuffer = xStreamBuffer;
 8002016:	687b      	ldr	r3, [r7, #4]
 8002018:	60fb      	str	r3, [r7, #12]
    configASSERT( pxStreamBuffer->xTaskWaitingToSend == NULL );

    /* Check that the task notification index is valid. */
    configASSERT( uxNotificationIndex < configTASK_NOTIFICATION_ARRAY_ENTRIES );

    pxStreamBuffer->uxNotificationIndex = uxNotificationIndex;
 800201a:	68fb      	ldr	r3, [r7, #12]
 800201c:	683a      	ldr	r2, [r7, #0]
 800201e:	621a      	str	r2, [r3, #32]

    traceRETURN_vStreamBufferSetStreamBufferNotificationIndex();
}
 8002020:	bf00      	nop
 8002022:	3714      	adds	r7, #20
 8002024:	46bd      	mov	sp, r7
 8002026:	f85d 7b04 	ldr.w	r7, [sp], #4
 800202a:	4770      	bx	lr

0800202c <prvCreateTask>:
                                  const char * const pcName,
                                  const configSTACK_DEPTH_TYPE uxStackDepth,
                                  void * const pvParameters,
                                  UBaseType_t uxPriority,
                                  TaskHandle_t * const pxCreatedTask )
    {
 800202c:	b580      	push	{r7, lr}
 800202e:	b08a      	sub	sp, #40	@ 0x28
 8002030:	af04      	add	r7, sp, #16
 8002032:	60f8      	str	r0, [r7, #12]
 8002034:	60b9      	str	r1, [r7, #8]
 8002036:	607a      	str	r2, [r7, #4]
 8002038:	603b      	str	r3, [r7, #0]

            /* Allocate space for the stack used by the task being created. */
            /* MISRA Ref 11.5.1 [Malloc memory assignment] */
            /* More details at: https://github.com/FreeRTOS/FreeRTOS-Kernel/blob/main/MISRA.md#rule-115 */
            /* coverity[misra_c_2012_rule_11_5_violation] */
            pxStack = pvPortMallocStack( ( ( ( size_t ) uxStackDepth ) * sizeof( StackType_t ) ) );
 800203a:	687b      	ldr	r3, [r7, #4]
 800203c:	009b      	lsls	r3, r3, #2
 800203e:	4618      	mov	r0, r3
 8002040:	f002 ff44 	bl	8004ecc <pvPortMalloc>
 8002044:	6138      	str	r0, [r7, #16]

            if( pxStack != NULL )
 8002046:	693b      	ldr	r3, [r7, #16]
 8002048:	2b00      	cmp	r3, #0
 800204a:	d013      	beq.n	8002074 <prvCreateTask+0x48>
            {
                /* Allocate space for the TCB. */
                /* MISRA Ref 11.5.1 [Malloc memory assignment] */
                /* More details at: https://github.com/FreeRTOS/FreeRTOS-Kernel/blob/main/MISRA.md#rule-115 */
                /* coverity[misra_c_2012_rule_11_5_violation] */
                pxNewTCB = ( TCB_t * ) pvPortMalloc( sizeof( TCB_t ) );
 800204c:	2054      	movs	r0, #84	@ 0x54
 800204e:	f002 ff3d 	bl	8004ecc <pvPortMalloc>
 8002052:	6178      	str	r0, [r7, #20]

                if( pxNewTCB != NULL )
 8002054:	697b      	ldr	r3, [r7, #20]
 8002056:	2b00      	cmp	r3, #0
 8002058:	d008      	beq.n	800206c <prvCreateTask+0x40>
                {
                    ( void ) memset( ( void * ) pxNewTCB, 0x00, sizeof( TCB_t ) );
 800205a:	2254      	movs	r2, #84	@ 0x54
 800205c:	2100      	movs	r1, #0
 800205e:	6978      	ldr	r0, [r7, #20]
 8002060:	f7fe f88b 	bl	800017a <memset>

                    /* Store the stack location in the TCB. */
                    pxNewTCB->pxStack = pxStack;
 8002064:	697b      	ldr	r3, [r7, #20]
 8002066:	693a      	ldr	r2, [r7, #16]
 8002068:	631a      	str	r2, [r3, #48]	@ 0x30
 800206a:	e005      	b.n	8002078 <prvCreateTask+0x4c>
                }
                else
                {
                    /* The stack cannot be used as the TCB was not created.  Free
                     * it again. */
                    vPortFreeStack( pxStack );
 800206c:	6938      	ldr	r0, [r7, #16]
 800206e:	f002 ffe5 	bl	800503c <vPortFree>
 8002072:	e001      	b.n	8002078 <prvCreateTask+0x4c>
                }
            }
            else
            {
                pxNewTCB = NULL;
 8002074:	2300      	movs	r3, #0
 8002076:	617b      	str	r3, [r7, #20]
            }
        }
        #endif /* portSTACK_GROWTH */

        if( pxNewTCB != NULL )
 8002078:	697b      	ldr	r3, [r7, #20]
 800207a:	2b00      	cmp	r3, #0
 800207c:	d00d      	beq.n	800209a <prvCreateTask+0x6e>
                 * task was created dynamically in case it is later deleted. */
                pxNewTCB->ucStaticallyAllocated = tskDYNAMICALLY_ALLOCATED_STACK_AND_TCB;
            }
            #endif /* tskSTATIC_AND_DYNAMIC_ALLOCATION_POSSIBLE */

            prvInitialiseNewTask( pxTaskCode, pcName, uxStackDepth, pvParameters, uxPriority, pxCreatedTask, pxNewTCB, NULL );
 800207e:	2300      	movs	r3, #0
 8002080:	9303      	str	r3, [sp, #12]
 8002082:	697b      	ldr	r3, [r7, #20]
 8002084:	9302      	str	r3, [sp, #8]
 8002086:	6a7b      	ldr	r3, [r7, #36]	@ 0x24
 8002088:	9301      	str	r3, [sp, #4]
 800208a:	6a3b      	ldr	r3, [r7, #32]
 800208c:	9300      	str	r3, [sp, #0]
 800208e:	683b      	ldr	r3, [r7, #0]
 8002090:	687a      	ldr	r2, [r7, #4]
 8002092:	68b9      	ldr	r1, [r7, #8]
 8002094:	68f8      	ldr	r0, [r7, #12]
 8002096:	f000 f828 	bl	80020ea <prvInitialiseNewTask>
        }

        return pxNewTCB;
 800209a:	697b      	ldr	r3, [r7, #20]
    }
 800209c:	4618      	mov	r0, r3
 800209e:	3718      	adds	r7, #24
 80020a0:	46bd      	mov	sp, r7
 80020a2:	bd80      	pop	{r7, pc}

080020a4 <xTaskCreate>:
                            const char * const pcName,
                            const configSTACK_DEPTH_TYPE uxStackDepth,
                            void * const pvParameters,
                            UBaseType_t uxPriority,
                            TaskHandle_t * const pxCreatedTask )
    {
 80020a4:	b580      	push	{r7, lr}
 80020a6:	b088      	sub	sp, #32
 80020a8:	af02      	add	r7, sp, #8
 80020aa:	60f8      	str	r0, [r7, #12]
 80020ac:	60b9      	str	r1, [r7, #8]
 80020ae:	607a      	str	r2, [r7, #4]
 80020b0:	603b      	str	r3, [r7, #0]
        TCB_t * pxNewTCB;
        BaseType_t xReturn;

        traceENTER_xTaskCreate( pxTaskCode, pcName, uxStackDepth, pvParameters, uxPriority, pxCreatedTask );

        pxNewTCB = prvCreateTask( pxTaskCode, pcName, uxStackDepth, pvParameters, uxPriority, pxCreatedTask );
 80020b2:	6a7b      	ldr	r3, [r7, #36]	@ 0x24
 80020b4:	9301      	str	r3, [sp, #4]
 80020b6:	6a3b      	ldr	r3, [r7, #32]
 80020b8:	9300      	str	r3, [sp, #0]
 80020ba:	683b      	ldr	r3, [r7, #0]
 80020bc:	687a      	ldr	r2, [r7, #4]
 80020be:	68b9      	ldr	r1, [r7, #8]
 80020c0:	68f8      	ldr	r0, [r7, #12]
 80020c2:	f7ff ffb3 	bl	800202c <prvCreateTask>
 80020c6:	6138      	str	r0, [r7, #16]

        if( pxNewTCB != NULL )
 80020c8:	693b      	ldr	r3, [r7, #16]
 80020ca:	2b00      	cmp	r3, #0
 80020cc:	d005      	beq.n	80020da <xTaskCreate+0x36>
                /* Set the task's affinity before scheduling it. */
                pxNewTCB->uxCoreAffinityMask = configTASK_DEFAULT_CORE_AFFINITY;
            }
            #endif

            prvAddNewTaskToReadyList( pxNewTCB );
 80020ce:	6938      	ldr	r0, [r7, #16]
 80020d0:	f000 f87b 	bl	80021ca <prvAddNewTaskToReadyList>
            xReturn = pdPASS;
 80020d4:	2301      	movs	r3, #1
 80020d6:	617b      	str	r3, [r7, #20]
 80020d8:	e002      	b.n	80020e0 <xTaskCreate+0x3c>
        }
        else
        {
            xReturn = errCOULD_NOT_ALLOCATE_REQUIRED_MEMORY;
 80020da:	f04f 33ff 	mov.w	r3, #4294967295
 80020de:	617b      	str	r3, [r7, #20]
        }

        traceRETURN_xTaskCreate( xReturn );

        return xReturn;
 80020e0:	697b      	ldr	r3, [r7, #20]
    }
 80020e2:	4618      	mov	r0, r3
 80020e4:	3718      	adds	r7, #24
 80020e6:	46bd      	mov	sp, r7
 80020e8:	bd80      	pop	{r7, pc}

080020ea <prvInitialiseNewTask>:
                                  void * const pvParameters,
                                  UBaseType_t uxPriority,
                                  TaskHandle_t * const pxCreatedTask,
                                  TCB_t * pxNewTCB,
                                  const MemoryRegion_t * const xRegions )
{
 80020ea:	b580      	push	{r7, lr}
 80020ec:	b086      	sub	sp, #24
 80020ee:	af00      	add	r7, sp, #0
 80020f0:	60f8      	str	r0, [r7, #12]
 80020f2:	60b9      	str	r1, [r7, #8]
 80020f4:	607a      	str	r2, [r7, #4]
 80020f6:	603b      	str	r3, [r7, #0]

    /* Avoid dependency on memset() if it is not required. */
    #if ( tskSET_NEW_STACKS_TO_KNOWN_VALUE == 1 )
    {
        /* Fill the stack with a known value to assist debugging. */
        ( void ) memset( pxNewTCB->pxStack, ( int ) tskSTACK_FILL_BYTE, ( size_t ) uxStackDepth * sizeof( StackType_t ) );
 80020f8:	6abb      	ldr	r3, [r7, #40]	@ 0x28
 80020fa:	6b18      	ldr	r0, [r3, #48]	@ 0x30
 80020fc:	687b      	ldr	r3, [r7, #4]
 80020fe:	009b      	lsls	r3, r3, #2
 8002100:	461a      	mov	r2, r3
 8002102:	21a5      	movs	r1, #165	@ 0xa5
 8002104:	f7fe f839 	bl	800017a <memset>
     * grows from high memory to low (as per the 80x86) or vice versa.
     * portSTACK_GROWTH is used to make the result positive or negative as required
     * by the port. */
    #if ( portSTACK_GROWTH < 0 )
    {
        pxTopOfStack = &( pxNewTCB->pxStack[ uxStackDepth - ( configSTACK_DEPTH_TYPE ) 1 ] );
 8002108:	6abb      	ldr	r3, [r7, #40]	@ 0x28
 800210a:	6b1a      	ldr	r2, [r3, #48]	@ 0x30
 800210c:	687b      	ldr	r3, [r7, #4]
 800210e:	f103 4380 	add.w	r3, r3, #1073741824	@ 0x40000000
 8002112:	3b01      	subs	r3, #1
 8002114:	009b      	lsls	r3, r3, #2
 8002116:	4413      	add	r3, r2
 8002118:	613b      	str	r3, [r7, #16]
        pxTopOfStack = ( StackType_t * ) ( ( ( portPOINTER_SIZE_TYPE ) pxTopOfStack ) & ( ~( ( portPOINTER_SIZE_TYPE ) portBYTE_ALIGNMENT_MASK ) ) );
 800211a:	693b      	ldr	r3, [r7, #16]
 800211c:	f023 0307 	bic.w	r3, r3, #7
 8002120:	613b      	str	r3, [r7, #16]
        pxNewTCB->pxEndOfStack = pxNewTCB->pxStack + ( uxStackDepth - ( configSTACK_DEPTH_TYPE ) 1 );
    }
    #endif /* portSTACK_GROWTH */

    /* Store the task name in the TCB. */
    if( pcName != NULL )
 8002122:	68bb      	ldr	r3, [r7, #8]
 8002124:	2b00      	cmp	r3, #0
 8002126:	d01e      	beq.n	8002166 <prvInitialiseNewTask+0x7c>
    {
        for( x = ( UBaseType_t ) 0; x < ( UBaseType_t ) configMAX_TASK_NAME_LEN; x++ )
 8002128:	2300      	movs	r3, #0
 800212a:	617b      	str	r3, [r7, #20]
 800212c:	e012      	b.n	8002154 <prvInitialiseNewTask+0x6a>
        {
            pxNewTCB->pcTaskName[ x ] = pcName[ x ];
 800212e:	68ba      	ldr	r2, [r7, #8]
 8002130:	697b      	ldr	r3, [r7, #20]
 8002132:	4413      	add	r3, r2
 8002134:	7819      	ldrb	r1, [r3, #0]
 8002136:	6aba      	ldr	r2, [r7, #40]	@ 0x28
 8002138:	697b      	ldr	r3, [r7, #20]
 800213a:	4413      	add	r3, r2
 800213c:	3334      	adds	r3, #52	@ 0x34
 800213e:	460a      	mov	r2, r1
 8002140:	701a      	strb	r2, [r3, #0]

            /* Don't copy all configMAX_TASK_NAME_LEN if the string is shorter than
             * configMAX_TASK_NAME_LEN characters just in case the memory after the
             * string is not accessible (extremely unlikely). */
            if( pcName[ x ] == ( char ) 0x00 )
 8002142:	68ba      	ldr	r2, [r7, #8]
 8002144:	697b      	ldr	r3, [r7, #20]
 8002146:	4413      	add	r3, r2
 8002148:	781b      	ldrb	r3, [r3, #0]
 800214a:	2b00      	cmp	r3, #0
 800214c:	d006      	beq.n	800215c <prvInitialiseNewTask+0x72>
        for( x = ( UBaseType_t ) 0; x < ( UBaseType_t ) configMAX_TASK_NAME_LEN; x++ )
 800214e:	697b      	ldr	r3, [r7, #20]
 8002150:	3301      	adds	r3, #1
 8002152:	617b      	str	r3, [r7, #20]
 8002154:	697b      	ldr	r3, [r7, #20]
 8002156:	2b0f      	cmp	r3, #15
 8002158:	d9e9      	bls.n	800212e <prvInitialiseNewTask+0x44>
 800215a:	e000      	b.n	800215e <prvInitialiseNewTask+0x74>
            {
                break;
 800215c:	bf00      	nop
            }
        }

        /* Ensure the name string is terminated in the case that the string length
         * was greater or equal to configMAX_TASK_NAME_LEN. */
        pxNewTCB->pcTaskName[ configMAX_TASK_NAME_LEN - 1U ] = '\0';
 800215e:	6abb      	ldr	r3, [r7, #40]	@ 0x28
 8002160:	2200      	movs	r2, #0
 8002162:	f883 2043 	strb.w	r2, [r3, #67]	@ 0x43
    }

    /* This is used as an array index so must ensure it's not too large. */
    configASSERT( uxPriority < configMAX_PRIORITIES );

    if( uxPriority >= ( UBaseType_t ) configMAX_PRIORITIES )
 8002166:	6a3b      	ldr	r3, [r7, #32]
 8002168:	2b04      	cmp	r3, #4
 800216a:	d901      	bls.n	8002170 <prvInitialiseNewTask+0x86>
    {
        uxPriority = ( UBaseType_t ) configMAX_PRIORITIES - ( UBaseType_t ) 1U;
 800216c:	2304      	movs	r3, #4
 800216e:	623b      	str	r3, [r7, #32]
    else
    {
        mtCOVERAGE_TEST_MARKER();
    }

    pxNewTCB->uxPriority = uxPriority;
 8002170:	6abb      	ldr	r3, [r7, #40]	@ 0x28
 8002172:	6a3a      	ldr	r2, [r7, #32]
 8002174:	62da      	str	r2, [r3, #44]	@ 0x2c
    #if ( configUSE_MUTEXES == 1 )
    {
        pxNewTCB->uxBasePriority = uxPriority;
 8002176:	6abb      	ldr	r3, [r7, #40]	@ 0x28
 8002178:	6a3a      	ldr	r2, [r7, #32]
 800217a:	645a      	str	r2, [r3, #68]	@ 0x44
    }
    #endif /* configUSE_MUTEXES */

    vListInitialiseItem( &( pxNewTCB->xStateListItem ) );
 800217c:	6abb      	ldr	r3, [r7, #40]	@ 0x28
 800217e:	3304      	adds	r3, #4
 8002180:	4618      	mov	r0, r3
 8002182:	f7fe fa59 	bl	8000638 <vListInitialiseItem>
    vListInitialiseItem( &( pxNewTCB->xEventListItem ) );
 8002186:	6abb      	ldr	r3, [r7, #40]	@ 0x28
 8002188:	3318      	adds	r3, #24
 800218a:	4618      	mov	r0, r3
 800218c:	f7fe fa54 	bl	8000638 <vListInitialiseItem>

    /* Set the pxNewTCB as a link back from the ListItem_t.  This is so we can get
     * back to  the containing TCB from a generic item in a list. */
    listSET_LIST_ITEM_OWNER( &( pxNewTCB->xStateListItem ), pxNewTCB );
 8002190:	6abb      	ldr	r3, [r7, #40]	@ 0x28
 8002192:	6aba      	ldr	r2, [r7, #40]	@ 0x28
 8002194:	611a      	str	r2, [r3, #16]

    /* Event lists are always in priority order. */
    listSET_LIST_ITEM_VALUE( &( pxNewTCB->xEventListItem ), ( TickType_t ) configMAX_PRIORITIES - ( TickType_t ) uxPriority );
 8002196:	6a3b      	ldr	r3, [r7, #32]
 8002198:	f1c3 0205 	rsb	r2, r3, #5
 800219c:	6abb      	ldr	r3, [r7, #40]	@ 0x28
 800219e:	619a      	str	r2, [r3, #24]
    listSET_LIST_ITEM_OWNER( &( pxNewTCB->xEventListItem ), pxNewTCB );
 80021a0:	6abb      	ldr	r3, [r7, #40]	@ 0x28
 80021a2:	6aba      	ldr	r2, [r7, #40]	@ 0x28
 80021a4:	625a      	str	r2, [r3, #36]	@ 0x24
            }
            #endif /* portSTACK_GROWTH */
        }
        #else /* portHAS_STACK_OVERFLOW_CHECKING */
        {
            pxNewTCB->pxTopOfStack = pxPortInitialiseStack( pxTopOfStack, pxTaskCode, pvParameters );
 80021a6:	683a      	ldr	r2, [r7, #0]
 80021a8:	68f9      	ldr	r1, [r7, #12]
 80021aa:	6938      	ldr	r0, [r7, #16]
 80021ac:	f002 fd2e 	bl	8004c0c <pxPortInitialiseStack>
 80021b0:	4602      	mov	r2, r0
 80021b2:	6abb      	ldr	r3, [r7, #40]	@ 0x28
 80021b4:	601a      	str	r2, [r3, #0]
            pxNewTCB->uxTaskAttributes |= taskATTRIBUTE_IS_IDLE;
        }
    }
    #endif /* #if ( configNUMBER_OF_CORES > 1 ) */

    if( pxCreatedTask != NULL )
 80021b6:	6a7b      	ldr	r3, [r7, #36]	@ 0x24
 80021b8:	2b00      	cmp	r3, #0
 80021ba:	d002      	beq.n	80021c2 <prvInitialiseNewTask+0xd8>
    {
        /* Pass the handle out in an anonymous way.  The handle can be used to
         * change the created task's priority, delete the created task, etc.*/
        *pxCreatedTask = ( TaskHandle_t ) pxNewTCB;
 80021bc:	6a7b      	ldr	r3, [r7, #36]	@ 0x24
 80021be:	6aba      	ldr	r2, [r7, #40]	@ 0x28
 80021c0:	601a      	str	r2, [r3, #0]
    }
    else
    {
        mtCOVERAGE_TEST_MARKER();
    }
}
 80021c2:	bf00      	nop
 80021c4:	3718      	adds	r7, #24
 80021c6:	46bd      	mov	sp, r7
 80021c8:	bd80      	pop	{r7, pc}

080021ca <prvAddNewTaskToReadyList>:
/*-----------------------------------------------------------*/

#if ( configNUMBER_OF_CORES == 1 )

    static void prvAddNewTaskToReadyList( TCB_t * pxNewTCB )
    {
 80021ca:	b580      	push	{r7, lr}
 80021cc:	b084      	sub	sp, #16
 80021ce:	af00      	add	r7, sp, #0
 80021d0:	6078      	str	r0, [r7, #4]
        /* Ensure interrupts don't access the task lists while the lists are being
         * updated. */
        taskENTER_CRITICAL();
 80021d2:	f002 fdcc 	bl	8004d6e <vPortEnterCritical>
        {
            uxCurrentNumberOfTasks = ( UBaseType_t ) ( uxCurrentNumberOfTasks + 1U );
 80021d6:	4b40      	ldr	r3, [pc, #256]	@ (80022d8 <prvAddNewTaskToReadyList+0x10e>)
 80021d8:	681b      	ldr	r3, [r3, #0]
 80021da:	3301      	adds	r3, #1
 80021dc:	4a3e      	ldr	r2, [pc, #248]	@ (80022d8 <prvAddNewTaskToReadyList+0x10e>)
 80021de:	6013      	str	r3, [r2, #0]

            if( pxCurrentTCB == NULL )
 80021e0:	4b3e      	ldr	r3, [pc, #248]	@ (80022dc <prvAddNewTaskToReadyList+0x112>)
 80021e2:	681b      	ldr	r3, [r3, #0]
 80021e4:	2b00      	cmp	r3, #0
 80021e6:	d109      	bne.n	80021fc <prvAddNewTaskToReadyList+0x32>
            {
                /* There are no other tasks, or all the other tasks are in
                 * the suspended state - make this the current task. */
                pxCurrentTCB = pxNewTCB;
 80021e8:	4a3c      	ldr	r2, [pc, #240]	@ (80022dc <prvAddNewTaskToReadyList+0x112>)
 80021ea:	687b      	ldr	r3, [r7, #4]
 80021ec:	6013      	str	r3, [r2, #0]

                if( uxCurrentNumberOfTasks == ( UBaseType_t ) 1 )
 80021ee:	4b3a      	ldr	r3, [pc, #232]	@ (80022d8 <prvAddNewTaskToReadyList+0x10e>)
 80021f0:	681b      	ldr	r3, [r3, #0]
 80021f2:	2b01      	cmp	r3, #1
 80021f4:	d110      	bne.n	8002218 <prvAddNewTaskToReadyList+0x4e>
                {
                    /* This is the first task to be created so do the preliminary
                     * initialisation required.  We will not recover if this call
                     * fails, but we will report the failure. */
                    prvInitialiseTaskLists();
 80021f6:	f001 f931 	bl	800345c <prvInitialiseTaskLists>
 80021fa:	e00d      	b.n	8002218 <prvAddNewTaskToReadyList+0x4e>
            else
            {
                /* If the scheduler is not already running, make this task the
                 * current task if it is the highest priority task to be created
                 * so far. */
                if( xSchedulerRunning == pdFALSE )
 80021fc:	4b38      	ldr	r3, [pc, #224]	@ (80022e0 <prvAddNewTaskToReadyList+0x116>)
 80021fe:	681b      	ldr	r3, [r3, #0]
 8002200:	2b00      	cmp	r3, #0
 8002202:	d109      	bne.n	8002218 <prvAddNewTaskToReadyList+0x4e>
                {
                    if( pxCurrentTCB->uxPriority <= pxNewTCB->uxPriority )
 8002204:	4b35      	ldr	r3, [pc, #212]	@ (80022dc <prvAddNewTaskToReadyList+0x112>)
 8002206:	681b      	ldr	r3, [r3, #0]
 8002208:	6ada      	ldr	r2, [r3, #44]	@ 0x2c
 800220a:	687b      	ldr	r3, [r7, #4]
 800220c:	6adb      	ldr	r3, [r3, #44]	@ 0x2c
 800220e:	429a      	cmp	r2, r3
 8002210:	d802      	bhi.n	8002218 <prvAddNewTaskToReadyList+0x4e>
                    {
                        pxCurrentTCB = pxNewTCB;
 8002212:	4a32      	ldr	r2, [pc, #200]	@ (80022dc <prvAddNewTaskToReadyList+0x112>)
 8002214:	687b      	ldr	r3, [r7, #4]
 8002216:	6013      	str	r3, [r2, #0]
                {
                    mtCOVERAGE_TEST_MARKER();
                }
            }

            uxTaskNumber++;
 8002218:	4b32      	ldr	r3, [pc, #200]	@ (80022e4 <prvAddNewTaskToReadyList+0x11a>)
 800221a:	681b      	ldr	r3, [r3, #0]
 800221c:	3301      	adds	r3, #1
 800221e:	4a31      	ldr	r2, [pc, #196]	@ (80022e4 <prvAddNewTaskToReadyList+0x11a>)
 8002220:	6013      	str	r3, [r2, #0]
                pxNewTCB->uxTCBNumber = uxTaskNumber;
            }
            #endif /* configUSE_TRACE_FACILITY */
            traceTASK_CREATE( pxNewTCB );

            prvAddTaskToReadyList( pxNewTCB );
 8002222:	687b      	ldr	r3, [r7, #4]
 8002224:	6adb      	ldr	r3, [r3, #44]	@ 0x2c
 8002226:	2201      	movs	r2, #1
 8002228:	409a      	lsls	r2, r3
 800222a:	4b2f      	ldr	r3, [pc, #188]	@ (80022e8 <prvAddNewTaskToReadyList+0x11e>)
 800222c:	681b      	ldr	r3, [r3, #0]
 800222e:	4313      	orrs	r3, r2
 8002230:	4a2d      	ldr	r2, [pc, #180]	@ (80022e8 <prvAddNewTaskToReadyList+0x11e>)
 8002232:	6013      	str	r3, [r2, #0]
 8002234:	687b      	ldr	r3, [r7, #4]
 8002236:	6ada      	ldr	r2, [r3, #44]	@ 0x2c
 8002238:	492c      	ldr	r1, [pc, #176]	@ (80022ec <prvAddNewTaskToReadyList+0x122>)
 800223a:	4613      	mov	r3, r2
 800223c:	009b      	lsls	r3, r3, #2
 800223e:	4413      	add	r3, r2
 8002240:	009b      	lsls	r3, r3, #2
 8002242:	440b      	add	r3, r1
 8002244:	3304      	adds	r3, #4
 8002246:	681b      	ldr	r3, [r3, #0]
 8002248:	60fb      	str	r3, [r7, #12]
 800224a:	687b      	ldr	r3, [r7, #4]
 800224c:	68fa      	ldr	r2, [r7, #12]
 800224e:	609a      	str	r2, [r3, #8]
 8002250:	68fb      	ldr	r3, [r7, #12]
 8002252:	689a      	ldr	r2, [r3, #8]
 8002254:	687b      	ldr	r3, [r7, #4]
 8002256:	60da      	str	r2, [r3, #12]
 8002258:	68fb      	ldr	r3, [r7, #12]
 800225a:	689b      	ldr	r3, [r3, #8]
 800225c:	687a      	ldr	r2, [r7, #4]
 800225e:	3204      	adds	r2, #4
 8002260:	605a      	str	r2, [r3, #4]
 8002262:	687b      	ldr	r3, [r7, #4]
 8002264:	1d1a      	adds	r2, r3, #4
 8002266:	68fb      	ldr	r3, [r7, #12]
 8002268:	609a      	str	r2, [r3, #8]
 800226a:	687b      	ldr	r3, [r7, #4]
 800226c:	6ada      	ldr	r2, [r3, #44]	@ 0x2c
 800226e:	4613      	mov	r3, r2
 8002270:	009b      	lsls	r3, r3, #2
 8002272:	4413      	add	r3, r2
 8002274:	009b      	lsls	r3, r3, #2
 8002276:	4a1d      	ldr	r2, [pc, #116]	@ (80022ec <prvAddNewTaskToReadyList+0x122>)
 8002278:	441a      	add	r2, r3
 800227a:	687b      	ldr	r3, [r7, #4]
 800227c:	615a      	str	r2, [r3, #20]
 800227e:	687b      	ldr	r3, [r7, #4]
 8002280:	6ada      	ldr	r2, [r3, #44]	@ 0x2c
 8002282:	491a      	ldr	r1, [pc, #104]	@ (80022ec <prvAddNewTaskToReadyList+0x122>)
 8002284:	4613      	mov	r3, r2
 8002286:	009b      	lsls	r3, r3, #2
 8002288:	4413      	add	r3, r2
 800228a:	009b      	lsls	r3, r3, #2
 800228c:	440b      	add	r3, r1
 800228e:	681b      	ldr	r3, [r3, #0]
 8002290:	687a      	ldr	r2, [r7, #4]
 8002292:	6ad2      	ldr	r2, [r2, #44]	@ 0x2c
 8002294:	1c59      	adds	r1, r3, #1
 8002296:	4815      	ldr	r0, [pc, #84]	@ (80022ec <prvAddNewTaskToReadyList+0x122>)
 8002298:	4613      	mov	r3, r2
 800229a:	009b      	lsls	r3, r3, #2
 800229c:	4413      	add	r3, r2
 800229e:	009b      	lsls	r3, r3, #2
 80022a0:	4403      	add	r3, r0
 80022a2:	6019      	str	r1, [r3, #0]

            portSETUP_TCB( pxNewTCB );
        }
        taskEXIT_CRITICAL();
 80022a4:	f002 fd7e 	bl	8004da4 <vPortExitCritical>

        if( xSchedulerRunning != pdFALSE )
 80022a8:	4b0d      	ldr	r3, [pc, #52]	@ (80022e0 <prvAddNewTaskToReadyList+0x116>)
 80022aa:	681b      	ldr	r3, [r3, #0]
 80022ac:	2b00      	cmp	r3, #0
 80022ae:	d00e      	beq.n	80022ce <prvAddNewTaskToReadyList+0x104>
        {
            /* If the created task is of a higher priority than the current task
             * then it should run now. */
            taskYIELD_ANY_CORE_IF_USING_PREEMPTION( pxNewTCB );
 80022b0:	4b0a      	ldr	r3, [pc, #40]	@ (80022dc <prvAddNewTaskToReadyList+0x112>)
 80022b2:	681b      	ldr	r3, [r3, #0]
 80022b4:	6ada      	ldr	r2, [r3, #44]	@ 0x2c
 80022b6:	687b      	ldr	r3, [r7, #4]
 80022b8:	6adb      	ldr	r3, [r3, #44]	@ 0x2c
 80022ba:	429a      	cmp	r2, r3
 80022bc:	d207      	bcs.n	80022ce <prvAddNewTaskToReadyList+0x104>
 80022be:	4b0c      	ldr	r3, [pc, #48]	@ (80022f0 <prvAddNewTaskToReadyList+0x126>)
 80022c0:	f04f 5280 	mov.w	r2, #268435456	@ 0x10000000
 80022c4:	601a      	str	r2, [r3, #0]
 80022c6:	f3bf 8f4f 	dsb	sy
 80022ca:	f3bf 8f6f 	isb	sy
        }
        else
        {
            mtCOVERAGE_TEST_MARKER();
        }
    }
 80022ce:	bf00      	nop
 80022d0:	3710      	adds	r7, #16
 80022d2:	46bd      	mov	sp, r7
 80022d4:	bd80      	pop	{r7, pc}
 80022d6:	bf00      	nop
 80022d8:	200000e0 	.word	0x200000e0
 80022dc:	20000008 	.word	0x20000008
 80022e0:	200000ec 	.word	0x200000ec
 80022e4:	200000fc 	.word	0x200000fc
 80022e8:	200000e8 	.word	0x200000e8
 80022ec:	2000000c 	.word	0x2000000c
 80022f0:	e000ed04 	.word	0xe000ed04

080022f4 <vTaskDelete>:
/*-----------------------------------------------------------*/

#if ( INCLUDE_vTaskDelete == 1 )

    void vTaskDelete( TaskHandle_t xTaskToDelete )
    {
 80022f4:	b580      	push	{r7, lr}
 80022f6:	b086      	sub	sp, #24
 80022f8:	af00      	add	r7, sp, #0
 80022fa:	6078      	str	r0, [r7, #4]
        TCB_t * pxTCB;
        BaseType_t xDeleteTCBInIdleTask = pdFALSE;
 80022fc:	2300      	movs	r3, #0
 80022fe:	617b      	str	r3, [r7, #20]
        BaseType_t xTaskIsRunningOrYielding;

        traceENTER_vTaskDelete( xTaskToDelete );

        taskENTER_CRITICAL();
 8002300:	f002 fd35 	bl	8004d6e <vPortEnterCritical>
        {
            /* If null is passed in here then it is the calling task that is
             * being deleted. */
            pxTCB = prvGetTCBFromHandle( xTaskToDelete );
 8002304:	687b      	ldr	r3, [r7, #4]
 8002306:	2b00      	cmp	r3, #0
 8002308:	d102      	bne.n	8002310 <vTaskDelete+0x1c>
 800230a:	4b39      	ldr	r3, [pc, #228]	@ (80023f0 <vTaskDelete+0xfc>)
 800230c:	681b      	ldr	r3, [r3, #0]
 800230e:	e000      	b.n	8002312 <vTaskDelete+0x1e>
 8002310:	687b      	ldr	r3, [r7, #4]
 8002312:	613b      	str	r3, [r7, #16]
            configASSERT( pxTCB != NULL );

            /* Remove task from the ready/delayed list. */
            if( uxListRemove( &( pxTCB->xStateListItem ) ) == ( UBaseType_t ) 0 )
 8002314:	693b      	ldr	r3, [r7, #16]
 8002316:	3304      	adds	r3, #4
 8002318:	4618      	mov	r0, r3
 800231a:	f7fe f9f7 	bl	800070c <uxListRemove>
 800231e:	4603      	mov	r3, r0
 8002320:	2b00      	cmp	r3, #0
 8002322:	d115      	bne.n	8002350 <vTaskDelete+0x5c>
            {
                taskRESET_READY_PRIORITY( pxTCB->uxPriority );
 8002324:	693b      	ldr	r3, [r7, #16]
 8002326:	6ada      	ldr	r2, [r3, #44]	@ 0x2c
 8002328:	4932      	ldr	r1, [pc, #200]	@ (80023f4 <vTaskDelete+0x100>)
 800232a:	4613      	mov	r3, r2
 800232c:	009b      	lsls	r3, r3, #2
 800232e:	4413      	add	r3, r2
 8002330:	009b      	lsls	r3, r3, #2
 8002332:	440b      	add	r3, r1
 8002334:	681b      	ldr	r3, [r3, #0]
 8002336:	2b00      	cmp	r3, #0
 8002338:	d10a      	bne.n	8002350 <vTaskDelete+0x5c>
 800233a:	693b      	ldr	r3, [r7, #16]
 800233c:	6adb      	ldr	r3, [r3, #44]	@ 0x2c
 800233e:	2201      	movs	r2, #1
 8002340:	fa02 f303 	lsl.w	r3, r2, r3
 8002344:	43da      	mvns	r2, r3
 8002346:	4b2c      	ldr	r3, [pc, #176]	@ (80023f8 <vTaskDelete+0x104>)
 8002348:	681b      	ldr	r3, [r3, #0]
 800234a:	4013      	ands	r3, r2
 800234c:	4a2a      	ldr	r2, [pc, #168]	@ (80023f8 <vTaskDelete+0x104>)
 800234e:	6013      	str	r3, [r2, #0]
            {
                mtCOVERAGE_TEST_MARKER();
            }

            /* Is the task waiting on an event also? */
            if( listLIST_ITEM_CONTAINER( &( pxTCB->xEventListItem ) ) != NULL )
 8002350:	693b      	ldr	r3, [r7, #16]
 8002352:	6a9b      	ldr	r3, [r3, #40]	@ 0x28
 8002354:	2b00      	cmp	r3, #0
 8002356:	d004      	beq.n	8002362 <vTaskDelete+0x6e>
            {
                ( void ) uxListRemove( &( pxTCB->xEventListItem ) );
 8002358:	693b      	ldr	r3, [r7, #16]
 800235a:	3318      	adds	r3, #24
 800235c:	4618      	mov	r0, r3
 800235e:	f7fe f9d5 	bl	800070c <uxListRemove>

            /* Increment the uxTaskNumber also so kernel aware debuggers can
             * detect that the task lists need re-generating.  This is done before
             * portPRE_TASK_DELETE_HOOK() as in the Windows port that macro will
             * not return. */
            uxTaskNumber++;
 8002362:	4b26      	ldr	r3, [pc, #152]	@ (80023fc <vTaskDelete+0x108>)
 8002364:	681b      	ldr	r3, [r3, #0]
 8002366:	3301      	adds	r3, #1
 8002368:	4a24      	ldr	r2, [pc, #144]	@ (80023fc <vTaskDelete+0x108>)
 800236a:	6013      	str	r3, [r2, #0]

            /* Use temp variable as distinct sequence points for reading volatile
             * variables prior to a logical operator to ensure compliance with
             * MISRA C 2012 Rule 13.5. */
            xTaskIsRunningOrYielding = taskTASK_IS_RUNNING_OR_SCHEDULED_TO_YIELD( pxTCB );
 800236c:	4b20      	ldr	r3, [pc, #128]	@ (80023f0 <vTaskDelete+0xfc>)
 800236e:	681b      	ldr	r3, [r3, #0]
 8002370:	693a      	ldr	r2, [r7, #16]
 8002372:	429a      	cmp	r2, r3
 8002374:	d101      	bne.n	800237a <vTaskDelete+0x86>
 8002376:	2301      	movs	r3, #1
 8002378:	e000      	b.n	800237c <vTaskDelete+0x88>
 800237a:	2300      	movs	r3, #0
 800237c:	60fb      	str	r3, [r7, #12]

            /* If the task is running (or yielding), we must add it to the
             * termination list so that an idle task can delete it when it is
             * no longer running. */
            if( ( xSchedulerRunning != pdFALSE ) && ( xTaskIsRunningOrYielding != pdFALSE ) )
 800237e:	4b20      	ldr	r3, [pc, #128]	@ (8002400 <vTaskDelete+0x10c>)
 8002380:	681b      	ldr	r3, [r3, #0]
 8002382:	2b00      	cmp	r3, #0
 8002384:	d010      	beq.n	80023a8 <vTaskDelete+0xb4>
 8002386:	68fb      	ldr	r3, [r7, #12]
 8002388:	2b00      	cmp	r3, #0
 800238a:	d00d      	beq.n	80023a8 <vTaskDelete+0xb4>
                 * deleted. This cannot complete when the task is still running
                 * on a core, as a context switch to another task is required.
                 * Place the task in the termination list. The idle task will check
                 * the termination list and free up any memory allocated by the
                 * scheduler for the TCB and stack of the deleted task. */
                vListInsertEnd( &xTasksWaitingTermination, &( pxTCB->xStateListItem ) );
 800238c:	693b      	ldr	r3, [r7, #16]
 800238e:	3304      	adds	r3, #4
 8002390:	4619      	mov	r1, r3
 8002392:	481c      	ldr	r0, [pc, #112]	@ (8002404 <vTaskDelete+0x110>)
 8002394:	f7fe f95d 	bl	8000652 <vListInsertEnd>

                /* Increment the ucTasksDeleted variable so the idle task knows
                 * there is a task that has been deleted and that it should therefore
                 * check the xTasksWaitingTermination list. */
                ++uxDeletedTasksWaitingCleanUp;
 8002398:	4b1b      	ldr	r3, [pc, #108]	@ (8002408 <vTaskDelete+0x114>)
 800239a:	681b      	ldr	r3, [r3, #0]
 800239c:	3301      	adds	r3, #1
 800239e:	4a1a      	ldr	r2, [pc, #104]	@ (8002408 <vTaskDelete+0x114>)
 80023a0:	6013      	str	r3, [r2, #0]
                /* Call the delete hook before portPRE_TASK_DELETE_HOOK() as
                 * portPRE_TASK_DELETE_HOOK() does not return in the Win32 port. */
                traceTASK_DELETE( pxTCB );

                /* Delete the task TCB in idle task. */
                xDeleteTCBInIdleTask = pdTRUE;
 80023a2:	2301      	movs	r3, #1
 80023a4:	617b      	str	r3, [r7, #20]
 80023a6:	e006      	b.n	80023b6 <vTaskDelete+0xc2>
                }
                #endif /* #if ( configNUMBER_OF_CORES > 1 ) */
            }
            else
            {
                --uxCurrentNumberOfTasks;
 80023a8:	4b18      	ldr	r3, [pc, #96]	@ (800240c <vTaskDelete+0x118>)
 80023aa:	681b      	ldr	r3, [r3, #0]
 80023ac:	3b01      	subs	r3, #1
 80023ae:	4a17      	ldr	r2, [pc, #92]	@ (800240c <vTaskDelete+0x118>)
 80023b0:	6013      	str	r3, [r2, #0]
                traceTASK_DELETE( pxTCB );

                /* Reset the next expected unblock time in case it referred to
                 * the task that has just been deleted. */
                prvResetNextTaskUnblockTime();
 80023b2:	f001 f8d1 	bl	8003558 <prvResetNextTaskUnblockTime>
            }
        }
        taskEXIT_CRITICAL();
 80023b6:	f002 fcf5 	bl	8004da4 <vPortExitCritical>

        /* If the task is not deleting itself, call prvDeleteTCB from outside of
         * critical section. If a task deletes itself, prvDeleteTCB is called
         * from prvCheckTasksWaitingTermination which is called from Idle task. */
        if( xDeleteTCBInIdleTask != pdTRUE )
 80023ba:	697b      	ldr	r3, [r7, #20]
 80023bc:	2b01      	cmp	r3, #1
 80023be:	d002      	beq.n	80023c6 <vTaskDelete+0xd2>
        {
            prvDeleteTCB( pxTCB );
 80023c0:	6938      	ldr	r0, [r7, #16]
 80023c2:	f001 f8b9 	bl	8003538 <prvDeleteTCB>

        /* Force a reschedule if it is the currently running task that has just
         * been deleted. */
        #if ( configNUMBER_OF_CORES == 1 )
        {
            if( xSchedulerRunning != pdFALSE )
 80023c6:	4b0e      	ldr	r3, [pc, #56]	@ (8002400 <vTaskDelete+0x10c>)
 80023c8:	681b      	ldr	r3, [r3, #0]
 80023ca:	2b00      	cmp	r3, #0
 80023cc:	d00c      	beq.n	80023e8 <vTaskDelete+0xf4>
            {
                if( pxTCB == pxCurrentTCB )
 80023ce:	4b08      	ldr	r3, [pc, #32]	@ (80023f0 <vTaskDelete+0xfc>)
 80023d0:	681b      	ldr	r3, [r3, #0]
 80023d2:	693a      	ldr	r2, [r7, #16]
 80023d4:	429a      	cmp	r2, r3
 80023d6:	d107      	bne.n	80023e8 <vTaskDelete+0xf4>
                {
                    configASSERT( uxSchedulerSuspended == 0 );
                    taskYIELD_WITHIN_API();
 80023d8:	4b0d      	ldr	r3, [pc, #52]	@ (8002410 <vTaskDelete+0x11c>)
 80023da:	f04f 5280 	mov.w	r2, #268435456	@ 0x10000000
 80023de:	601a      	str	r2, [r3, #0]
 80023e0:	f3bf 8f4f 	dsb	sy
 80023e4:	f3bf 8f6f 	isb	sy
            }
        }
        #endif /* #if ( configNUMBER_OF_CORES == 1 ) */

        traceRETURN_vTaskDelete();
    }
 80023e8:	bf00      	nop
 80023ea:	3718      	adds	r7, #24
 80023ec:	46bd      	mov	sp, r7
 80023ee:	bd80      	pop	{r7, pc}
 80023f0:	20000008 	.word	0x20000008
 80023f4:	2000000c 	.word	0x2000000c
 80023f8:	200000e8 	.word	0x200000e8
 80023fc:	200000fc 	.word	0x200000fc
 8002400:	200000ec 	.word	0x200000ec
 8002404:	200000b4 	.word	0x200000b4
 8002408:	200000c8 	.word	0x200000c8
 800240c:	200000e0 	.word	0x200000e0
 8002410:	e000ed04 	.word	0xe000ed04

08002414 <vTaskDelay>:
/*-----------------------------------------------------------*/

#if ( INCLUDE_vTaskDelay == 1 )

    void vTaskDelay( const TickType_t xTicksToDelay )
    {
 8002414:	b580      	push	{r7, lr}
 8002416:	b084      	sub	sp, #16
 8002418:	af00      	add	r7, sp, #0
 800241a:	6078      	str	r0, [r7, #4]
        BaseType_t xAlreadyYielded = pdFALSE;
 800241c:	2300      	movs	r3, #0
 800241e:	60fb      	str	r3, [r7, #12]

        traceENTER_vTaskDelay( xTicksToDelay );

        /* A delay time of zero just forces a reschedule. */
        if( xTicksToDelay > ( TickType_t ) 0U )
 8002420:	687b      	ldr	r3, [r7, #4]
 8002422:	2b00      	cmp	r3, #0
 8002424:	d008      	beq.n	8002438 <vTaskDelay+0x24>
        {
            vTaskSuspendAll();
 8002426:	f000 faa7 	bl	8002978 <vTaskSuspendAll>
                 * list or removed from the blocked list until the scheduler
                 * is resumed.
                 *
                 * This task cannot be in an event list as it is the currently
                 * executing task. */
                prvAddCurrentTaskToDelayedList( xTicksToDelay, pdFALSE );
 800242a:	2100      	movs	r1, #0
 800242c:	6878      	ldr	r0, [r7, #4]
 800242e:	f001 ff35 	bl	800429c <prvAddCurrentTaskToDelayedList>
            }
            xAlreadyYielded = xTaskResumeAll();
 8002432:	f000 faaf 	bl	8002994 <xTaskResumeAll>
 8002436:	60f8      	str	r0, [r7, #12]
            mtCOVERAGE_TEST_MARKER();
        }

        /* Force a reschedule if xTaskResumeAll has not already done so, we may
         * have put ourselves to sleep. */
        if( xAlreadyYielded == pdFALSE )
 8002438:	68fb      	ldr	r3, [r7, #12]
 800243a:	2b00      	cmp	r3, #0
 800243c:	d107      	bne.n	800244e <vTaskDelay+0x3a>
        {
            taskYIELD_WITHIN_API();
 800243e:	4b06      	ldr	r3, [pc, #24]	@ (8002458 <vTaskDelay+0x44>)
 8002440:	f04f 5280 	mov.w	r2, #268435456	@ 0x10000000
 8002444:	601a      	str	r2, [r3, #0]
 8002446:	f3bf 8f4f 	dsb	sy
 800244a:	f3bf 8f6f 	isb	sy
        {
            mtCOVERAGE_TEST_MARKER();
        }

        traceRETURN_vTaskDelay();
    }
 800244e:	bf00      	nop
 8002450:	3710      	adds	r7, #16
 8002452:	46bd      	mov	sp, r7
 8002454:	bd80      	pop	{r7, pc}
 8002456:	bf00      	nop
 8002458:	e000ed04 	.word	0xe000ed04

0800245c <vTaskSuspend>:
/*-----------------------------------------------------------*/

#if ( INCLUDE_vTaskSuspend == 1 )

    void vTaskSuspend( TaskHandle_t xTaskToSuspend )
    {
 800245c:	b580      	push	{r7, lr}
 800245e:	b086      	sub	sp, #24
 8002460:	af00      	add	r7, sp, #0
 8002462:	6078      	str	r0, [r7, #4]
        TCB_t * pxTCB;

        traceENTER_vTaskSuspend( xTaskToSuspend );

        taskENTER_CRITICAL();
 8002464:	f002 fc83 	bl	8004d6e <vPortEnterCritical>
        {
            /* If null is passed in here then it is the running task that is
             * being suspended. */
            pxTCB = prvGetTCBFromHandle( xTaskToSuspend );
 8002468:	687b      	ldr	r3, [r7, #4]
 800246a:	2b00      	cmp	r3, #0
 800246c:	d102      	bne.n	8002474 <vTaskSuspend+0x18>
 800246e:	4b3c      	ldr	r3, [pc, #240]	@ (8002560 <vTaskSuspend+0x104>)
 8002470:	681b      	ldr	r3, [r3, #0]
 8002472:	e000      	b.n	8002476 <vTaskSuspend+0x1a>
 8002474:	687b      	ldr	r3, [r7, #4]
 8002476:	613b      	str	r3, [r7, #16]

            traceTASK_SUSPEND( pxTCB );

            /* Remove task from the ready/delayed list and place in the
             * suspended list. */
            if( uxListRemove( &( pxTCB->xStateListItem ) ) == ( UBaseType_t ) 0 )
 8002478:	693b      	ldr	r3, [r7, #16]
 800247a:	3304      	adds	r3, #4
 800247c:	4618      	mov	r0, r3
 800247e:	f7fe f945 	bl	800070c <uxListRemove>
 8002482:	4603      	mov	r3, r0
 8002484:	2b00      	cmp	r3, #0
 8002486:	d115      	bne.n	80024b4 <vTaskSuspend+0x58>
            {
                taskRESET_READY_PRIORITY( pxTCB->uxPriority );
 8002488:	693b      	ldr	r3, [r7, #16]
 800248a:	6ada      	ldr	r2, [r3, #44]	@ 0x2c
 800248c:	4935      	ldr	r1, [pc, #212]	@ (8002564 <vTaskSuspend+0x108>)
 800248e:	4613      	mov	r3, r2
 8002490:	009b      	lsls	r3, r3, #2
 8002492:	4413      	add	r3, r2
 8002494:	009b      	lsls	r3, r3, #2
 8002496:	440b      	add	r3, r1
 8002498:	681b      	ldr	r3, [r3, #0]
 800249a:	2b00      	cmp	r3, #0
 800249c:	d10a      	bne.n	80024b4 <vTaskSuspend+0x58>
 800249e:	693b      	ldr	r3, [r7, #16]
 80024a0:	6adb      	ldr	r3, [r3, #44]	@ 0x2c
 80024a2:	2201      	movs	r2, #1
 80024a4:	fa02 f303 	lsl.w	r3, r2, r3
 80024a8:	43da      	mvns	r2, r3
 80024aa:	4b2f      	ldr	r3, [pc, #188]	@ (8002568 <vTaskSuspend+0x10c>)
 80024ac:	681b      	ldr	r3, [r3, #0]
 80024ae:	4013      	ands	r3, r2
 80024b0:	4a2d      	ldr	r2, [pc, #180]	@ (8002568 <vTaskSuspend+0x10c>)
 80024b2:	6013      	str	r3, [r2, #0]
            {
                mtCOVERAGE_TEST_MARKER();
            }

            /* Is the task waiting on an event also? */
            if( listLIST_ITEM_CONTAINER( &( pxTCB->xEventListItem ) ) != NULL )
 80024b4:	693b      	ldr	r3, [r7, #16]
 80024b6:	6a9b      	ldr	r3, [r3, #40]	@ 0x28
 80024b8:	2b00      	cmp	r3, #0
 80024ba:	d004      	beq.n	80024c6 <vTaskSuspend+0x6a>
            {
                ( void ) uxListRemove( &( pxTCB->xEventListItem ) );
 80024bc:	693b      	ldr	r3, [r7, #16]
 80024be:	3318      	adds	r3, #24
 80024c0:	4618      	mov	r0, r3
 80024c2:	f7fe f923 	bl	800070c <uxListRemove>
            else
            {
                mtCOVERAGE_TEST_MARKER();
            }

            vListInsertEnd( &xSuspendedTaskList, &( pxTCB->xStateListItem ) );
 80024c6:	693b      	ldr	r3, [r7, #16]
 80024c8:	3304      	adds	r3, #4
 80024ca:	4619      	mov	r1, r3
 80024cc:	4827      	ldr	r0, [pc, #156]	@ (800256c <vTaskSuspend+0x110>)
 80024ce:	f7fe f8c0 	bl	8000652 <vListInsertEnd>

            #if ( configUSE_TASK_NOTIFICATIONS == 1 )
            {
                BaseType_t x;

                for( x = ( BaseType_t ) 0; x < ( BaseType_t ) configTASK_NOTIFICATION_ARRAY_ENTRIES; x++ )
 80024d2:	2300      	movs	r3, #0
 80024d4:	617b      	str	r3, [r7, #20]
 80024d6:	e010      	b.n	80024fa <vTaskSuspend+0x9e>
                {
                    if( pxTCB->ucNotifyState[ x ] == taskWAITING_NOTIFICATION )
 80024d8:	693a      	ldr	r2, [r7, #16]
 80024da:	697b      	ldr	r3, [r7, #20]
 80024dc:	4413      	add	r3, r2
 80024de:	3350      	adds	r3, #80	@ 0x50
 80024e0:	781b      	ldrb	r3, [r3, #0]
 80024e2:	b2db      	uxtb	r3, r3
 80024e4:	2b01      	cmp	r3, #1
 80024e6:	d105      	bne.n	80024f4 <vTaskSuspend+0x98>
                    {
                        /* The task was blocked to wait for a notification, but is
                         * now suspended, so no notification was received. */
                        pxTCB->ucNotifyState[ x ] = taskNOT_WAITING_NOTIFICATION;
 80024e8:	693a      	ldr	r2, [r7, #16]
 80024ea:	697b      	ldr	r3, [r7, #20]
 80024ec:	4413      	add	r3, r2
 80024ee:	3350      	adds	r3, #80	@ 0x50
 80024f0:	2200      	movs	r2, #0
 80024f2:	701a      	strb	r2, [r3, #0]
                for( x = ( BaseType_t ) 0; x < ( BaseType_t ) configTASK_NOTIFICATION_ARRAY_ENTRIES; x++ )
 80024f4:	697b      	ldr	r3, [r7, #20]
 80024f6:	3301      	adds	r3, #1
 80024f8:	617b      	str	r3, [r7, #20]
 80024fa:	697b      	ldr	r3, [r7, #20]
 80024fc:	2b00      	cmp	r3, #0
 80024fe:	ddeb      	ble.n	80024d8 <vTaskSuspend+0x7c>
                    mtCOVERAGE_TEST_MARKER();
                }
            }
            #endif /* #if ( configNUMBER_OF_CORES > 1 ) */
        }
        taskEXIT_CRITICAL();
 8002500:	f002 fc50 	bl	8004da4 <vPortExitCritical>

        #if ( configNUMBER_OF_CORES == 1 )
        {
            UBaseType_t uxCurrentListLength;

            if( xSchedulerRunning != pdFALSE )
 8002504:	4b1a      	ldr	r3, [pc, #104]	@ (8002570 <vTaskSuspend+0x114>)
 8002506:	681b      	ldr	r3, [r3, #0]
 8002508:	2b00      	cmp	r3, #0
 800250a:	d005      	beq.n	8002518 <vTaskSuspend+0xbc>
            {
                /* Reset the next expected unblock time in case it referred to the
                 * task that is now in the Suspended state. */
                taskENTER_CRITICAL();
 800250c:	f002 fc2f 	bl	8004d6e <vPortEnterCritical>
                {
                    prvResetNextTaskUnblockTime();
 8002510:	f001 f822 	bl	8003558 <prvResetNextTaskUnblockTime>
                }
                taskEXIT_CRITICAL();
 8002514:	f002 fc46 	bl	8004da4 <vPortExitCritical>
            else
            {
                mtCOVERAGE_TEST_MARKER();
            }

            if( pxTCB == pxCurrentTCB )
 8002518:	4b11      	ldr	r3, [pc, #68]	@ (8002560 <vTaskSuspend+0x104>)
 800251a:	681b      	ldr	r3, [r3, #0]
 800251c:	693a      	ldr	r2, [r7, #16]
 800251e:	429a      	cmp	r2, r3
 8002520:	d11a      	bne.n	8002558 <vTaskSuspend+0xfc>
            {
                if( xSchedulerRunning != pdFALSE )
 8002522:	4b13      	ldr	r3, [pc, #76]	@ (8002570 <vTaskSuspend+0x114>)
 8002524:	681b      	ldr	r3, [r3, #0]
 8002526:	2b00      	cmp	r3, #0
 8002528:	d008      	beq.n	800253c <vTaskSuspend+0xe0>
                {
                    /* The current task has just been suspended. */
                    configASSERT( uxSchedulerSuspended == 0 );
                    portYIELD_WITHIN_API();
 800252a:	4b12      	ldr	r3, [pc, #72]	@ (8002574 <vTaskSuspend+0x118>)
 800252c:	f04f 5280 	mov.w	r2, #268435456	@ 0x10000000
 8002530:	601a      	str	r2, [r3, #0]
 8002532:	f3bf 8f4f 	dsb	sy
 8002536:	f3bf 8f6f 	isb	sy
            }
        }
        #endif /* #if ( configNUMBER_OF_CORES == 1 ) */

        traceRETURN_vTaskSuspend();
    }
 800253a:	e00d      	b.n	8002558 <vTaskSuspend+0xfc>
                    uxCurrentListLength = listCURRENT_LIST_LENGTH( &xSuspendedTaskList );
 800253c:	4b0b      	ldr	r3, [pc, #44]	@ (800256c <vTaskSuspend+0x110>)
 800253e:	681b      	ldr	r3, [r3, #0]
 8002540:	60fb      	str	r3, [r7, #12]
                    if( uxCurrentListLength == uxCurrentNumberOfTasks )
 8002542:	4b0d      	ldr	r3, [pc, #52]	@ (8002578 <vTaskSuspend+0x11c>)
 8002544:	681b      	ldr	r3, [r3, #0]
 8002546:	68fa      	ldr	r2, [r7, #12]
 8002548:	429a      	cmp	r2, r3
 800254a:	d103      	bne.n	8002554 <vTaskSuspend+0xf8>
                        pxCurrentTCB = NULL;
 800254c:	4b04      	ldr	r3, [pc, #16]	@ (8002560 <vTaskSuspend+0x104>)
 800254e:	2200      	movs	r2, #0
 8002550:	601a      	str	r2, [r3, #0]
    }
 8002552:	e001      	b.n	8002558 <vTaskSuspend+0xfc>
                        vTaskSwitchContext();
 8002554:	f000 fc7c 	bl	8002e50 <vTaskSwitchContext>
    }
 8002558:	bf00      	nop
 800255a:	3718      	adds	r7, #24
 800255c:	46bd      	mov	sp, r7
 800255e:	bd80      	pop	{r7, pc}
 8002560:	20000008 	.word	0x20000008
 8002564:	2000000c 	.word	0x2000000c
 8002568:	200000e8 	.word	0x200000e8
 800256c:	200000cc 	.word	0x200000cc
 8002570:	200000ec 	.word	0x200000ec
 8002574:	e000ed04 	.word	0xe000ed04
 8002578:	200000e0 	.word	0x200000e0

0800257c <prvTaskIsTaskSuspended>:
/*-----------------------------------------------------------*/

#if ( INCLUDE_vTaskSuspend == 1 )

    static BaseType_t prvTaskIsTaskSuspended( const TaskHandle_t xTask )
    {
 800257c:	b480      	push	{r7}
 800257e:	b087      	sub	sp, #28
 8002580:	af00      	add	r7, sp, #0
 8002582:	6078      	str	r0, [r7, #4]
        BaseType_t xReturn = pdFALSE;
 8002584:	2300      	movs	r3, #0
 8002586:	617b      	str	r3, [r7, #20]
        const TCB_t * const pxTCB = xTask;
 8002588:	687b      	ldr	r3, [r7, #4]
 800258a:	60fb      	str	r3, [r7, #12]

        /* It does not make sense to check if the calling task is suspended. */
        configASSERT( xTask );

        /* Is the task being resumed actually in the suspended list? */
        if( listIS_CONTAINED_WITHIN( &xSuspendedTaskList, &( pxTCB->xStateListItem ) ) != pdFALSE )
 800258c:	68fb      	ldr	r3, [r7, #12]
 800258e:	695b      	ldr	r3, [r3, #20]
 8002590:	4a14      	ldr	r2, [pc, #80]	@ (80025e4 <prvTaskIsTaskSuspended+0x68>)
 8002592:	4293      	cmp	r3, r2
 8002594:	d11e      	bne.n	80025d4 <prvTaskIsTaskSuspended+0x58>
        {
            /* Has the task already been resumed from within an ISR? */
            if( listIS_CONTAINED_WITHIN( &xPendingReadyList, &( pxTCB->xEventListItem ) ) == pdFALSE )
 8002596:	68fb      	ldr	r3, [r7, #12]
 8002598:	6a9b      	ldr	r3, [r3, #40]	@ 0x28
 800259a:	4a13      	ldr	r2, [pc, #76]	@ (80025e8 <prvTaskIsTaskSuspended+0x6c>)
 800259c:	4293      	cmp	r3, r2
 800259e:	d019      	beq.n	80025d4 <prvTaskIsTaskSuspended+0x58>
            {
                /* Is it in the suspended list because it is in the Suspended
                 * state, or because it is blocked with no timeout? */
                if( listIS_CONTAINED_WITHIN( NULL, &( pxTCB->xEventListItem ) ) != pdFALSE )
 80025a0:	68fb      	ldr	r3, [r7, #12]
 80025a2:	6a9b      	ldr	r3, [r3, #40]	@ 0x28
 80025a4:	2b00      	cmp	r3, #0
 80025a6:	d115      	bne.n	80025d4 <prvTaskIsTaskSuspended+0x58>
                        /* The task does not appear on the event list item of
                         * and of the RTOS objects, but could still be in the
                         * blocked state if it is waiting on its notification
                         * rather than waiting on an object.  If not, is
                         * suspended. */
                        xReturn = pdTRUE;
 80025a8:	2301      	movs	r3, #1
 80025aa:	617b      	str	r3, [r7, #20]

                        for( x = ( BaseType_t ) 0; x < ( BaseType_t ) configTASK_NOTIFICATION_ARRAY_ENTRIES; x++ )
 80025ac:	2300      	movs	r3, #0
 80025ae:	613b      	str	r3, [r7, #16]
 80025b0:	e00d      	b.n	80025ce <prvTaskIsTaskSuspended+0x52>
                        {
                            if( pxTCB->ucNotifyState[ x ] == taskWAITING_NOTIFICATION )
 80025b2:	68fa      	ldr	r2, [r7, #12]
 80025b4:	693b      	ldr	r3, [r7, #16]
 80025b6:	4413      	add	r3, r2
 80025b8:	3350      	adds	r3, #80	@ 0x50
 80025ba:	781b      	ldrb	r3, [r3, #0]
 80025bc:	b2db      	uxtb	r3, r3
 80025be:	2b01      	cmp	r3, #1
 80025c0:	d102      	bne.n	80025c8 <prvTaskIsTaskSuspended+0x4c>
                            {
                                xReturn = pdFALSE;
 80025c2:	2300      	movs	r3, #0
 80025c4:	617b      	str	r3, [r7, #20]
                                break;
 80025c6:	e005      	b.n	80025d4 <prvTaskIsTaskSuspended+0x58>
                        for( x = ( BaseType_t ) 0; x < ( BaseType_t ) configTASK_NOTIFICATION_ARRAY_ENTRIES; x++ )
 80025c8:	693b      	ldr	r3, [r7, #16]
 80025ca:	3301      	adds	r3, #1
 80025cc:	613b      	str	r3, [r7, #16]
 80025ce:	693b      	ldr	r3, [r7, #16]
 80025d0:	2b00      	cmp	r3, #0
 80025d2:	ddee      	ble.n	80025b2 <prvTaskIsTaskSuspended+0x36>
        else
        {
            mtCOVERAGE_TEST_MARKER();
        }

        return xReturn;
 80025d4:	697b      	ldr	r3, [r7, #20]
    }
 80025d6:	4618      	mov	r0, r3
 80025d8:	371c      	adds	r7, #28
 80025da:	46bd      	mov	sp, r7
 80025dc:	f85d 7b04 	ldr.w	r7, [sp], #4
 80025e0:	4770      	bx	lr
 80025e2:	bf00      	nop
 80025e4:	200000cc 	.word	0x200000cc
 80025e8:	200000a0 	.word	0x200000a0

080025ec <vTaskResume>:
/*-----------------------------------------------------------*/

#if ( INCLUDE_vTaskSuspend == 1 )

    void vTaskResume( TaskHandle_t xTaskToResume )
    {
 80025ec:	b580      	push	{r7, lr}
 80025ee:	b084      	sub	sp, #16
 80025f0:	af00      	add	r7, sp, #0
 80025f2:	6078      	str	r0, [r7, #4]
        TCB_t * const pxTCB = xTaskToResume;
 80025f4:	687b      	ldr	r3, [r7, #4]
 80025f6:	60fb      	str	r3, [r7, #12]

        #if ( configNUMBER_OF_CORES == 1 )

            /* The parameter cannot be NULL as it is impossible to resume the
             * currently executing task. */
            if( ( pxTCB != pxCurrentTCB ) && ( pxTCB != NULL ) )
 80025f8:	4b35      	ldr	r3, [pc, #212]	@ (80026d0 <vTaskResume+0xe4>)
 80025fa:	681b      	ldr	r3, [r3, #0]
 80025fc:	68fa      	ldr	r2, [r7, #12]
 80025fe:	429a      	cmp	r2, r3
 8002600:	d061      	beq.n	80026c6 <vTaskResume+0xda>
 8002602:	68fb      	ldr	r3, [r7, #12]
 8002604:	2b00      	cmp	r3, #0
 8002606:	d05e      	beq.n	80026c6 <vTaskResume+0xda>
             * to check their run state here. Therefore, we get into a critical
             * section and check if the task is actually suspended or not. */
            if( pxTCB != NULL )
        #endif
        {
            taskENTER_CRITICAL();
 8002608:	f002 fbb1 	bl	8004d6e <vPortEnterCritical>
            {
                if( prvTaskIsTaskSuspended( pxTCB ) != pdFALSE )
 800260c:	68f8      	ldr	r0, [r7, #12]
 800260e:	f7ff ffb5 	bl	800257c <prvTaskIsTaskSuspended>
 8002612:	4603      	mov	r3, r0
 8002614:	2b00      	cmp	r3, #0
 8002616:	d054      	beq.n	80026c2 <vTaskResume+0xd6>
                {
                    traceTASK_RESUME( pxTCB );

                    /* The ready list can be accessed even if the scheduler is
                     * suspended because this is inside a critical section. */
                    ( void ) uxListRemove( &( pxTCB->xStateListItem ) );
 8002618:	68fb      	ldr	r3, [r7, #12]
 800261a:	3304      	adds	r3, #4
 800261c:	4618      	mov	r0, r3
 800261e:	f7fe f875 	bl	800070c <uxListRemove>
                    prvAddTaskToReadyList( pxTCB );
 8002622:	68fb      	ldr	r3, [r7, #12]
 8002624:	6adb      	ldr	r3, [r3, #44]	@ 0x2c
 8002626:	2201      	movs	r2, #1
 8002628:	409a      	lsls	r2, r3
 800262a:	4b2a      	ldr	r3, [pc, #168]	@ (80026d4 <vTaskResume+0xe8>)
 800262c:	681b      	ldr	r3, [r3, #0]
 800262e:	4313      	orrs	r3, r2
 8002630:	4a28      	ldr	r2, [pc, #160]	@ (80026d4 <vTaskResume+0xe8>)
 8002632:	6013      	str	r3, [r2, #0]
 8002634:	68fb      	ldr	r3, [r7, #12]
 8002636:	6ada      	ldr	r2, [r3, #44]	@ 0x2c
 8002638:	4927      	ldr	r1, [pc, #156]	@ (80026d8 <vTaskResume+0xec>)
 800263a:	4613      	mov	r3, r2
 800263c:	009b      	lsls	r3, r3, #2
 800263e:	4413      	add	r3, r2
 8002640:	009b      	lsls	r3, r3, #2
 8002642:	440b      	add	r3, r1
 8002644:	3304      	adds	r3, #4
 8002646:	681b      	ldr	r3, [r3, #0]
 8002648:	60bb      	str	r3, [r7, #8]
 800264a:	68fb      	ldr	r3, [r7, #12]
 800264c:	68ba      	ldr	r2, [r7, #8]
 800264e:	609a      	str	r2, [r3, #8]
 8002650:	68bb      	ldr	r3, [r7, #8]
 8002652:	689a      	ldr	r2, [r3, #8]
 8002654:	68fb      	ldr	r3, [r7, #12]
 8002656:	60da      	str	r2, [r3, #12]
 8002658:	68bb      	ldr	r3, [r7, #8]
 800265a:	689b      	ldr	r3, [r3, #8]
 800265c:	68fa      	ldr	r2, [r7, #12]
 800265e:	3204      	adds	r2, #4
 8002660:	605a      	str	r2, [r3, #4]
 8002662:	68fb      	ldr	r3, [r7, #12]
 8002664:	1d1a      	adds	r2, r3, #4
 8002666:	68bb      	ldr	r3, [r7, #8]
 8002668:	609a      	str	r2, [r3, #8]
 800266a:	68fb      	ldr	r3, [r7, #12]
 800266c:	6ada      	ldr	r2, [r3, #44]	@ 0x2c
 800266e:	4613      	mov	r3, r2
 8002670:	009b      	lsls	r3, r3, #2
 8002672:	4413      	add	r3, r2
 8002674:	009b      	lsls	r3, r3, #2
 8002676:	4a18      	ldr	r2, [pc, #96]	@ (80026d8 <vTaskResume+0xec>)
 8002678:	441a      	add	r2, r3
 800267a:	68fb      	ldr	r3, [r7, #12]
 800267c:	615a      	str	r2, [r3, #20]
 800267e:	68fb      	ldr	r3, [r7, #12]
 8002680:	6ada      	ldr	r2, [r3, #44]	@ 0x2c
 8002682:	4915      	ldr	r1, [pc, #84]	@ (80026d8 <vTaskResume+0xec>)
 8002684:	4613      	mov	r3, r2
 8002686:	009b      	lsls	r3, r3, #2
 8002688:	4413      	add	r3, r2
 800268a:	009b      	lsls	r3, r3, #2
 800268c:	440b      	add	r3, r1
 800268e:	681b      	ldr	r3, [r3, #0]
 8002690:	68fa      	ldr	r2, [r7, #12]
 8002692:	6ad2      	ldr	r2, [r2, #44]	@ 0x2c
 8002694:	1c59      	adds	r1, r3, #1
 8002696:	4810      	ldr	r0, [pc, #64]	@ (80026d8 <vTaskResume+0xec>)
 8002698:	4613      	mov	r3, r2
 800269a:	009b      	lsls	r3, r3, #2
 800269c:	4413      	add	r3, r2
 800269e:	009b      	lsls	r3, r3, #2
 80026a0:	4403      	add	r3, r0
 80026a2:	6019      	str	r1, [r3, #0]

                    /* This yield may not cause the task just resumed to run,
                     * but will leave the lists in the correct state for the
                     * next yield. */
                    taskYIELD_ANY_CORE_IF_USING_PREEMPTION( pxTCB );
 80026a4:	4b0a      	ldr	r3, [pc, #40]	@ (80026d0 <vTaskResume+0xe4>)
 80026a6:	681b      	ldr	r3, [r3, #0]
 80026a8:	6ada      	ldr	r2, [r3, #44]	@ 0x2c
 80026aa:	68fb      	ldr	r3, [r7, #12]
 80026ac:	6adb      	ldr	r3, [r3, #44]	@ 0x2c
 80026ae:	429a      	cmp	r2, r3
 80026b0:	d207      	bcs.n	80026c2 <vTaskResume+0xd6>
 80026b2:	4b0a      	ldr	r3, [pc, #40]	@ (80026dc <vTaskResume+0xf0>)
 80026b4:	f04f 5280 	mov.w	r2, #268435456	@ 0x10000000
 80026b8:	601a      	str	r2, [r3, #0]
 80026ba:	f3bf 8f4f 	dsb	sy
 80026be:	f3bf 8f6f 	isb	sy
                else
                {
                    mtCOVERAGE_TEST_MARKER();
                }
            }
            taskEXIT_CRITICAL();
 80026c2:	f002 fb6f 	bl	8004da4 <vPortExitCritical>
        {
            mtCOVERAGE_TEST_MARKER();
        }

        traceRETURN_vTaskResume();
    }
 80026c6:	bf00      	nop
 80026c8:	3710      	adds	r7, #16
 80026ca:	46bd      	mov	sp, r7
 80026cc:	bd80      	pop	{r7, pc}
 80026ce:	bf00      	nop
 80026d0:	20000008 	.word	0x20000008
 80026d4:	200000e8 	.word	0x200000e8
 80026d8:	2000000c 	.word	0x2000000c
 80026dc:	e000ed04 	.word	0xe000ed04

080026e0 <xTaskResumeFromISR>:
/*-----------------------------------------------------------*/

#if ( ( INCLUDE_xTaskResumeFromISR == 1 ) && ( INCLUDE_vTaskSuspend == 1 ) )

    BaseType_t xTaskResumeFromISR( TaskHandle_t xTaskToResume )
    {
 80026e0:	b580      	push	{r7, lr}
 80026e2:	b08a      	sub	sp, #40	@ 0x28
 80026e4:	af00      	add	r7, sp, #0
 80026e6:	6078      	str	r0, [r7, #4]
        BaseType_t xYieldRequired = pdFALSE;
 80026e8:	2300      	movs	r3, #0
 80026ea:	627b      	str	r3, [r7, #36]	@ 0x24
        TCB_t * const pxTCB = xTaskToResume;
 80026ec:	687b      	ldr	r3, [r7, #4]
 80026ee:	623b      	str	r3, [r7, #32]
    __asm volatile
 80026f0:	f3ef 8211 	mrs	r2, BASEPRI
 80026f4:	f04f 0350 	mov.w	r3, #80	@ 0x50
 80026f8:	f383 8811 	msr	BASEPRI, r3
 80026fc:	f3bf 8f6f 	isb	sy
 8002700:	f3bf 8f4f 	dsb	sy
 8002704:	617a      	str	r2, [r7, #20]
 8002706:	613b      	str	r3, [r7, #16]
    return ulOriginalBASEPRI;
 8002708:	697b      	ldr	r3, [r7, #20]
        portASSERT_IF_INTERRUPT_PRIORITY_INVALID();

        /* MISRA Ref 4.7.1 [Return value shall be checked] */
        /* More details at: https://github.com/FreeRTOS/FreeRTOS-Kernel/blob/main/MISRA.md#dir-47 */
        /* coverity[misra_c_2012_directive_4_7_violation] */
        uxSavedInterruptStatus = taskENTER_CRITICAL_FROM_ISR();
 800270a:	61fb      	str	r3, [r7, #28]
        {
            if( prvTaskIsTaskSuspended( pxTCB ) != pdFALSE )
 800270c:	6a38      	ldr	r0, [r7, #32]
 800270e:	f7ff ff35 	bl	800257c <prvTaskIsTaskSuspended>
 8002712:	4603      	mov	r3, r0
 8002714:	2b00      	cmp	r3, #0
 8002716:	d05c      	beq.n	80027d2 <xTaskResumeFromISR+0xf2>
            {
                traceTASK_RESUME_FROM_ISR( pxTCB );

                /* Check the ready lists can be accessed. */
                if( uxSchedulerSuspended == ( UBaseType_t ) 0U )
 8002718:	4b33      	ldr	r3, [pc, #204]	@ (80027e8 <xTaskResumeFromISR+0x108>)
 800271a:	681b      	ldr	r3, [r3, #0]
 800271c:	2b00      	cmp	r3, #0
 800271e:	d152      	bne.n	80027c6 <xTaskResumeFromISR+0xe6>
                {
                    #if ( configNUMBER_OF_CORES == 1 )
                    {
                        /* Ready lists can be accessed so move the task from the
                         * suspended list to the ready list directly. */
                        if( pxTCB->uxPriority > pxCurrentTCB->uxPriority )
 8002720:	6a3b      	ldr	r3, [r7, #32]
 8002722:	6ada      	ldr	r2, [r3, #44]	@ 0x2c
 8002724:	4b31      	ldr	r3, [pc, #196]	@ (80027ec <xTaskResumeFromISR+0x10c>)
 8002726:	681b      	ldr	r3, [r3, #0]
 8002728:	6adb      	ldr	r3, [r3, #44]	@ 0x2c
 800272a:	429a      	cmp	r2, r3
 800272c:	d904      	bls.n	8002738 <xTaskResumeFromISR+0x58>
                        {
                            xYieldRequired = pdTRUE;
 800272e:	2301      	movs	r3, #1
 8002730:	627b      	str	r3, [r7, #36]	@ 0x24

                            /* Mark that a yield is pending in case the user is not
                             * using the return value to initiate a context switch
                             * from the ISR using the port specific portYIELD_FROM_ISR(). */
                            xYieldPendings[ 0 ] = pdTRUE;
 8002732:	4b2f      	ldr	r3, [pc, #188]	@ (80027f0 <xTaskResumeFromISR+0x110>)
 8002734:	2201      	movs	r2, #1
 8002736:	601a      	str	r2, [r3, #0]
                            mtCOVERAGE_TEST_MARKER();
                        }
                    }
                    #endif /* #if ( configNUMBER_OF_CORES == 1 ) */

                    ( void ) uxListRemove( &( pxTCB->xStateListItem ) );
 8002738:	6a3b      	ldr	r3, [r7, #32]
 800273a:	3304      	adds	r3, #4
 800273c:	4618      	mov	r0, r3
 800273e:	f7fd ffe5 	bl	800070c <uxListRemove>
                    prvAddTaskToReadyList( pxTCB );
 8002742:	6a3b      	ldr	r3, [r7, #32]
 8002744:	6adb      	ldr	r3, [r3, #44]	@ 0x2c
 8002746:	2201      	movs	r2, #1
 8002748:	409a      	lsls	r2, r3
 800274a:	4b2a      	ldr	r3, [pc, #168]	@ (80027f4 <xTaskResumeFromISR+0x114>)
 800274c:	681b      	ldr	r3, [r3, #0]
 800274e:	4313      	orrs	r3, r2
 8002750:	4a28      	ldr	r2, [pc, #160]	@ (80027f4 <xTaskResumeFromISR+0x114>)
 8002752:	6013      	str	r3, [r2, #0]
 8002754:	6a3b      	ldr	r3, [r7, #32]
 8002756:	6ada      	ldr	r2, [r3, #44]	@ 0x2c
 8002758:	4927      	ldr	r1, [pc, #156]	@ (80027f8 <xTaskResumeFromISR+0x118>)
 800275a:	4613      	mov	r3, r2
 800275c:	009b      	lsls	r3, r3, #2
 800275e:	4413      	add	r3, r2
 8002760:	009b      	lsls	r3, r3, #2
 8002762:	440b      	add	r3, r1
 8002764:	3304      	adds	r3, #4
 8002766:	681b      	ldr	r3, [r3, #0]
 8002768:	61bb      	str	r3, [r7, #24]
 800276a:	6a3b      	ldr	r3, [r7, #32]
 800276c:	69ba      	ldr	r2, [r7, #24]
 800276e:	609a      	str	r2, [r3, #8]
 8002770:	69bb      	ldr	r3, [r7, #24]
 8002772:	689a      	ldr	r2, [r3, #8]
 8002774:	6a3b      	ldr	r3, [r7, #32]
 8002776:	60da      	str	r2, [r3, #12]
 8002778:	69bb      	ldr	r3, [r7, #24]
 800277a:	689b      	ldr	r3, [r3, #8]
 800277c:	6a3a      	ldr	r2, [r7, #32]
 800277e:	3204      	adds	r2, #4
 8002780:	605a      	str	r2, [r3, #4]
 8002782:	6a3b      	ldr	r3, [r7, #32]
 8002784:	1d1a      	adds	r2, r3, #4
 8002786:	69bb      	ldr	r3, [r7, #24]
 8002788:	609a      	str	r2, [r3, #8]
 800278a:	6a3b      	ldr	r3, [r7, #32]
 800278c:	6ada      	ldr	r2, [r3, #44]	@ 0x2c
 800278e:	4613      	mov	r3, r2
 8002790:	009b      	lsls	r3, r3, #2
 8002792:	4413      	add	r3, r2
 8002794:	009b      	lsls	r3, r3, #2
 8002796:	4a18      	ldr	r2, [pc, #96]	@ (80027f8 <xTaskResumeFromISR+0x118>)
 8002798:	441a      	add	r2, r3
 800279a:	6a3b      	ldr	r3, [r7, #32]
 800279c:	615a      	str	r2, [r3, #20]
 800279e:	6a3b      	ldr	r3, [r7, #32]
 80027a0:	6ada      	ldr	r2, [r3, #44]	@ 0x2c
 80027a2:	4915      	ldr	r1, [pc, #84]	@ (80027f8 <xTaskResumeFromISR+0x118>)
 80027a4:	4613      	mov	r3, r2
 80027a6:	009b      	lsls	r3, r3, #2
 80027a8:	4413      	add	r3, r2
 80027aa:	009b      	lsls	r3, r3, #2
 80027ac:	440b      	add	r3, r1
 80027ae:	681b      	ldr	r3, [r3, #0]
 80027b0:	6a3a      	ldr	r2, [r7, #32]
 80027b2:	6ad2      	ldr	r2, [r2, #44]	@ 0x2c
 80027b4:	1c59      	adds	r1, r3, #1
 80027b6:	4810      	ldr	r0, [pc, #64]	@ (80027f8 <xTaskResumeFromISR+0x118>)
 80027b8:	4613      	mov	r3, r2
 80027ba:	009b      	lsls	r3, r3, #2
 80027bc:	4413      	add	r3, r2
 80027be:	009b      	lsls	r3, r3, #2
 80027c0:	4403      	add	r3, r0
 80027c2:	6019      	str	r1, [r3, #0]
 80027c4:	e005      	b.n	80027d2 <xTaskResumeFromISR+0xf2>
                else
                {
                    /* The delayed or ready lists cannot be accessed so the task
                     * is held in the pending ready list until the scheduler is
                     * unsuspended. */
                    vListInsertEnd( &( xPendingReadyList ), &( pxTCB->xEventListItem ) );
 80027c6:	6a3b      	ldr	r3, [r7, #32]
 80027c8:	3318      	adds	r3, #24
 80027ca:	4619      	mov	r1, r3
 80027cc:	480b      	ldr	r0, [pc, #44]	@ (80027fc <xTaskResumeFromISR+0x11c>)
 80027ce:	f7fd ff40 	bl	8000652 <vListInsertEnd>
 80027d2:	69fb      	ldr	r3, [r7, #28]
 80027d4:	60fb      	str	r3, [r7, #12]
    __asm volatile
 80027d6:	68fb      	ldr	r3, [r7, #12]
 80027d8:	f383 8811 	msr	BASEPRI, r3
}
 80027dc:	bf00      	nop
        }
        taskEXIT_CRITICAL_FROM_ISR( uxSavedInterruptStatus );

        traceRETURN_xTaskResumeFromISR( xYieldRequired );

        return xYieldRequired;
 80027de:	6a7b      	ldr	r3, [r7, #36]	@ 0x24
    }
 80027e0:	4618      	mov	r0, r3
 80027e2:	3728      	adds	r7, #40	@ 0x28
 80027e4:	46bd      	mov	sp, r7
 80027e6:	bd80      	pop	{r7, pc}
 80027e8:	20000108 	.word	0x20000108
 80027ec:	20000008 	.word	0x20000008
 80027f0:	200000f4 	.word	0x200000f4
 80027f4:	200000e8 	.word	0x200000e8
 80027f8:	2000000c 	.word	0x2000000c
 80027fc:	200000a0 	.word	0x200000a0

08002800 <prvCreateIdleTasks>:

#endif /* ( ( INCLUDE_xTaskResumeFromISR == 1 ) && ( INCLUDE_vTaskSuspend == 1 ) ) */
/*-----------------------------------------------------------*/

static BaseType_t prvCreateIdleTasks( void )
{
 8002800:	b580      	push	{r7, lr}
 8002802:	b08a      	sub	sp, #40	@ 0x28
 8002804:	af02      	add	r7, sp, #8
    BaseType_t xReturn = pdPASS;
 8002806:	2301      	movs	r3, #1
 8002808:	61fb      	str	r3, [r7, #28]
    BaseType_t xCoreID;
    char cIdleName[ configMAX_TASK_NAME_LEN ] = { 0 };
 800280a:	463b      	mov	r3, r7
 800280c:	2200      	movs	r2, #0
 800280e:	601a      	str	r2, [r3, #0]
 8002810:	605a      	str	r2, [r3, #4]
 8002812:	609a      	str	r2, [r3, #8]
 8002814:	60da      	str	r2, [r3, #12]
    TaskFunction_t pxIdleTaskFunction = NULL;
 8002816:	2300      	movs	r3, #0
 8002818:	613b      	str	r3, [r7, #16]
    UBaseType_t xIdleTaskNameIndex;

    /* MISRA Ref 14.3.1 [Configuration dependent invariant] */
    /* More details at: https://github.com/FreeRTOS/FreeRTOS-Kernel/blob/main/MISRA.md#rule-143. */
    /* coverity[misra_c_2012_rule_14_3_violation] */
    for( xIdleTaskNameIndex = 0U; xIdleTaskNameIndex < ( configMAX_TASK_NAME_LEN - taskRESERVED_TASK_NAME_LENGTH ); xIdleTaskNameIndex++ )
 800281a:	2300      	movs	r3, #0
 800281c:	617b      	str	r3, [r7, #20]
 800281e:	e011      	b.n	8002844 <prvCreateIdleTasks+0x44>
    {
        /* MISRA Ref 18.1.1 [Configuration dependent bounds checking] */
        /* More details at: https://github.com/FreeRTOS/FreeRTOS-Kernel/blob/main/MISRA.md#rule-181. */
        /* coverity[misra_c_2012_rule_18_1_violation] */
        cIdleName[ xIdleTaskNameIndex ] = configIDLE_TASK_NAME[ xIdleTaskNameIndex ];
 8002820:	4a1f      	ldr	r2, [pc, #124]	@ (80028a0 <prvCreateIdleTasks+0xa0>)
 8002822:	697b      	ldr	r3, [r7, #20]
 8002824:	4413      	add	r3, r2
 8002826:	7819      	ldrb	r1, [r3, #0]
 8002828:	463a      	mov	r2, r7
 800282a:	697b      	ldr	r3, [r7, #20]
 800282c:	4413      	add	r3, r2
 800282e:	460a      	mov	r2, r1
 8002830:	701a      	strb	r2, [r3, #0]

        if( cIdleName[ xIdleTaskNameIndex ] == ( char ) 0x00 )
 8002832:	463a      	mov	r2, r7
 8002834:	697b      	ldr	r3, [r7, #20]
 8002836:	4413      	add	r3, r2
 8002838:	781b      	ldrb	r3, [r3, #0]
 800283a:	2b00      	cmp	r3, #0
 800283c:	d006      	beq.n	800284c <prvCreateIdleTasks+0x4c>
    for( xIdleTaskNameIndex = 0U; xIdleTaskNameIndex < ( configMAX_TASK_NAME_LEN - taskRESERVED_TASK_NAME_LENGTH ); xIdleTaskNameIndex++ )
 800283e:	697b      	ldr	r3, [r7, #20]
 8002840:	3301      	adds	r3, #1
 8002842:	617b      	str	r3, [r7, #20]
 8002844:	697b      	ldr	r3, [r7, #20]
 8002846:	2b0e      	cmp	r3, #14
 8002848:	d9ea      	bls.n	8002820 <prvCreateIdleTasks+0x20>
 800284a:	e000      	b.n	800284e <prvCreateIdleTasks+0x4e>
        {
            break;
 800284c:	bf00      	nop
            mtCOVERAGE_TEST_MARKER();
        }
    }

    /* Ensure null termination. */
    cIdleName[ xIdleTaskNameIndex ] = '\0';
 800284e:	463a      	mov	r2, r7
 8002850:	697b      	ldr	r3, [r7, #20]
 8002852:	4413      	add	r3, r2
 8002854:	2200      	movs	r2, #0
 8002856:	701a      	strb	r2, [r3, #0]

    /* Add each idle task at the lowest priority. */
    for( xCoreID = ( BaseType_t ) 0; xCoreID < ( BaseType_t ) configNUMBER_OF_CORES; xCoreID++ )
 8002858:	2300      	movs	r3, #0
 800285a:	61bb      	str	r3, [r7, #24]
 800285c:	e015      	b.n	800288a <prvCreateIdleTasks+0x8a>
    {
        #if ( configNUMBER_OF_CORES == 1 )
        {
            pxIdleTaskFunction = &prvIdleTask;
 800285e:	4b11      	ldr	r3, [pc, #68]	@ (80028a4 <prvCreateIdleTasks+0xa4>)
 8002860:	613b      	str	r3, [r7, #16]
            }
        }
        #else /* if ( configSUPPORT_STATIC_ALLOCATION == 1 ) */
        {
            /* The Idle task is being created using dynamically allocated RAM. */
            xReturn = xTaskCreate( pxIdleTaskFunction,
 8002862:	69bb      	ldr	r3, [r7, #24]
 8002864:	009b      	lsls	r3, r3, #2
 8002866:	4a10      	ldr	r2, [pc, #64]	@ (80028a8 <prvCreateIdleTasks+0xa8>)
 8002868:	4413      	add	r3, r2
 800286a:	4639      	mov	r1, r7
 800286c:	9301      	str	r3, [sp, #4]
 800286e:	2300      	movs	r3, #0
 8002870:	9300      	str	r3, [sp, #0]
 8002872:	2300      	movs	r3, #0
 8002874:	2280      	movs	r2, #128	@ 0x80
 8002876:	6938      	ldr	r0, [r7, #16]
 8002878:	f7ff fc14 	bl	80020a4 <xTaskCreate>
 800287c:	61f8      	str	r0, [r7, #28]
                                   &xIdleTaskHandles[ xCoreID ] );
        }
        #endif /* configSUPPORT_STATIC_ALLOCATION */

        /* Break the loop if any of the idle task is failed to be created. */
        if( xReturn != pdPASS )
 800287e:	69fb      	ldr	r3, [r7, #28]
 8002880:	2b01      	cmp	r3, #1
 8002882:	d106      	bne.n	8002892 <prvCreateIdleTasks+0x92>
    for( xCoreID = ( BaseType_t ) 0; xCoreID < ( BaseType_t ) configNUMBER_OF_CORES; xCoreID++ )
 8002884:	69bb      	ldr	r3, [r7, #24]
 8002886:	3301      	adds	r3, #1
 8002888:	61bb      	str	r3, [r7, #24]
 800288a:	69bb      	ldr	r3, [r7, #24]
 800288c:	2b00      	cmp	r3, #0
 800288e:	dde6      	ble.n	800285e <prvCreateIdleTasks+0x5e>
 8002890:	e000      	b.n	8002894 <prvCreateIdleTasks+0x94>
        {
            break;
 8002892:	bf00      	nop
            }
            #endif
        }
    }

    return xReturn;
 8002894:	69fb      	ldr	r3, [r7, #28]
}
 8002896:	4618      	mov	r0, r3
 8002898:	3720      	adds	r7, #32
 800289a:	46bd      	mov	sp, r7
 800289c:	bd80      	pop	{r7, pc}
 800289e:	bf00      	nop
 80028a0:	08005428 	.word	0x08005428
 80028a4:	0800342d 	.word	0x0800342d
 80028a8:	20000104 	.word	0x20000104

080028ac <vTaskStartScheduler>:

/*-----------------------------------------------------------*/

void vTaskStartScheduler( void )
{
 80028ac:	b580      	push	{r7, lr}
 80028ae:	b082      	sub	sp, #8
 80028b0:	af00      	add	r7, sp, #0
         * the number of bits as confNUMBER_OF_CORES. */
        configASSERT( ( sizeof( UBaseType_t ) * taskBITS_PER_BYTE ) >= configNUMBER_OF_CORES );
    }
    #endif /* #if ( configUSE_CORE_AFFINITY == 1 ) && ( configNUMBER_OF_CORES > 1 ) */

    xReturn = prvCreateIdleTasks();
 80028b2:	f7ff ffa5 	bl	8002800 <prvCreateIdleTasks>
 80028b6:	6078      	str	r0, [r7, #4]

    #if ( configUSE_TIMERS == 1 )
    {
        if( xReturn == pdPASS )
 80028b8:	687b      	ldr	r3, [r7, #4]
 80028ba:	2b01      	cmp	r3, #1
 80028bc:	d102      	bne.n	80028c4 <vTaskStartScheduler+0x18>
        {
            xReturn = xTimerCreateTimerTask();
 80028be:	f001 fdbf 	bl	8004440 <xTimerCreateTimerTask>
 80028c2:	6078      	str	r0, [r7, #4]
            mtCOVERAGE_TEST_MARKER();
        }
    }
    #endif /* configUSE_TIMERS */

    if( xReturn == pdPASS )
 80028c4:	687b      	ldr	r3, [r7, #4]
 80028c6:	2b01      	cmp	r3, #1
 80028c8:	d115      	bne.n	80028f6 <vTaskStartScheduler+0x4a>
    __asm volatile
 80028ca:	f04f 0350 	mov.w	r3, #80	@ 0x50
 80028ce:	f383 8811 	msr	BASEPRI, r3
 80028d2:	f3bf 8f6f 	isb	sy
 80028d6:	f3bf 8f4f 	dsb	sy
 80028da:	603b      	str	r3, [r7, #0]
}
 80028dc:	bf00      	nop
             * block specific to the task that will run first. */
            configSET_TLS_BLOCK( pxCurrentTCB->xTLSBlock );
        }
        #endif

        xNextTaskUnblockTime = portMAX_DELAY;
 80028de:	4b09      	ldr	r3, [pc, #36]	@ (8002904 <vTaskStartScheduler+0x58>)
 80028e0:	f04f 32ff 	mov.w	r2, #4294967295
 80028e4:	601a      	str	r2, [r3, #0]
        xSchedulerRunning = pdTRUE;
 80028e6:	4b08      	ldr	r3, [pc, #32]	@ (8002908 <vTaskStartScheduler+0x5c>)
 80028e8:	2201      	movs	r2, #1
 80028ea:	601a      	str	r2, [r3, #0]
        xTickCount = ( TickType_t ) configINITIAL_TICK_COUNT;
 80028ec:	4b07      	ldr	r3, [pc, #28]	@ (800290c <vTaskStartScheduler+0x60>)
 80028ee:	2200      	movs	r2, #0
 80028f0:	601a      	str	r2, [r3, #0]
        /* Setting up the timer tick is hardware specific and thus in the
         * portable interface. */

        /* The return value for xPortStartScheduler is not required
         * hence using a void datatype. */
        ( void ) xPortStartScheduler();
 80028f2:	f002 f9fe 	bl	8004cf2 <xPortStartScheduler>
     * meaning xIdleTaskHandles are not used anywhere else. */
    ( void ) xIdleTaskHandles;

    /* OpenOCD makes use of uxTopUsedPriority for thread debugging. Prevent uxTopUsedPriority
     * from getting optimized out as it is no longer used by the kernel. */
    ( void ) uxTopUsedPriority;
 80028f6:	4b06      	ldr	r3, [pc, #24]	@ (8002910 <vTaskStartScheduler+0x64>)
 80028f8:	681b      	ldr	r3, [r3, #0]

    traceRETURN_vTaskStartScheduler();
}
 80028fa:	bf00      	nop
 80028fc:	3708      	adds	r7, #8
 80028fe:	46bd      	mov	sp, r7
 8002900:	bd80      	pop	{r7, pc}
 8002902:	bf00      	nop
 8002904:	20000100 	.word	0x20000100
 8002908:	200000ec 	.word	0x200000ec
 800290c:	200000e4 	.word	0x200000e4
 8002910:	08005424 	.word	0x08005424

08002914 <vTaskEndScheduler>:
/*-----------------------------------------------------------*/

void vTaskEndScheduler( void )
{
 8002914:	b580      	push	{r7, lr}
 8002916:	b082      	sub	sp, #8
 8002918:	af00      	add	r7, sp, #0
        BaseType_t xCoreID;

        #if ( configUSE_TIMERS == 1 )
        {
            /* Delete the timer task created by the kernel. */
            vTaskDelete( xTimerGetTimerDaemonTaskHandle() );
 800291a:	f001 fe63 	bl	80045e4 <xTimerGetTimerDaemonTaskHandle>
 800291e:	4603      	mov	r3, r0
 8002920:	4618      	mov	r0, r3
 8002922:	f7ff fce7 	bl	80022f4 <vTaskDelete>
        }
        #endif /* #if ( configUSE_TIMERS == 1 ) */

        /* Delete Idle tasks created by the kernel.*/
        for( xCoreID = 0; xCoreID < ( BaseType_t ) configNUMBER_OF_CORES; xCoreID++ )
 8002926:	2300      	movs	r3, #0
 8002928:	607b      	str	r3, [r7, #4]
 800292a:	e009      	b.n	8002940 <vTaskEndScheduler+0x2c>
        {
            vTaskDelete( xIdleTaskHandles[ xCoreID ] );
 800292c:	4a10      	ldr	r2, [pc, #64]	@ (8002970 <vTaskEndScheduler+0x5c>)
 800292e:	687b      	ldr	r3, [r7, #4]
 8002930:	f852 3023 	ldr.w	r3, [r2, r3, lsl #2]
 8002934:	4618      	mov	r0, r3
 8002936:	f7ff fcdd 	bl	80022f4 <vTaskDelete>
        for( xCoreID = 0; xCoreID < ( BaseType_t ) configNUMBER_OF_CORES; xCoreID++ )
 800293a:	687b      	ldr	r3, [r7, #4]
 800293c:	3301      	adds	r3, #1
 800293e:	607b      	str	r3, [r7, #4]
 8002940:	687b      	ldr	r3, [r7, #4]
 8002942:	2b00      	cmp	r3, #0
 8002944:	ddf2      	ble.n	800292c <vTaskEndScheduler+0x18>

        /* Idle task is responsible for reclaiming the resources of the tasks in
         * xTasksWaitingTermination list. Since the idle task is now deleted and
         * no longer going to run, we need to reclaim resources of all the tasks
         * in the xTasksWaitingTermination list. */
        prvCheckTasksWaitingTermination();
 8002946:	f000 fdc9 	bl	80034dc <prvCheckTasksWaitingTermination>
    __asm volatile
 800294a:	f04f 0350 	mov.w	r3, #80	@ 0x50
 800294e:	f383 8811 	msr	BASEPRI, r3
 8002952:	f3bf 8f6f 	isb	sy
 8002956:	f3bf 8f4f 	dsb	sy
 800295a:	603b      	str	r3, [r7, #0]
}
 800295c:	bf00      	nop

    /* Stop the scheduler interrupts and call the portable scheduler end
     * routine so the original ISRs can be restored if necessary.  The port
     * layer must ensure interrupts enable  bit is left in the correct state. */
    portDISABLE_INTERRUPTS();
    xSchedulerRunning = pdFALSE;
 800295e:	4b05      	ldr	r3, [pc, #20]	@ (8002974 <vTaskEndScheduler+0x60>)
 8002960:	2200      	movs	r2, #0
 8002962:	601a      	str	r2, [r3, #0]

    /* This function must be called from a task and the application is
     * responsible for deleting that task after the scheduler is stopped. */
    vPortEndScheduler();
 8002964:	f002 f9fc 	bl	8004d60 <vPortEndScheduler>

    traceRETURN_vTaskEndScheduler();
}
 8002968:	bf00      	nop
 800296a:	3708      	adds	r7, #8
 800296c:	46bd      	mov	sp, r7
 800296e:	bd80      	pop	{r7, pc}
 8002970:	20000104 	.word	0x20000104
 8002974:	200000ec 	.word	0x200000ec

08002978 <vTaskSuspendAll>:
/*----------------------------------------------------------*/

void vTaskSuspendAll( void )
{
 8002978:	b480      	push	{r7}
 800297a:	af00      	add	r7, sp, #0
         * do not otherwise exhibit real time behaviour. */
        portSOFTWARE_BARRIER();

        /* The scheduler is suspended if uxSchedulerSuspended is non-zero.  An increment
         * is used to allow calls to vTaskSuspendAll() to nest. */
        uxSchedulerSuspended = ( UBaseType_t ) ( uxSchedulerSuspended + 1U );
 800297c:	4b04      	ldr	r3, [pc, #16]	@ (8002990 <vTaskSuspendAll+0x18>)
 800297e:	681b      	ldr	r3, [r3, #0]
 8002980:	3301      	adds	r3, #1
 8002982:	4a03      	ldr	r2, [pc, #12]	@ (8002990 <vTaskSuspendAll+0x18>)
 8002984:	6013      	str	r3, [r2, #0]
        }
    }
    #endif /* #if ( configNUMBER_OF_CORES == 1 ) */

    traceRETURN_vTaskSuspendAll();
}
 8002986:	bf00      	nop
 8002988:	46bd      	mov	sp, r7
 800298a:	f85d 7b04 	ldr.w	r7, [sp], #4
 800298e:	4770      	bx	lr
 8002990:	20000108 	.word	0x20000108

08002994 <xTaskResumeAll>:

#endif /* configUSE_TICKLESS_IDLE */
/*----------------------------------------------------------*/

BaseType_t xTaskResumeAll( void )
{
 8002994:	b580      	push	{r7, lr}
 8002996:	b088      	sub	sp, #32
 8002998:	af00      	add	r7, sp, #0
    TCB_t * pxTCB = NULL;
 800299a:	2300      	movs	r3, #0
 800299c:	61fb      	str	r3, [r7, #28]
    BaseType_t xAlreadyYielded = pdFALSE;
 800299e:	2300      	movs	r3, #0
 80029a0:	61bb      	str	r3, [r7, #24]
        /* It is possible that an ISR caused a task to be removed from an event
         * list while the scheduler was suspended.  If this was the case then the
         * removed task will have been added to the xPendingReadyList.  Once the
         * scheduler has been resumed it is safe to move all the pending ready
         * tasks from this list into their appropriate ready list. */
        taskENTER_CRITICAL();
 80029a2:	f002 f9e4 	bl	8004d6e <vPortEnterCritical>
        {
            const BaseType_t xCoreID = ( BaseType_t ) portGET_CORE_ID();
 80029a6:	2300      	movs	r3, #0
 80029a8:	613b      	str	r3, [r7, #16]

            /* If uxSchedulerSuspended is zero then this function does not match a
             * previous call to vTaskSuspendAll(). */
            configASSERT( uxSchedulerSuspended != 0U );

            uxSchedulerSuspended = ( UBaseType_t ) ( uxSchedulerSuspended - 1U );
 80029aa:	4b6d      	ldr	r3, [pc, #436]	@ (8002b60 <xTaskResumeAll+0x1cc>)
 80029ac:	681b      	ldr	r3, [r3, #0]
 80029ae:	3b01      	subs	r3, #1
 80029b0:	4a6b      	ldr	r2, [pc, #428]	@ (8002b60 <xTaskResumeAll+0x1cc>)
 80029b2:	6013      	str	r3, [r2, #0]
            portRELEASE_TASK_LOCK( xCoreID );

            if( uxSchedulerSuspended == ( UBaseType_t ) 0U )
 80029b4:	4b6a      	ldr	r3, [pc, #424]	@ (8002b60 <xTaskResumeAll+0x1cc>)
 80029b6:	681b      	ldr	r3, [r3, #0]
 80029b8:	2b00      	cmp	r3, #0
 80029ba:	f040 80ca 	bne.w	8002b52 <xTaskResumeAll+0x1be>
            {
                if( uxCurrentNumberOfTasks > ( UBaseType_t ) 0U )
 80029be:	4b69      	ldr	r3, [pc, #420]	@ (8002b64 <xTaskResumeAll+0x1d0>)
 80029c0:	681b      	ldr	r3, [r3, #0]
 80029c2:	2b00      	cmp	r3, #0
 80029c4:	f000 80c5 	beq.w	8002b52 <xTaskResumeAll+0x1be>
                {
                    /* Move any readied tasks from the pending list into the
                     * appropriate ready list. */
                    while( listLIST_IS_EMPTY( &xPendingReadyList ) == pdFALSE )
 80029c8:	e08e      	b.n	8002ae8 <xTaskResumeAll+0x154>
                    {
                        /* MISRA Ref 11.5.3 [Void pointer assignment] */
                        /* More details at: https://github.com/FreeRTOS/FreeRTOS-Kernel/blob/main/MISRA.md#rule-115 */
                        /* coverity[misra_c_2012_rule_11_5_violation] */
                        pxTCB = listGET_OWNER_OF_HEAD_ENTRY( ( &xPendingReadyList ) );
 80029ca:	4b67      	ldr	r3, [pc, #412]	@ (8002b68 <xTaskResumeAll+0x1d4>)
 80029cc:	68db      	ldr	r3, [r3, #12]
 80029ce:	68db      	ldr	r3, [r3, #12]
 80029d0:	61fb      	str	r3, [r7, #28]
                        listREMOVE_ITEM( &( pxTCB->xEventListItem ) );
 80029d2:	69fb      	ldr	r3, [r7, #28]
 80029d4:	6a9b      	ldr	r3, [r3, #40]	@ 0x28
 80029d6:	60fb      	str	r3, [r7, #12]
 80029d8:	69fb      	ldr	r3, [r7, #28]
 80029da:	69db      	ldr	r3, [r3, #28]
 80029dc:	69fa      	ldr	r2, [r7, #28]
 80029de:	6a12      	ldr	r2, [r2, #32]
 80029e0:	609a      	str	r2, [r3, #8]
 80029e2:	69fb      	ldr	r3, [r7, #28]
 80029e4:	6a1b      	ldr	r3, [r3, #32]
 80029e6:	69fa      	ldr	r2, [r7, #28]
 80029e8:	69d2      	ldr	r2, [r2, #28]
 80029ea:	605a      	str	r2, [r3, #4]
 80029ec:	68fb      	ldr	r3, [r7, #12]
 80029ee:	685a      	ldr	r2, [r3, #4]
 80029f0:	69fb      	ldr	r3, [r7, #28]
 80029f2:	3318      	adds	r3, #24
 80029f4:	429a      	cmp	r2, r3
 80029f6:	d103      	bne.n	8002a00 <xTaskResumeAll+0x6c>
 80029f8:	69fb      	ldr	r3, [r7, #28]
 80029fa:	6a1a      	ldr	r2, [r3, #32]
 80029fc:	68fb      	ldr	r3, [r7, #12]
 80029fe:	605a      	str	r2, [r3, #4]
 8002a00:	69fb      	ldr	r3, [r7, #28]
 8002a02:	2200      	movs	r2, #0
 8002a04:	629a      	str	r2, [r3, #40]	@ 0x28
 8002a06:	68fb      	ldr	r3, [r7, #12]
 8002a08:	681b      	ldr	r3, [r3, #0]
 8002a0a:	1e5a      	subs	r2, r3, #1
 8002a0c:	68fb      	ldr	r3, [r7, #12]
 8002a0e:	601a      	str	r2, [r3, #0]
                        portMEMORY_BARRIER();
                        listREMOVE_ITEM( &( pxTCB->xStateListItem ) );
 8002a10:	69fb      	ldr	r3, [r7, #28]
 8002a12:	695b      	ldr	r3, [r3, #20]
 8002a14:	60bb      	str	r3, [r7, #8]
 8002a16:	69fb      	ldr	r3, [r7, #28]
 8002a18:	689b      	ldr	r3, [r3, #8]
 8002a1a:	69fa      	ldr	r2, [r7, #28]
 8002a1c:	68d2      	ldr	r2, [r2, #12]
 8002a1e:	609a      	str	r2, [r3, #8]
 8002a20:	69fb      	ldr	r3, [r7, #28]
 8002a22:	68db      	ldr	r3, [r3, #12]
 8002a24:	69fa      	ldr	r2, [r7, #28]
 8002a26:	6892      	ldr	r2, [r2, #8]
 8002a28:	605a      	str	r2, [r3, #4]
 8002a2a:	68bb      	ldr	r3, [r7, #8]
 8002a2c:	685a      	ldr	r2, [r3, #4]
 8002a2e:	69fb      	ldr	r3, [r7, #28]
 8002a30:	3304      	adds	r3, #4
 8002a32:	429a      	cmp	r2, r3
 8002a34:	d103      	bne.n	8002a3e <xTaskResumeAll+0xaa>
 8002a36:	69fb      	ldr	r3, [r7, #28]
 8002a38:	68da      	ldr	r2, [r3, #12]
 8002a3a:	68bb      	ldr	r3, [r7, #8]
 8002a3c:	605a      	str	r2, [r3, #4]
 8002a3e:	69fb      	ldr	r3, [r7, #28]
 8002a40:	2200      	movs	r2, #0
 8002a42:	615a      	str	r2, [r3, #20]
 8002a44:	68bb      	ldr	r3, [r7, #8]
 8002a46:	681b      	ldr	r3, [r3, #0]
 8002a48:	1e5a      	subs	r2, r3, #1
 8002a4a:	68bb      	ldr	r3, [r7, #8]
 8002a4c:	601a      	str	r2, [r3, #0]
                        prvAddTaskToReadyList( pxTCB );
 8002a4e:	69fb      	ldr	r3, [r7, #28]
 8002a50:	6adb      	ldr	r3, [r3, #44]	@ 0x2c
 8002a52:	2201      	movs	r2, #1
 8002a54:	409a      	lsls	r2, r3
 8002a56:	4b45      	ldr	r3, [pc, #276]	@ (8002b6c <xTaskResumeAll+0x1d8>)
 8002a58:	681b      	ldr	r3, [r3, #0]
 8002a5a:	4313      	orrs	r3, r2
 8002a5c:	4a43      	ldr	r2, [pc, #268]	@ (8002b6c <xTaskResumeAll+0x1d8>)
 8002a5e:	6013      	str	r3, [r2, #0]
 8002a60:	69fb      	ldr	r3, [r7, #28]
 8002a62:	6ada      	ldr	r2, [r3, #44]	@ 0x2c
 8002a64:	4942      	ldr	r1, [pc, #264]	@ (8002b70 <xTaskResumeAll+0x1dc>)
 8002a66:	4613      	mov	r3, r2
 8002a68:	009b      	lsls	r3, r3, #2
 8002a6a:	4413      	add	r3, r2
 8002a6c:	009b      	lsls	r3, r3, #2
 8002a6e:	440b      	add	r3, r1
 8002a70:	3304      	adds	r3, #4
 8002a72:	681b      	ldr	r3, [r3, #0]
 8002a74:	607b      	str	r3, [r7, #4]
 8002a76:	69fb      	ldr	r3, [r7, #28]
 8002a78:	687a      	ldr	r2, [r7, #4]
 8002a7a:	609a      	str	r2, [r3, #8]
 8002a7c:	687b      	ldr	r3, [r7, #4]
 8002a7e:	689a      	ldr	r2, [r3, #8]
 8002a80:	69fb      	ldr	r3, [r7, #28]
 8002a82:	60da      	str	r2, [r3, #12]
 8002a84:	687b      	ldr	r3, [r7, #4]
 8002a86:	689b      	ldr	r3, [r3, #8]
 8002a88:	69fa      	ldr	r2, [r7, #28]
 8002a8a:	3204      	adds	r2, #4
 8002a8c:	605a      	str	r2, [r3, #4]
 8002a8e:	69fb      	ldr	r3, [r7, #28]
 8002a90:	1d1a      	adds	r2, r3, #4
 8002a92:	687b      	ldr	r3, [r7, #4]
 8002a94:	609a      	str	r2, [r3, #8]
 8002a96:	69fb      	ldr	r3, [r7, #28]
 8002a98:	6ada      	ldr	r2, [r3, #44]	@ 0x2c
 8002a9a:	4613      	mov	r3, r2
 8002a9c:	009b      	lsls	r3, r3, #2
 8002a9e:	4413      	add	r3, r2
 8002aa0:	009b      	lsls	r3, r3, #2
 8002aa2:	4a33      	ldr	r2, [pc, #204]	@ (8002b70 <xTaskResumeAll+0x1dc>)
 8002aa4:	441a      	add	r2, r3
 8002aa6:	69fb      	ldr	r3, [r7, #28]
 8002aa8:	615a      	str	r2, [r3, #20]
 8002aaa:	69fb      	ldr	r3, [r7, #28]
 8002aac:	6ada      	ldr	r2, [r3, #44]	@ 0x2c
 8002aae:	4930      	ldr	r1, [pc, #192]	@ (8002b70 <xTaskResumeAll+0x1dc>)
 8002ab0:	4613      	mov	r3, r2
 8002ab2:	009b      	lsls	r3, r3, #2
 8002ab4:	4413      	add	r3, r2
 8002ab6:	009b      	lsls	r3, r3, #2
 8002ab8:	440b      	add	r3, r1
 8002aba:	681b      	ldr	r3, [r3, #0]
 8002abc:	69fa      	ldr	r2, [r7, #28]
 8002abe:	6ad2      	ldr	r2, [r2, #44]	@ 0x2c
 8002ac0:	1c59      	adds	r1, r3, #1
 8002ac2:	482b      	ldr	r0, [pc, #172]	@ (8002b70 <xTaskResumeAll+0x1dc>)
 8002ac4:	4613      	mov	r3, r2
 8002ac6:	009b      	lsls	r3, r3, #2
 8002ac8:	4413      	add	r3, r2
 8002aca:	009b      	lsls	r3, r3, #2
 8002acc:	4403      	add	r3, r0
 8002ace:	6019      	str	r1, [r3, #0]

                        #if ( configNUMBER_OF_CORES == 1 )
                        {
                            /* If the moved task has a priority higher than the current
                             * task then a yield must be performed. */
                            if( pxTCB->uxPriority > pxCurrentTCB->uxPriority )
 8002ad0:	69fb      	ldr	r3, [r7, #28]
 8002ad2:	6ada      	ldr	r2, [r3, #44]	@ 0x2c
 8002ad4:	4b27      	ldr	r3, [pc, #156]	@ (8002b74 <xTaskResumeAll+0x1e0>)
 8002ad6:	681b      	ldr	r3, [r3, #0]
 8002ad8:	6adb      	ldr	r3, [r3, #44]	@ 0x2c
 8002ada:	429a      	cmp	r2, r3
 8002adc:	d904      	bls.n	8002ae8 <xTaskResumeAll+0x154>
                            {
                                xYieldPendings[ xCoreID ] = pdTRUE;
 8002ade:	4a26      	ldr	r2, [pc, #152]	@ (8002b78 <xTaskResumeAll+0x1e4>)
 8002ae0:	693b      	ldr	r3, [r7, #16]
 8002ae2:	2101      	movs	r1, #1
 8002ae4:	f842 1023 	str.w	r1, [r2, r3, lsl #2]
                    while( listLIST_IS_EMPTY( &xPendingReadyList ) == pdFALSE )
 8002ae8:	4b1f      	ldr	r3, [pc, #124]	@ (8002b68 <xTaskResumeAll+0x1d4>)
 8002aea:	681b      	ldr	r3, [r3, #0]
 8002aec:	2b00      	cmp	r3, #0
 8002aee:	f47f af6c 	bne.w	80029ca <xTaskResumeAll+0x36>
                             * which sets xYieldPendings for the current core to pdTRUE. */
                        }
                        #endif /* #if ( configNUMBER_OF_CORES == 1 ) */
                    }

                    if( pxTCB != NULL )
 8002af2:	69fb      	ldr	r3, [r7, #28]
 8002af4:	2b00      	cmp	r3, #0
 8002af6:	d001      	beq.n	8002afc <xTaskResumeAll+0x168>
                         * which may have prevented the next unblock time from being
                         * re-calculated, in which case re-calculate it now.  Mainly
                         * important for low power tickless implementations, where
                         * this can prevent an unnecessary exit from low power
                         * state. */
                        prvResetNextTaskUnblockTime();
 8002af8:	f000 fd2e 	bl	8003558 <prvResetNextTaskUnblockTime>
                     * It should be safe to call xTaskIncrementTick here from any core
                     * since we are in a critical section and xTaskIncrementTick itself
                     * protects itself within a critical section. Suspending the scheduler
                     * from any core causes xTaskIncrementTick to increment uxPendedCounts. */
                    {
                        TickType_t xPendedCounts = xPendedTicks; /* Non-volatile copy. */
 8002afc:	4b1f      	ldr	r3, [pc, #124]	@ (8002b7c <xTaskResumeAll+0x1e8>)
 8002afe:	681b      	ldr	r3, [r3, #0]
 8002b00:	617b      	str	r3, [r7, #20]

                        if( xPendedCounts > ( TickType_t ) 0U )
 8002b02:	697b      	ldr	r3, [r7, #20]
 8002b04:	2b00      	cmp	r3, #0
 8002b06:	d012      	beq.n	8002b2e <xTaskResumeAll+0x19a>
                        {
                            do
                            {
                                if( xTaskIncrementTick() != pdFALSE )
 8002b08:	f000 f89a 	bl	8002c40 <xTaskIncrementTick>
 8002b0c:	4603      	mov	r3, r0
 8002b0e:	2b00      	cmp	r3, #0
 8002b10:	d004      	beq.n	8002b1c <xTaskResumeAll+0x188>
                                {
                                    /* Other cores are interrupted from
                                     * within xTaskIncrementTick(). */
                                    xYieldPendings[ xCoreID ] = pdTRUE;
 8002b12:	4a19      	ldr	r2, [pc, #100]	@ (8002b78 <xTaskResumeAll+0x1e4>)
 8002b14:	693b      	ldr	r3, [r7, #16]
 8002b16:	2101      	movs	r1, #1
 8002b18:	f842 1023 	str.w	r1, [r2, r3, lsl #2]
                                else
                                {
                                    mtCOVERAGE_TEST_MARKER();
                                }

                                --xPendedCounts;
 8002b1c:	697b      	ldr	r3, [r7, #20]
 8002b1e:	3b01      	subs	r3, #1
 8002b20:	617b      	str	r3, [r7, #20]
                            } while( xPendedCounts > ( TickType_t ) 0U );
 8002b22:	697b      	ldr	r3, [r7, #20]
 8002b24:	2b00      	cmp	r3, #0
 8002b26:	d1ef      	bne.n	8002b08 <xTaskResumeAll+0x174>

                            xPendedTicks = 0;
 8002b28:	4b14      	ldr	r3, [pc, #80]	@ (8002b7c <xTaskResumeAll+0x1e8>)
 8002b2a:	2200      	movs	r2, #0
 8002b2c:	601a      	str	r2, [r3, #0]
                        {
                            mtCOVERAGE_TEST_MARKER();
                        }
                    }

                    if( xYieldPendings[ xCoreID ] != pdFALSE )
 8002b2e:	4a12      	ldr	r2, [pc, #72]	@ (8002b78 <xTaskResumeAll+0x1e4>)
 8002b30:	693b      	ldr	r3, [r7, #16]
 8002b32:	f852 3023 	ldr.w	r3, [r2, r3, lsl #2]
 8002b36:	2b00      	cmp	r3, #0
 8002b38:	d00b      	beq.n	8002b52 <xTaskResumeAll+0x1be>
                    {
                        #if ( configUSE_PREEMPTION != 0 )
                        {
                            xAlreadyYielded = pdTRUE;
 8002b3a:	2301      	movs	r3, #1
 8002b3c:	61bb      	str	r3, [r7, #24]
                        }
                        #endif /* #if ( configUSE_PREEMPTION != 0 ) */

                        #if ( configNUMBER_OF_CORES == 1 )
                        {
                            taskYIELD_TASK_CORE_IF_USING_PREEMPTION( pxCurrentTCB );
 8002b3e:	4b0d      	ldr	r3, [pc, #52]	@ (8002b74 <xTaskResumeAll+0x1e0>)
 8002b40:	681b      	ldr	r3, [r3, #0]
 8002b42:	4b0f      	ldr	r3, [pc, #60]	@ (8002b80 <xTaskResumeAll+0x1ec>)
 8002b44:	f04f 5280 	mov.w	r2, #268435456	@ 0x10000000
 8002b48:	601a      	str	r2, [r3, #0]
 8002b4a:	f3bf 8f4f 	dsb	sy
 8002b4e:	f3bf 8f6f 	isb	sy
            else
            {
                mtCOVERAGE_TEST_MARKER();
            }
        }
        taskEXIT_CRITICAL();
 8002b52:	f002 f927 	bl	8004da4 <vPortExitCritical>
    }

    traceRETURN_xTaskResumeAll( xAlreadyYielded );

    return xAlreadyYielded;
 8002b56:	69bb      	ldr	r3, [r7, #24]
}
 8002b58:	4618      	mov	r0, r3
 8002b5a:	3720      	adds	r7, #32
 8002b5c:	46bd      	mov	sp, r7
 8002b5e:	bd80      	pop	{r7, pc}
 8002b60:	20000108 	.word	0x20000108
 8002b64:	200000e0 	.word	0x200000e0
 8002b68:	200000a0 	.word	0x200000a0
 8002b6c:	200000e8 	.word	0x200000e8
 8002b70:	2000000c 	.word	0x2000000c
 8002b74:	20000008 	.word	0x20000008
 8002b78:	200000f4 	.word	0x200000f4
 8002b7c:	200000f0 	.word	0x200000f0
 8002b80:	e000ed04 	.word	0xe000ed04

08002b84 <xTaskGetTickCount>:
/*-----------------------------------------------------------*/

TickType_t xTaskGetTickCount( void )
{
 8002b84:	b480      	push	{r7}
 8002b86:	b083      	sub	sp, #12
 8002b88:	af00      	add	r7, sp, #0
    traceENTER_xTaskGetTickCount();

    /* Critical section required if running on a 16 bit processor. */
    portTICK_TYPE_ENTER_CRITICAL();
    {
        xTicks = xTickCount;
 8002b8a:	4b05      	ldr	r3, [pc, #20]	@ (8002ba0 <xTaskGetTickCount+0x1c>)
 8002b8c:	681b      	ldr	r3, [r3, #0]
 8002b8e:	607b      	str	r3, [r7, #4]
    }
    portTICK_TYPE_EXIT_CRITICAL();

    traceRETURN_xTaskGetTickCount( xTicks );

    return xTicks;
 8002b90:	687b      	ldr	r3, [r7, #4]
}
 8002b92:	4618      	mov	r0, r3
 8002b94:	370c      	adds	r7, #12
 8002b96:	46bd      	mov	sp, r7
 8002b98:	f85d 7b04 	ldr.w	r7, [sp], #4
 8002b9c:	4770      	bx	lr
 8002b9e:	bf00      	nop
 8002ba0:	200000e4 	.word	0x200000e4

08002ba4 <xTaskGetTickCountFromISR>:
/*-----------------------------------------------------------*/

TickType_t xTaskGetTickCountFromISR( void )
{
 8002ba4:	b480      	push	{r7}
 8002ba6:	b083      	sub	sp, #12
 8002ba8:	af00      	add	r7, sp, #0
     * safe API to ensure interrupt entry is as fast and as simple as possible.
     * More information (albeit Cortex-M specific) is provided on the following
     * link: https://www.FreeRTOS.org/RTOS-Cortex-M3-M4.html */
    portASSERT_IF_INTERRUPT_PRIORITY_INVALID();

    uxSavedInterruptStatus = portTICK_TYPE_SET_INTERRUPT_MASK_FROM_ISR();
 8002baa:	2300      	movs	r3, #0
 8002bac:	607b      	str	r3, [r7, #4]
    {
        xReturn = xTickCount;
 8002bae:	4b05      	ldr	r3, [pc, #20]	@ (8002bc4 <xTaskGetTickCountFromISR+0x20>)
 8002bb0:	681b      	ldr	r3, [r3, #0]
 8002bb2:	603b      	str	r3, [r7, #0]
    }
    portTICK_TYPE_CLEAR_INTERRUPT_MASK_FROM_ISR( uxSavedInterruptStatus );

    traceRETURN_xTaskGetTickCountFromISR( xReturn );

    return xReturn;
 8002bb4:	683b      	ldr	r3, [r7, #0]
}
 8002bb6:	4618      	mov	r0, r3
 8002bb8:	370c      	adds	r7, #12
 8002bba:	46bd      	mov	sp, r7
 8002bbc:	f85d 7b04 	ldr.w	r7, [sp], #4
 8002bc0:	4770      	bx	lr
 8002bc2:	bf00      	nop
 8002bc4:	200000e4 	.word	0x200000e4

08002bc8 <uxTaskGetNumberOfTasks>:
/*-----------------------------------------------------------*/

UBaseType_t uxTaskGetNumberOfTasks( void )
{
 8002bc8:	b480      	push	{r7}
 8002bca:	af00      	add	r7, sp, #0

    /* A critical section is not required because the variables are of type
     * BaseType_t. */
    traceRETURN_uxTaskGetNumberOfTasks( uxCurrentNumberOfTasks );

    return uxCurrentNumberOfTasks;
 8002bcc:	4b03      	ldr	r3, [pc, #12]	@ (8002bdc <uxTaskGetNumberOfTasks+0x14>)
 8002bce:	681b      	ldr	r3, [r3, #0]
}
 8002bd0:	4618      	mov	r0, r3
 8002bd2:	46bd      	mov	sp, r7
 8002bd4:	f85d 7b04 	ldr.w	r7, [sp], #4
 8002bd8:	4770      	bx	lr
 8002bda:	bf00      	nop
 8002bdc:	200000e0 	.word	0x200000e0

08002be0 <pcTaskGetName>:
/*-----------------------------------------------------------*/

char * pcTaskGetName( TaskHandle_t xTaskToQuery )
{
 8002be0:	b480      	push	{r7}
 8002be2:	b085      	sub	sp, #20
 8002be4:	af00      	add	r7, sp, #0
 8002be6:	6078      	str	r0, [r7, #4]

    traceENTER_pcTaskGetName( xTaskToQuery );

    /* If null is passed in here then the name of the calling task is being
     * queried. */
    pxTCB = prvGetTCBFromHandle( xTaskToQuery );
 8002be8:	687b      	ldr	r3, [r7, #4]
 8002bea:	2b00      	cmp	r3, #0
 8002bec:	d102      	bne.n	8002bf4 <pcTaskGetName+0x14>
 8002bee:	4b06      	ldr	r3, [pc, #24]	@ (8002c08 <pcTaskGetName+0x28>)
 8002bf0:	681b      	ldr	r3, [r3, #0]
 8002bf2:	e000      	b.n	8002bf6 <pcTaskGetName+0x16>
 8002bf4:	687b      	ldr	r3, [r7, #4]
 8002bf6:	60fb      	str	r3, [r7, #12]
    configASSERT( pxTCB != NULL );

    traceRETURN_pcTaskGetName( &( pxTCB->pcTaskName[ 0 ] ) );

    return &( pxTCB->pcTaskName[ 0 ] );
 8002bf8:	68fb      	ldr	r3, [r7, #12]
 8002bfa:	3334      	adds	r3, #52	@ 0x34
}
 8002bfc:	4618      	mov	r0, r3
 8002bfe:	3714      	adds	r7, #20
 8002c00:	46bd      	mov	sp, r7
 8002c02:	f85d 7b04 	ldr.w	r7, [sp], #4
 8002c06:	4770      	bx	lr
 8002c08:	20000008 	.word	0x20000008

08002c0c <xTaskCatchUpTicks>:

#endif /* configUSE_TICKLESS_IDLE */
/*----------------------------------------------------------*/

BaseType_t xTaskCatchUpTicks( TickType_t xTicksToCatchUp )
{
 8002c0c:	b580      	push	{r7, lr}
 8002c0e:	b084      	sub	sp, #16
 8002c10:	af00      	add	r7, sp, #0
 8002c12:	6078      	str	r0, [r7, #4]
     * relies on xPendedTicks being wound down to 0 in xTaskResumeAll(). */
    configASSERT( uxSchedulerSuspended == ( UBaseType_t ) 0U );

    /* Use xPendedTicks to mimic xTicksToCatchUp number of ticks occurring when
     * the scheduler is suspended so the ticks are executed in xTaskResumeAll(). */
    vTaskSuspendAll();
 8002c14:	f7ff feb0 	bl	8002978 <vTaskSuspendAll>

    /* Prevent the tick interrupt modifying xPendedTicks simultaneously. */
    taskENTER_CRITICAL();
 8002c18:	f002 f8a9 	bl	8004d6e <vPortEnterCritical>
    {
        xPendedTicks += xTicksToCatchUp;
 8002c1c:	4b07      	ldr	r3, [pc, #28]	@ (8002c3c <xTaskCatchUpTicks+0x30>)
 8002c1e:	681a      	ldr	r2, [r3, #0]
 8002c20:	687b      	ldr	r3, [r7, #4]
 8002c22:	4413      	add	r3, r2
 8002c24:	4a05      	ldr	r2, [pc, #20]	@ (8002c3c <xTaskCatchUpTicks+0x30>)
 8002c26:	6013      	str	r3, [r2, #0]
    }
    taskEXIT_CRITICAL();
 8002c28:	f002 f8bc 	bl	8004da4 <vPortExitCritical>
    xYieldOccurred = xTaskResumeAll();
 8002c2c:	f7ff feb2 	bl	8002994 <xTaskResumeAll>
 8002c30:	60f8      	str	r0, [r7, #12]

    traceRETURN_xTaskCatchUpTicks( xYieldOccurred );

    return xYieldOccurred;
 8002c32:	68fb      	ldr	r3, [r7, #12]
}
 8002c34:	4618      	mov	r0, r3
 8002c36:	3710      	adds	r7, #16
 8002c38:	46bd      	mov	sp, r7
 8002c3a:	bd80      	pop	{r7, pc}
 8002c3c:	200000f0 	.word	0x200000f0

08002c40 <xTaskIncrementTick>:

#endif /* INCLUDE_xTaskAbortDelay */
/*----------------------------------------------------------*/

BaseType_t xTaskIncrementTick( void )
{
 8002c40:	b580      	push	{r7, lr}
 8002c42:	b088      	sub	sp, #32
 8002c44:	af00      	add	r7, sp, #0
    TCB_t * pxTCB;
    TickType_t xItemValue;
    BaseType_t xSwitchRequired = pdFALSE;
 8002c46:	2300      	movs	r3, #0
 8002c48:	61fb      	str	r3, [r7, #28]

    /* Tick increment should occur on every kernel timer event. Core 0 has the
     * responsibility to increment the tick, or increment the pended ticks if the
     * scheduler is suspended.  If pended ticks is greater than zero, the core that
     * calls xTaskResumeAll has the responsibility to increment the tick. */
    if( uxSchedulerSuspended == ( UBaseType_t ) 0U )
 8002c4a:	4b76      	ldr	r3, [pc, #472]	@ (8002e24 <xTaskIncrementTick+0x1e4>)
 8002c4c:	681b      	ldr	r3, [r3, #0]
 8002c4e:	2b00      	cmp	r3, #0
 8002c50:	f040 80de 	bne.w	8002e10 <xTaskIncrementTick+0x1d0>
    {
        /* Minor optimisation.  The tick count cannot change in this
         * block. */
        const TickType_t xConstTickCount = xTickCount + ( TickType_t ) 1;
 8002c54:	4b74      	ldr	r3, [pc, #464]	@ (8002e28 <xTaskIncrementTick+0x1e8>)
 8002c56:	681b      	ldr	r3, [r3, #0]
 8002c58:	3301      	adds	r3, #1
 8002c5a:	61bb      	str	r3, [r7, #24]

        /* Increment the RTOS tick, switching the delayed and overflowed
         * delayed lists if it wraps to 0. */
        xTickCount = xConstTickCount;
 8002c5c:	4a72      	ldr	r2, [pc, #456]	@ (8002e28 <xTaskIncrementTick+0x1e8>)
 8002c5e:	69bb      	ldr	r3, [r7, #24]
 8002c60:	6013      	str	r3, [r2, #0]

        if( xConstTickCount == ( TickType_t ) 0U )
 8002c62:	69bb      	ldr	r3, [r7, #24]
 8002c64:	2b00      	cmp	r3, #0
 8002c66:	d110      	bne.n	8002c8a <xTaskIncrementTick+0x4a>
        {
            taskSWITCH_DELAYED_LISTS();
 8002c68:	4b70      	ldr	r3, [pc, #448]	@ (8002e2c <xTaskIncrementTick+0x1ec>)
 8002c6a:	681b      	ldr	r3, [r3, #0]
 8002c6c:	617b      	str	r3, [r7, #20]
 8002c6e:	4b70      	ldr	r3, [pc, #448]	@ (8002e30 <xTaskIncrementTick+0x1f0>)
 8002c70:	681b      	ldr	r3, [r3, #0]
 8002c72:	4a6e      	ldr	r2, [pc, #440]	@ (8002e2c <xTaskIncrementTick+0x1ec>)
 8002c74:	6013      	str	r3, [r2, #0]
 8002c76:	4a6e      	ldr	r2, [pc, #440]	@ (8002e30 <xTaskIncrementTick+0x1f0>)
 8002c78:	697b      	ldr	r3, [r7, #20]
 8002c7a:	6013      	str	r3, [r2, #0]
 8002c7c:	4b6d      	ldr	r3, [pc, #436]	@ (8002e34 <xTaskIncrementTick+0x1f4>)
 8002c7e:	681b      	ldr	r3, [r3, #0]
 8002c80:	3301      	adds	r3, #1
 8002c82:	4a6c      	ldr	r2, [pc, #432]	@ (8002e34 <xTaskIncrementTick+0x1f4>)
 8002c84:	6013      	str	r3, [r2, #0]
 8002c86:	f000 fc67 	bl	8003558 <prvResetNextTaskUnblockTime>

        /* See if this tick has made a timeout expire.  Tasks are stored in
         * the  queue in the order of their wake time - meaning once one task
         * has been found whose block time has not expired there is no need to
         * look any further down the list. */
        if( xConstTickCount >= xNextTaskUnblockTime )
 8002c8a:	4b6b      	ldr	r3, [pc, #428]	@ (8002e38 <xTaskIncrementTick+0x1f8>)
 8002c8c:	681b      	ldr	r3, [r3, #0]
 8002c8e:	69ba      	ldr	r2, [r7, #24]
 8002c90:	429a      	cmp	r2, r3
 8002c92:	f0c0 80a8 	bcc.w	8002de6 <xTaskIncrementTick+0x1a6>
        {
            for( ; ; )
            {
                if( listLIST_IS_EMPTY( pxDelayedTaskList ) != pdFALSE )
 8002c96:	4b65      	ldr	r3, [pc, #404]	@ (8002e2c <xTaskIncrementTick+0x1ec>)
 8002c98:	681b      	ldr	r3, [r3, #0]
 8002c9a:	681b      	ldr	r3, [r3, #0]
 8002c9c:	2b00      	cmp	r3, #0
 8002c9e:	d104      	bne.n	8002caa <xTaskIncrementTick+0x6a>
                    /* The delayed list is empty.  Set xNextTaskUnblockTime
                     * to the maximum possible value so it is extremely
                     * unlikely that the
                     * if( xTickCount >= xNextTaskUnblockTime ) test will pass
                     * next time through. */
                    xNextTaskUnblockTime = portMAX_DELAY;
 8002ca0:	4b65      	ldr	r3, [pc, #404]	@ (8002e38 <xTaskIncrementTick+0x1f8>)
 8002ca2:	f04f 32ff 	mov.w	r2, #4294967295
 8002ca6:	601a      	str	r2, [r3, #0]
                    break;
 8002ca8:	e09d      	b.n	8002de6 <xTaskIncrementTick+0x1a6>
                     * at which the task at the head of the delayed list must
                     * be removed from the Blocked state. */
                    /* MISRA Ref 11.5.3 [Void pointer assignment] */
                    /* More details at: https://github.com/FreeRTOS/FreeRTOS-Kernel/blob/main/MISRA.md#rule-115 */
                    /* coverity[misra_c_2012_rule_11_5_violation] */
                    pxTCB = listGET_OWNER_OF_HEAD_ENTRY( pxDelayedTaskList );
 8002caa:	4b60      	ldr	r3, [pc, #384]	@ (8002e2c <xTaskIncrementTick+0x1ec>)
 8002cac:	681b      	ldr	r3, [r3, #0]
 8002cae:	68db      	ldr	r3, [r3, #12]
 8002cb0:	68db      	ldr	r3, [r3, #12]
 8002cb2:	613b      	str	r3, [r7, #16]
                    xItemValue = listGET_LIST_ITEM_VALUE( &( pxTCB->xStateListItem ) );
 8002cb4:	693b      	ldr	r3, [r7, #16]
 8002cb6:	685b      	ldr	r3, [r3, #4]
 8002cb8:	60fb      	str	r3, [r7, #12]

                    if( xConstTickCount < xItemValue )
 8002cba:	69ba      	ldr	r2, [r7, #24]
 8002cbc:	68fb      	ldr	r3, [r7, #12]
 8002cbe:	429a      	cmp	r2, r3
 8002cc0:	d203      	bcs.n	8002cca <xTaskIncrementTick+0x8a>
                        /* It is not time to unblock this item yet, but the
                         * item value is the time at which the task at the head
                         * of the blocked list must be removed from the Blocked
                         * state -  so record the item value in
                         * xNextTaskUnblockTime. */
                        xNextTaskUnblockTime = xItemValue;
 8002cc2:	4a5d      	ldr	r2, [pc, #372]	@ (8002e38 <xTaskIncrementTick+0x1f8>)
 8002cc4:	68fb      	ldr	r3, [r7, #12]
 8002cc6:	6013      	str	r3, [r2, #0]
                        break;
 8002cc8:	e08d      	b.n	8002de6 <xTaskIncrementTick+0x1a6>
                    {
                        mtCOVERAGE_TEST_MARKER();
                    }

                    /* It is time to remove the item from the Blocked state. */
                    listREMOVE_ITEM( &( pxTCB->xStateListItem ) );
 8002cca:	693b      	ldr	r3, [r7, #16]
 8002ccc:	695b      	ldr	r3, [r3, #20]
 8002cce:	60bb      	str	r3, [r7, #8]
 8002cd0:	693b      	ldr	r3, [r7, #16]
 8002cd2:	689b      	ldr	r3, [r3, #8]
 8002cd4:	693a      	ldr	r2, [r7, #16]
 8002cd6:	68d2      	ldr	r2, [r2, #12]
 8002cd8:	609a      	str	r2, [r3, #8]
 8002cda:	693b      	ldr	r3, [r7, #16]
 8002cdc:	68db      	ldr	r3, [r3, #12]
 8002cde:	693a      	ldr	r2, [r7, #16]
 8002ce0:	6892      	ldr	r2, [r2, #8]
 8002ce2:	605a      	str	r2, [r3, #4]
 8002ce4:	68bb      	ldr	r3, [r7, #8]
 8002ce6:	685a      	ldr	r2, [r3, #4]
 8002ce8:	693b      	ldr	r3, [r7, #16]
 8002cea:	3304      	adds	r3, #4
 8002cec:	429a      	cmp	r2, r3
 8002cee:	d103      	bne.n	8002cf8 <xTaskIncrementTick+0xb8>
 8002cf0:	693b      	ldr	r3, [r7, #16]
 8002cf2:	68da      	ldr	r2, [r3, #12]
 8002cf4:	68bb      	ldr	r3, [r7, #8]
 8002cf6:	605a      	str	r2, [r3, #4]
 8002cf8:	693b      	ldr	r3, [r7, #16]
 8002cfa:	2200      	movs	r2, #0
 8002cfc:	615a      	str	r2, [r3, #20]
 8002cfe:	68bb      	ldr	r3, [r7, #8]
 8002d00:	681b      	ldr	r3, [r3, #0]
 8002d02:	1e5a      	subs	r2, r3, #1
 8002d04:	68bb      	ldr	r3, [r7, #8]
 8002d06:	601a      	str	r2, [r3, #0]

                    /* Is the task waiting on an event also?  If so remove
                     * it from the event list. */
                    if( listLIST_ITEM_CONTAINER( &( pxTCB->xEventListItem ) ) != NULL )
 8002d08:	693b      	ldr	r3, [r7, #16]
 8002d0a:	6a9b      	ldr	r3, [r3, #40]	@ 0x28
 8002d0c:	2b00      	cmp	r3, #0
 8002d0e:	d01e      	beq.n	8002d4e <xTaskIncrementTick+0x10e>
                    {
                        listREMOVE_ITEM( &( pxTCB->xEventListItem ) );
 8002d10:	693b      	ldr	r3, [r7, #16]
 8002d12:	6a9b      	ldr	r3, [r3, #40]	@ 0x28
 8002d14:	607b      	str	r3, [r7, #4]
 8002d16:	693b      	ldr	r3, [r7, #16]
 8002d18:	69db      	ldr	r3, [r3, #28]
 8002d1a:	693a      	ldr	r2, [r7, #16]
 8002d1c:	6a12      	ldr	r2, [r2, #32]
 8002d1e:	609a      	str	r2, [r3, #8]
 8002d20:	693b      	ldr	r3, [r7, #16]
 8002d22:	6a1b      	ldr	r3, [r3, #32]
 8002d24:	693a      	ldr	r2, [r7, #16]
 8002d26:	69d2      	ldr	r2, [r2, #28]
 8002d28:	605a      	str	r2, [r3, #4]
 8002d2a:	687b      	ldr	r3, [r7, #4]
 8002d2c:	685a      	ldr	r2, [r3, #4]
 8002d2e:	693b      	ldr	r3, [r7, #16]
 8002d30:	3318      	adds	r3, #24
 8002d32:	429a      	cmp	r2, r3
 8002d34:	d103      	bne.n	8002d3e <xTaskIncrementTick+0xfe>
 8002d36:	693b      	ldr	r3, [r7, #16]
 8002d38:	6a1a      	ldr	r2, [r3, #32]
 8002d3a:	687b      	ldr	r3, [r7, #4]
 8002d3c:	605a      	str	r2, [r3, #4]
 8002d3e:	693b      	ldr	r3, [r7, #16]
 8002d40:	2200      	movs	r2, #0
 8002d42:	629a      	str	r2, [r3, #40]	@ 0x28
 8002d44:	687b      	ldr	r3, [r7, #4]
 8002d46:	681b      	ldr	r3, [r3, #0]
 8002d48:	1e5a      	subs	r2, r3, #1
 8002d4a:	687b      	ldr	r3, [r7, #4]
 8002d4c:	601a      	str	r2, [r3, #0]
                        mtCOVERAGE_TEST_MARKER();
                    }

                    /* Place the unblocked task into the appropriate ready
                     * list. */
                    prvAddTaskToReadyList( pxTCB );
 8002d4e:	693b      	ldr	r3, [r7, #16]
 8002d50:	6adb      	ldr	r3, [r3, #44]	@ 0x2c
 8002d52:	2201      	movs	r2, #1
 8002d54:	409a      	lsls	r2, r3
 8002d56:	4b39      	ldr	r3, [pc, #228]	@ (8002e3c <xTaskIncrementTick+0x1fc>)
 8002d58:	681b      	ldr	r3, [r3, #0]
 8002d5a:	4313      	orrs	r3, r2
 8002d5c:	4a37      	ldr	r2, [pc, #220]	@ (8002e3c <xTaskIncrementTick+0x1fc>)
 8002d5e:	6013      	str	r3, [r2, #0]
 8002d60:	693b      	ldr	r3, [r7, #16]
 8002d62:	6ada      	ldr	r2, [r3, #44]	@ 0x2c
 8002d64:	4936      	ldr	r1, [pc, #216]	@ (8002e40 <xTaskIncrementTick+0x200>)
 8002d66:	4613      	mov	r3, r2
 8002d68:	009b      	lsls	r3, r3, #2
 8002d6a:	4413      	add	r3, r2
 8002d6c:	009b      	lsls	r3, r3, #2
 8002d6e:	440b      	add	r3, r1
 8002d70:	3304      	adds	r3, #4
 8002d72:	681b      	ldr	r3, [r3, #0]
 8002d74:	603b      	str	r3, [r7, #0]
 8002d76:	693b      	ldr	r3, [r7, #16]
 8002d78:	683a      	ldr	r2, [r7, #0]
 8002d7a:	609a      	str	r2, [r3, #8]
 8002d7c:	683b      	ldr	r3, [r7, #0]
 8002d7e:	689a      	ldr	r2, [r3, #8]
 8002d80:	693b      	ldr	r3, [r7, #16]
 8002d82:	60da      	str	r2, [r3, #12]
 8002d84:	683b      	ldr	r3, [r7, #0]
 8002d86:	689b      	ldr	r3, [r3, #8]
 8002d88:	693a      	ldr	r2, [r7, #16]
 8002d8a:	3204      	adds	r2, #4
 8002d8c:	605a      	str	r2, [r3, #4]
 8002d8e:	693b      	ldr	r3, [r7, #16]
 8002d90:	1d1a      	adds	r2, r3, #4
 8002d92:	683b      	ldr	r3, [r7, #0]
 8002d94:	609a      	str	r2, [r3, #8]
 8002d96:	693b      	ldr	r3, [r7, #16]
 8002d98:	6ada      	ldr	r2, [r3, #44]	@ 0x2c
 8002d9a:	4613      	mov	r3, r2
 8002d9c:	009b      	lsls	r3, r3, #2
 8002d9e:	4413      	add	r3, r2
 8002da0:	009b      	lsls	r3, r3, #2
 8002da2:	4a27      	ldr	r2, [pc, #156]	@ (8002e40 <xTaskIncrementTick+0x200>)
 8002da4:	441a      	add	r2, r3
 8002da6:	693b      	ldr	r3, [r7, #16]
 8002da8:	615a      	str	r2, [r3, #20]
 8002daa:	693b      	ldr	r3, [r7, #16]
 8002dac:	6ada      	ldr	r2, [r3, #44]	@ 0x2c
 8002dae:	4924      	ldr	r1, [pc, #144]	@ (8002e40 <xTaskIncrementTick+0x200>)
 8002db0:	4613      	mov	r3, r2
 8002db2:	009b      	lsls	r3, r3, #2
 8002db4:	4413      	add	r3, r2
 8002db6:	009b      	lsls	r3, r3, #2
 8002db8:	440b      	add	r3, r1
 8002dba:	681b      	ldr	r3, [r3, #0]
 8002dbc:	693a      	ldr	r2, [r7, #16]
 8002dbe:	6ad2      	ldr	r2, [r2, #44]	@ 0x2c
 8002dc0:	1c59      	adds	r1, r3, #1
 8002dc2:	481f      	ldr	r0, [pc, #124]	@ (8002e40 <xTaskIncrementTick+0x200>)
 8002dc4:	4613      	mov	r3, r2
 8002dc6:	009b      	lsls	r3, r3, #2
 8002dc8:	4413      	add	r3, r2
 8002dca:	009b      	lsls	r3, r3, #2
 8002dcc:	4403      	add	r3, r0
 8002dce:	6019      	str	r1, [r3, #0]
                             * task.
                             * The case of equal priority tasks sharing
                             * processing time (which happens when both
                             * preemption and time slicing are on) is
                             * handled below.*/
                            if( pxTCB->uxPriority > pxCurrentTCB->uxPriority )
 8002dd0:	693b      	ldr	r3, [r7, #16]
 8002dd2:	6ada      	ldr	r2, [r3, #44]	@ 0x2c
 8002dd4:	4b1b      	ldr	r3, [pc, #108]	@ (8002e44 <xTaskIncrementTick+0x204>)
 8002dd6:	681b      	ldr	r3, [r3, #0]
 8002dd8:	6adb      	ldr	r3, [r3, #44]	@ 0x2c
 8002dda:	429a      	cmp	r2, r3
 8002ddc:	f67f af5b 	bls.w	8002c96 <xTaskIncrementTick+0x56>
                            {
                                xSwitchRequired = pdTRUE;
 8002de0:	2301      	movs	r3, #1
 8002de2:	61fb      	str	r3, [r7, #28]
                if( listLIST_IS_EMPTY( pxDelayedTaskList ) != pdFALSE )
 8002de4:	e757      	b.n	8002c96 <xTaskIncrementTick+0x56>
         * writer has not explicitly turned time slicing off. */
        #if ( ( configUSE_PREEMPTION == 1 ) && ( configUSE_TIME_SLICING == 1 ) )
        {
            #if ( configNUMBER_OF_CORES == 1 )
            {
                if( listCURRENT_LIST_LENGTH( &( pxReadyTasksLists[ pxCurrentTCB->uxPriority ] ) ) > 1U )
 8002de6:	4b17      	ldr	r3, [pc, #92]	@ (8002e44 <xTaskIncrementTick+0x204>)
 8002de8:	681b      	ldr	r3, [r3, #0]
 8002dea:	6ada      	ldr	r2, [r3, #44]	@ 0x2c
 8002dec:	4914      	ldr	r1, [pc, #80]	@ (8002e40 <xTaskIncrementTick+0x200>)
 8002dee:	4613      	mov	r3, r2
 8002df0:	009b      	lsls	r3, r3, #2
 8002df2:	4413      	add	r3, r2
 8002df4:	009b      	lsls	r3, r3, #2
 8002df6:	440b      	add	r3, r1
 8002df8:	681b      	ldr	r3, [r3, #0]
 8002dfa:	2b01      	cmp	r3, #1
 8002dfc:	d901      	bls.n	8002e02 <xTaskIncrementTick+0x1c2>
                {
                    xSwitchRequired = pdTRUE;
 8002dfe:	2301      	movs	r3, #1
 8002e00:	61fb      	str	r3, [r7, #28]
        #if ( configUSE_PREEMPTION == 1 )
        {
            #if ( configNUMBER_OF_CORES == 1 )
            {
                /* For single core the core ID is always 0. */
                if( xYieldPendings[ 0 ] != pdFALSE )
 8002e02:	4b11      	ldr	r3, [pc, #68]	@ (8002e48 <xTaskIncrementTick+0x208>)
 8002e04:	681b      	ldr	r3, [r3, #0]
 8002e06:	2b00      	cmp	r3, #0
 8002e08:	d007      	beq.n	8002e1a <xTaskIncrementTick+0x1da>
                {
                    xSwitchRequired = pdTRUE;
 8002e0a:	2301      	movs	r3, #1
 8002e0c:	61fb      	str	r3, [r7, #28]
 8002e0e:	e004      	b.n	8002e1a <xTaskIncrementTick+0x1da>
        }
        #endif /* #if ( configUSE_PREEMPTION == 1 ) */
    }
    else
    {
        xPendedTicks += 1U;
 8002e10:	4b0e      	ldr	r3, [pc, #56]	@ (8002e4c <xTaskIncrementTick+0x20c>)
 8002e12:	681b      	ldr	r3, [r3, #0]
 8002e14:	3301      	adds	r3, #1
 8002e16:	4a0d      	ldr	r2, [pc, #52]	@ (8002e4c <xTaskIncrementTick+0x20c>)
 8002e18:	6013      	str	r3, [r2, #0]
        #endif
    }

    traceRETURN_xTaskIncrementTick( xSwitchRequired );

    return xSwitchRequired;
 8002e1a:	69fb      	ldr	r3, [r7, #28]
}
 8002e1c:	4618      	mov	r0, r3
 8002e1e:	3720      	adds	r7, #32
 8002e20:	46bd      	mov	sp, r7
 8002e22:	bd80      	pop	{r7, pc}
 8002e24:	20000108 	.word	0x20000108
 8002e28:	200000e4 	.word	0x200000e4
 8002e2c:	20000098 	.word	0x20000098
 8002e30:	2000009c 	.word	0x2000009c
 8002e34:	200000f8 	.word	0x200000f8
 8002e38:	20000100 	.word	0x20000100
 8002e3c:	200000e8 	.word	0x200000e8
 8002e40:	2000000c 	.word	0x2000000c
 8002e44:	20000008 	.word	0x20000008
 8002e48:	200000f4 	.word	0x200000f4
 8002e4c:	200000f0 	.word	0x200000f0

08002e50 <vTaskSwitchContext>:
#endif /* configUSE_APPLICATION_TASK_TAG */
/*-----------------------------------------------------------*/

#if ( configNUMBER_OF_CORES == 1 )
    void vTaskSwitchContext( void )
    {
 8002e50:	b580      	push	{r7, lr}
 8002e52:	b088      	sub	sp, #32
 8002e54:	af00      	add	r7, sp, #0
        traceENTER_vTaskSwitchContext();

        if( uxSchedulerSuspended != ( UBaseType_t ) 0U )
 8002e56:	4b34      	ldr	r3, [pc, #208]	@ (8002f28 <vTaskSwitchContext+0xd8>)
 8002e58:	681b      	ldr	r3, [r3, #0]
 8002e5a:	2b00      	cmp	r3, #0
 8002e5c:	d003      	beq.n	8002e66 <vTaskSwitchContext+0x16>
        {
            /* The scheduler is currently suspended - do not allow a context
             * switch. */
            xYieldPendings[ 0 ] = pdTRUE;
 8002e5e:	4b33      	ldr	r3, [pc, #204]	@ (8002f2c <vTaskSwitchContext+0xdc>)
 8002e60:	2201      	movs	r2, #1
 8002e62:	601a      	str	r2, [r3, #0]
            }
            #endif
        }

        traceRETURN_vTaskSwitchContext();
    }
 8002e64:	e05b      	b.n	8002f1e <vTaskSwitchContext+0xce>
            xYieldPendings[ 0 ] = pdFALSE;
 8002e66:	4b31      	ldr	r3, [pc, #196]	@ (8002f2c <vTaskSwitchContext+0xdc>)
 8002e68:	2200      	movs	r2, #0
 8002e6a:	601a      	str	r2, [r3, #0]
            taskCHECK_FOR_STACK_OVERFLOW();
 8002e6c:	4b30      	ldr	r3, [pc, #192]	@ (8002f30 <vTaskSwitchContext+0xe0>)
 8002e6e:	681b      	ldr	r3, [r3, #0]
 8002e70:	6b1b      	ldr	r3, [r3, #48]	@ 0x30
 8002e72:	61fb      	str	r3, [r7, #28]
 8002e74:	f04f 33a5 	mov.w	r3, #2779096485	@ 0xa5a5a5a5
 8002e78:	61bb      	str	r3, [r7, #24]
 8002e7a:	4b2d      	ldr	r3, [pc, #180]	@ (8002f30 <vTaskSwitchContext+0xe0>)
 8002e7c:	681b      	ldr	r3, [r3, #0]
 8002e7e:	681a      	ldr	r2, [r3, #0]
 8002e80:	4b2b      	ldr	r3, [pc, #172]	@ (8002f30 <vTaskSwitchContext+0xe0>)
 8002e82:	681b      	ldr	r3, [r3, #0]
 8002e84:	6b1b      	ldr	r3, [r3, #48]	@ 0x30
 8002e86:	429a      	cmp	r2, r3
 8002e88:	d916      	bls.n	8002eb8 <vTaskSwitchContext+0x68>
 8002e8a:	69fb      	ldr	r3, [r7, #28]
 8002e8c:	681b      	ldr	r3, [r3, #0]
 8002e8e:	69ba      	ldr	r2, [r7, #24]
 8002e90:	429a      	cmp	r2, r3
 8002e92:	d111      	bne.n	8002eb8 <vTaskSwitchContext+0x68>
 8002e94:	69fb      	ldr	r3, [r7, #28]
 8002e96:	3304      	adds	r3, #4
 8002e98:	681b      	ldr	r3, [r3, #0]
 8002e9a:	69ba      	ldr	r2, [r7, #24]
 8002e9c:	429a      	cmp	r2, r3
 8002e9e:	d10b      	bne.n	8002eb8 <vTaskSwitchContext+0x68>
 8002ea0:	69fb      	ldr	r3, [r7, #28]
 8002ea2:	3308      	adds	r3, #8
 8002ea4:	681b      	ldr	r3, [r3, #0]
 8002ea6:	69ba      	ldr	r2, [r7, #24]
 8002ea8:	429a      	cmp	r2, r3
 8002eaa:	d105      	bne.n	8002eb8 <vTaskSwitchContext+0x68>
 8002eac:	69fb      	ldr	r3, [r7, #28]
 8002eae:	330c      	adds	r3, #12
 8002eb0:	681b      	ldr	r3, [r3, #0]
 8002eb2:	69ba      	ldr	r2, [r7, #24]
 8002eb4:	429a      	cmp	r2, r3
 8002eb6:	d009      	beq.n	8002ecc <vTaskSwitchContext+0x7c>
 8002eb8:	4b1d      	ldr	r3, [pc, #116]	@ (8002f30 <vTaskSwitchContext+0xe0>)
 8002eba:	681b      	ldr	r3, [r3, #0]
 8002ebc:	3334      	adds	r3, #52	@ 0x34
 8002ebe:	617b      	str	r3, [r7, #20]
 8002ec0:	4b1b      	ldr	r3, [pc, #108]	@ (8002f30 <vTaskSwitchContext+0xe0>)
 8002ec2:	681b      	ldr	r3, [r3, #0]
 8002ec4:	6979      	ldr	r1, [r7, #20]
 8002ec6:	4618      	mov	r0, r3
 8002ec8:	f7fd f8c9 	bl	800005e <vApplicationStackOverflowHook>
            taskSELECT_HIGHEST_PRIORITY_TASK();
 8002ecc:	4b19      	ldr	r3, [pc, #100]	@ (8002f34 <vTaskSwitchContext+0xe4>)
 8002ece:	681b      	ldr	r3, [r3, #0]
 8002ed0:	60bb      	str	r3, [r7, #8]
        __asm volatile ( "clz %0, %1" : "=r" ( ucReturn ) : "r" ( ulBitmap ) : "memory" );
 8002ed2:	68bb      	ldr	r3, [r7, #8]
 8002ed4:	fab3 f383 	clz	r3, r3
 8002ed8:	71fb      	strb	r3, [r7, #7]
        return ucReturn;
 8002eda:	79fb      	ldrb	r3, [r7, #7]
 8002edc:	f1c3 031f 	rsb	r3, r3, #31
 8002ee0:	613b      	str	r3, [r7, #16]
 8002ee2:	693a      	ldr	r2, [r7, #16]
 8002ee4:	4613      	mov	r3, r2
 8002ee6:	009b      	lsls	r3, r3, #2
 8002ee8:	4413      	add	r3, r2
 8002eea:	009b      	lsls	r3, r3, #2
 8002eec:	4a12      	ldr	r2, [pc, #72]	@ (8002f38 <vTaskSwitchContext+0xe8>)
 8002eee:	4413      	add	r3, r2
 8002ef0:	60fb      	str	r3, [r7, #12]
 8002ef2:	68fb      	ldr	r3, [r7, #12]
 8002ef4:	685b      	ldr	r3, [r3, #4]
 8002ef6:	685a      	ldr	r2, [r3, #4]
 8002ef8:	68fb      	ldr	r3, [r7, #12]
 8002efa:	605a      	str	r2, [r3, #4]
 8002efc:	68fb      	ldr	r3, [r7, #12]
 8002efe:	685a      	ldr	r2, [r3, #4]
 8002f00:	68fb      	ldr	r3, [r7, #12]
 8002f02:	3308      	adds	r3, #8
 8002f04:	429a      	cmp	r2, r3
 8002f06:	d103      	bne.n	8002f10 <vTaskSwitchContext+0xc0>
 8002f08:	68fb      	ldr	r3, [r7, #12]
 8002f0a:	68da      	ldr	r2, [r3, #12]
 8002f0c:	68fb      	ldr	r3, [r7, #12]
 8002f0e:	605a      	str	r2, [r3, #4]
 8002f10:	68fb      	ldr	r3, [r7, #12]
 8002f12:	685b      	ldr	r3, [r3, #4]
 8002f14:	68db      	ldr	r3, [r3, #12]
 8002f16:	4a06      	ldr	r2, [pc, #24]	@ (8002f30 <vTaskSwitchContext+0xe0>)
 8002f18:	6013      	str	r3, [r2, #0]
            portTASK_SWITCH_HOOK( pxCurrentTCB );
 8002f1a:	4b05      	ldr	r3, [pc, #20]	@ (8002f30 <vTaskSwitchContext+0xe0>)
 8002f1c:	681b      	ldr	r3, [r3, #0]
    }
 8002f1e:	bf00      	nop
 8002f20:	3720      	adds	r7, #32
 8002f22:	46bd      	mov	sp, r7
 8002f24:	bd80      	pop	{r7, pc}
 8002f26:	bf00      	nop
 8002f28:	20000108 	.word	0x20000108
 8002f2c:	200000f4 	.word	0x200000f4
 8002f30:	20000008 	.word	0x20000008
 8002f34:	200000e8 	.word	0x200000e8
 8002f38:	2000000c 	.word	0x2000000c

08002f3c <vTaskPlaceOnEventList>:
#endif /* if ( configNUMBER_OF_CORES > 1 ) */
/*-----------------------------------------------------------*/

void vTaskPlaceOnEventList( List_t * const pxEventList,
                            const TickType_t xTicksToWait )
{
 8002f3c:	b580      	push	{r7, lr}
 8002f3e:	b082      	sub	sp, #8
 8002f40:	af00      	add	r7, sp, #0
 8002f42:	6078      	str	r0, [r7, #4]
 8002f44:	6039      	str	r1, [r7, #0]
     *      xItemValue = ( configMAX_PRIORITIES - uxPriority )
     * Therefore, the event list is sorted in descending priority order.
     *
     * The queue that contains the event list is locked, preventing
     * simultaneous access from interrupts. */
    vListInsert( pxEventList, &( pxCurrentTCB->xEventListItem ) );
 8002f46:	4b07      	ldr	r3, [pc, #28]	@ (8002f64 <vTaskPlaceOnEventList+0x28>)
 8002f48:	681b      	ldr	r3, [r3, #0]
 8002f4a:	3318      	adds	r3, #24
 8002f4c:	4619      	mov	r1, r3
 8002f4e:	6878      	ldr	r0, [r7, #4]
 8002f50:	f7fd fba3 	bl	800069a <vListInsert>

    prvAddCurrentTaskToDelayedList( xTicksToWait, pdTRUE );
 8002f54:	2101      	movs	r1, #1
 8002f56:	6838      	ldr	r0, [r7, #0]
 8002f58:	f001 f9a0 	bl	800429c <prvAddCurrentTaskToDelayedList>

    traceRETURN_vTaskPlaceOnEventList();
}
 8002f5c:	bf00      	nop
 8002f5e:	3708      	adds	r7, #8
 8002f60:	46bd      	mov	sp, r7
 8002f62:	bd80      	pop	{r7, pc}
 8002f64:	20000008 	.word	0x20000008

08002f68 <vTaskPlaceOnUnorderedEventList>:
/*-----------------------------------------------------------*/

void vTaskPlaceOnUnorderedEventList( List_t * pxEventList,
                                     const TickType_t xItemValue,
                                     const TickType_t xTicksToWait )
{
 8002f68:	b580      	push	{r7, lr}
 8002f6a:	b086      	sub	sp, #24
 8002f6c:	af00      	add	r7, sp, #0
 8002f6e:	60f8      	str	r0, [r7, #12]
 8002f70:	60b9      	str	r1, [r7, #8]
 8002f72:	607a      	str	r2, [r7, #4]
    configASSERT( uxSchedulerSuspended != ( UBaseType_t ) 0U );

    /* Store the item value in the event list item.  It is safe to access the
     * event list item here as interrupts won't access the event list item of a
     * task that is not in the Blocked state. */
    listSET_LIST_ITEM_VALUE( &( pxCurrentTCB->xEventListItem ), xItemValue | taskEVENT_LIST_ITEM_VALUE_IN_USE );
 8002f74:	4b17      	ldr	r3, [pc, #92]	@ (8002fd4 <vTaskPlaceOnUnorderedEventList+0x6c>)
 8002f76:	681b      	ldr	r3, [r3, #0]
 8002f78:	68ba      	ldr	r2, [r7, #8]
 8002f7a:	f042 4200 	orr.w	r2, r2, #2147483648	@ 0x80000000
 8002f7e:	619a      	str	r2, [r3, #24]
    /* Place the event list item of the TCB at the end of the appropriate event
     * list.  It is safe to access the event list here because it is part of an
     * event group implementation - and interrupts don't access event groups
     * directly (instead they access them indirectly by pending function calls to
     * the task level). */
    listINSERT_END( pxEventList, &( pxCurrentTCB->xEventListItem ) );
 8002f80:	68fb      	ldr	r3, [r7, #12]
 8002f82:	685b      	ldr	r3, [r3, #4]
 8002f84:	617b      	str	r3, [r7, #20]
 8002f86:	4b13      	ldr	r3, [pc, #76]	@ (8002fd4 <vTaskPlaceOnUnorderedEventList+0x6c>)
 8002f88:	681b      	ldr	r3, [r3, #0]
 8002f8a:	697a      	ldr	r2, [r7, #20]
 8002f8c:	61da      	str	r2, [r3, #28]
 8002f8e:	4b11      	ldr	r3, [pc, #68]	@ (8002fd4 <vTaskPlaceOnUnorderedEventList+0x6c>)
 8002f90:	681b      	ldr	r3, [r3, #0]
 8002f92:	697a      	ldr	r2, [r7, #20]
 8002f94:	6892      	ldr	r2, [r2, #8]
 8002f96:	621a      	str	r2, [r3, #32]
 8002f98:	4b0e      	ldr	r3, [pc, #56]	@ (8002fd4 <vTaskPlaceOnUnorderedEventList+0x6c>)
 8002f9a:	681a      	ldr	r2, [r3, #0]
 8002f9c:	697b      	ldr	r3, [r7, #20]
 8002f9e:	689b      	ldr	r3, [r3, #8]
 8002fa0:	3218      	adds	r2, #24
 8002fa2:	605a      	str	r2, [r3, #4]
 8002fa4:	4b0b      	ldr	r3, [pc, #44]	@ (8002fd4 <vTaskPlaceOnUnorderedEventList+0x6c>)
 8002fa6:	681b      	ldr	r3, [r3, #0]
 8002fa8:	f103 0218 	add.w	r2, r3, #24
 8002fac:	697b      	ldr	r3, [r7, #20]
 8002fae:	609a      	str	r2, [r3, #8]
 8002fb0:	4b08      	ldr	r3, [pc, #32]	@ (8002fd4 <vTaskPlaceOnUnorderedEventList+0x6c>)
 8002fb2:	681b      	ldr	r3, [r3, #0]
 8002fb4:	68fa      	ldr	r2, [r7, #12]
 8002fb6:	629a      	str	r2, [r3, #40]	@ 0x28
 8002fb8:	68fb      	ldr	r3, [r7, #12]
 8002fba:	681b      	ldr	r3, [r3, #0]
 8002fbc:	1c5a      	adds	r2, r3, #1
 8002fbe:	68fb      	ldr	r3, [r7, #12]
 8002fc0:	601a      	str	r2, [r3, #0]

    prvAddCurrentTaskToDelayedList( xTicksToWait, pdTRUE );
 8002fc2:	2101      	movs	r1, #1
 8002fc4:	6878      	ldr	r0, [r7, #4]
 8002fc6:	f001 f969 	bl	800429c <prvAddCurrentTaskToDelayedList>

    traceRETURN_vTaskPlaceOnUnorderedEventList();
}
 8002fca:	bf00      	nop
 8002fcc:	3718      	adds	r7, #24
 8002fce:	46bd      	mov	sp, r7
 8002fd0:	bd80      	pop	{r7, pc}
 8002fd2:	bf00      	nop
 8002fd4:	20000008 	.word	0x20000008

08002fd8 <vTaskPlaceOnEventListRestricted>:
#if ( configUSE_TIMERS == 1 )

    void vTaskPlaceOnEventListRestricted( List_t * const pxEventList,
                                          TickType_t xTicksToWait,
                                          const BaseType_t xWaitIndefinitely )
    {
 8002fd8:	b580      	push	{r7, lr}
 8002fda:	b086      	sub	sp, #24
 8002fdc:	af00      	add	r7, sp, #0
 8002fde:	60f8      	str	r0, [r7, #12]
 8002fe0:	60b9      	str	r1, [r7, #8]
 8002fe2:	607a      	str	r2, [r7, #4]

        /* Place the event list item of the TCB in the appropriate event list.
         * In this case it is assume that this is the only task that is going to
         * be waiting on this event list, so the faster vListInsertEnd() function
         * can be used in place of vListInsert. */
        listINSERT_END( pxEventList, &( pxCurrentTCB->xEventListItem ) );
 8002fe4:	68fb      	ldr	r3, [r7, #12]
 8002fe6:	685b      	ldr	r3, [r3, #4]
 8002fe8:	617b      	str	r3, [r7, #20]
 8002fea:	4b16      	ldr	r3, [pc, #88]	@ (8003044 <vTaskPlaceOnEventListRestricted+0x6c>)
 8002fec:	681b      	ldr	r3, [r3, #0]
 8002fee:	697a      	ldr	r2, [r7, #20]
 8002ff0:	61da      	str	r2, [r3, #28]
 8002ff2:	4b14      	ldr	r3, [pc, #80]	@ (8003044 <vTaskPlaceOnEventListRestricted+0x6c>)
 8002ff4:	681b      	ldr	r3, [r3, #0]
 8002ff6:	697a      	ldr	r2, [r7, #20]
 8002ff8:	6892      	ldr	r2, [r2, #8]
 8002ffa:	621a      	str	r2, [r3, #32]
 8002ffc:	4b11      	ldr	r3, [pc, #68]	@ (8003044 <vTaskPlaceOnEventListRestricted+0x6c>)
 8002ffe:	681a      	ldr	r2, [r3, #0]
 8003000:	697b      	ldr	r3, [r7, #20]
 8003002:	689b      	ldr	r3, [r3, #8]
 8003004:	3218      	adds	r2, #24
 8003006:	605a      	str	r2, [r3, #4]
 8003008:	4b0e      	ldr	r3, [pc, #56]	@ (8003044 <vTaskPlaceOnEventListRestricted+0x6c>)
 800300a:	681b      	ldr	r3, [r3, #0]
 800300c:	f103 0218 	add.w	r2, r3, #24
 8003010:	697b      	ldr	r3, [r7, #20]
 8003012:	609a      	str	r2, [r3, #8]
 8003014:	4b0b      	ldr	r3, [pc, #44]	@ (8003044 <vTaskPlaceOnEventListRestricted+0x6c>)
 8003016:	681b      	ldr	r3, [r3, #0]
 8003018:	68fa      	ldr	r2, [r7, #12]
 800301a:	629a      	str	r2, [r3, #40]	@ 0x28
 800301c:	68fb      	ldr	r3, [r7, #12]
 800301e:	681b      	ldr	r3, [r3, #0]
 8003020:	1c5a      	adds	r2, r3, #1
 8003022:	68fb      	ldr	r3, [r7, #12]
 8003024:	601a      	str	r2, [r3, #0]

        /* If the task should block indefinitely then set the block time to a
         * value that will be recognised as an indefinite delay inside the
         * prvAddCurrentTaskToDelayedList() function. */
        if( xWaitIndefinitely != pdFALSE )
 8003026:	687b      	ldr	r3, [r7, #4]
 8003028:	2b00      	cmp	r3, #0
 800302a:	d002      	beq.n	8003032 <vTaskPlaceOnEventListRestricted+0x5a>
        {
            xTicksToWait = portMAX_DELAY;
 800302c:	f04f 33ff 	mov.w	r3, #4294967295
 8003030:	60bb      	str	r3, [r7, #8]
        }

        traceTASK_DELAY_UNTIL( ( xTickCount + xTicksToWait ) );
        prvAddCurrentTaskToDelayedList( xTicksToWait, xWaitIndefinitely );
 8003032:	6879      	ldr	r1, [r7, #4]
 8003034:	68b8      	ldr	r0, [r7, #8]
 8003036:	f001 f931 	bl	800429c <prvAddCurrentTaskToDelayedList>

        traceRETURN_vTaskPlaceOnEventListRestricted();
    }
 800303a:	bf00      	nop
 800303c:	3718      	adds	r7, #24
 800303e:	46bd      	mov	sp, r7
 8003040:	bd80      	pop	{r7, pc}
 8003042:	bf00      	nop
 8003044:	20000008 	.word	0x20000008

08003048 <xTaskRemoveFromEventList>:

#endif /* configUSE_TIMERS */
/*-----------------------------------------------------------*/

BaseType_t xTaskRemoveFromEventList( const List_t * const pxEventList )
{
 8003048:	b480      	push	{r7}
 800304a:	b089      	sub	sp, #36	@ 0x24
 800304c:	af00      	add	r7, sp, #0
 800304e:	6078      	str	r0, [r7, #4]
     * This function assumes that a check has already been made to ensure that
     * pxEventList is not empty. */
    /* MISRA Ref 11.5.3 [Void pointer assignment] */
    /* More details at: https://github.com/FreeRTOS/FreeRTOS-Kernel/blob/main/MISRA.md#rule-115 */
    /* coverity[misra_c_2012_rule_11_5_violation] */
    pxUnblockedTCB = listGET_OWNER_OF_HEAD_ENTRY( pxEventList );
 8003050:	687b      	ldr	r3, [r7, #4]
 8003052:	68db      	ldr	r3, [r3, #12]
 8003054:	68db      	ldr	r3, [r3, #12]
 8003056:	61bb      	str	r3, [r7, #24]
    configASSERT( pxUnblockedTCB );
    listREMOVE_ITEM( &( pxUnblockedTCB->xEventListItem ) );
 8003058:	69bb      	ldr	r3, [r7, #24]
 800305a:	6a9b      	ldr	r3, [r3, #40]	@ 0x28
 800305c:	617b      	str	r3, [r7, #20]
 800305e:	69bb      	ldr	r3, [r7, #24]
 8003060:	69db      	ldr	r3, [r3, #28]
 8003062:	69ba      	ldr	r2, [r7, #24]
 8003064:	6a12      	ldr	r2, [r2, #32]
 8003066:	609a      	str	r2, [r3, #8]
 8003068:	69bb      	ldr	r3, [r7, #24]
 800306a:	6a1b      	ldr	r3, [r3, #32]
 800306c:	69ba      	ldr	r2, [r7, #24]
 800306e:	69d2      	ldr	r2, [r2, #28]
 8003070:	605a      	str	r2, [r3, #4]
 8003072:	697b      	ldr	r3, [r7, #20]
 8003074:	685a      	ldr	r2, [r3, #4]
 8003076:	69bb      	ldr	r3, [r7, #24]
 8003078:	3318      	adds	r3, #24
 800307a:	429a      	cmp	r2, r3
 800307c:	d103      	bne.n	8003086 <xTaskRemoveFromEventList+0x3e>
 800307e:	69bb      	ldr	r3, [r7, #24]
 8003080:	6a1a      	ldr	r2, [r3, #32]
 8003082:	697b      	ldr	r3, [r7, #20]
 8003084:	605a      	str	r2, [r3, #4]
 8003086:	69bb      	ldr	r3, [r7, #24]
 8003088:	2200      	movs	r2, #0
 800308a:	629a      	str	r2, [r3, #40]	@ 0x28
 800308c:	697b      	ldr	r3, [r7, #20]
 800308e:	681b      	ldr	r3, [r3, #0]
 8003090:	1e5a      	subs	r2, r3, #1
 8003092:	697b      	ldr	r3, [r7, #20]
 8003094:	601a      	str	r2, [r3, #0]

    if( uxSchedulerSuspended == ( UBaseType_t ) 0U )
 8003096:	4b4b      	ldr	r3, [pc, #300]	@ (80031c4 <xTaskRemoveFromEventList+0x17c>)
 8003098:	681b      	ldr	r3, [r3, #0]
 800309a:	2b00      	cmp	r3, #0
 800309c:	d160      	bne.n	8003160 <xTaskRemoveFromEventList+0x118>
    {
        listREMOVE_ITEM( &( pxUnblockedTCB->xStateListItem ) );
 800309e:	69bb      	ldr	r3, [r7, #24]
 80030a0:	695b      	ldr	r3, [r3, #20]
 80030a2:	60fb      	str	r3, [r7, #12]
 80030a4:	69bb      	ldr	r3, [r7, #24]
 80030a6:	689b      	ldr	r3, [r3, #8]
 80030a8:	69ba      	ldr	r2, [r7, #24]
 80030aa:	68d2      	ldr	r2, [r2, #12]
 80030ac:	609a      	str	r2, [r3, #8]
 80030ae:	69bb      	ldr	r3, [r7, #24]
 80030b0:	68db      	ldr	r3, [r3, #12]
 80030b2:	69ba      	ldr	r2, [r7, #24]
 80030b4:	6892      	ldr	r2, [r2, #8]
 80030b6:	605a      	str	r2, [r3, #4]
 80030b8:	68fb      	ldr	r3, [r7, #12]
 80030ba:	685a      	ldr	r2, [r3, #4]
 80030bc:	69bb      	ldr	r3, [r7, #24]
 80030be:	3304      	adds	r3, #4
 80030c0:	429a      	cmp	r2, r3
 80030c2:	d103      	bne.n	80030cc <xTaskRemoveFromEventList+0x84>
 80030c4:	69bb      	ldr	r3, [r7, #24]
 80030c6:	68da      	ldr	r2, [r3, #12]
 80030c8:	68fb      	ldr	r3, [r7, #12]
 80030ca:	605a      	str	r2, [r3, #4]
 80030cc:	69bb      	ldr	r3, [r7, #24]
 80030ce:	2200      	movs	r2, #0
 80030d0:	615a      	str	r2, [r3, #20]
 80030d2:	68fb      	ldr	r3, [r7, #12]
 80030d4:	681b      	ldr	r3, [r3, #0]
 80030d6:	1e5a      	subs	r2, r3, #1
 80030d8:	68fb      	ldr	r3, [r7, #12]
 80030da:	601a      	str	r2, [r3, #0]
        prvAddTaskToReadyList( pxUnblockedTCB );
 80030dc:	69bb      	ldr	r3, [r7, #24]
 80030de:	6adb      	ldr	r3, [r3, #44]	@ 0x2c
 80030e0:	2201      	movs	r2, #1
 80030e2:	409a      	lsls	r2, r3
 80030e4:	4b38      	ldr	r3, [pc, #224]	@ (80031c8 <xTaskRemoveFromEventList+0x180>)
 80030e6:	681b      	ldr	r3, [r3, #0]
 80030e8:	4313      	orrs	r3, r2
 80030ea:	4a37      	ldr	r2, [pc, #220]	@ (80031c8 <xTaskRemoveFromEventList+0x180>)
 80030ec:	6013      	str	r3, [r2, #0]
 80030ee:	69bb      	ldr	r3, [r7, #24]
 80030f0:	6ada      	ldr	r2, [r3, #44]	@ 0x2c
 80030f2:	4936      	ldr	r1, [pc, #216]	@ (80031cc <xTaskRemoveFromEventList+0x184>)
 80030f4:	4613      	mov	r3, r2
 80030f6:	009b      	lsls	r3, r3, #2
 80030f8:	4413      	add	r3, r2
 80030fa:	009b      	lsls	r3, r3, #2
 80030fc:	440b      	add	r3, r1
 80030fe:	3304      	adds	r3, #4
 8003100:	681b      	ldr	r3, [r3, #0]
 8003102:	60bb      	str	r3, [r7, #8]
 8003104:	69bb      	ldr	r3, [r7, #24]
 8003106:	68ba      	ldr	r2, [r7, #8]
 8003108:	609a      	str	r2, [r3, #8]
 800310a:	68bb      	ldr	r3, [r7, #8]
 800310c:	689a      	ldr	r2, [r3, #8]
 800310e:	69bb      	ldr	r3, [r7, #24]
 8003110:	60da      	str	r2, [r3, #12]
 8003112:	68bb      	ldr	r3, [r7, #8]
 8003114:	689b      	ldr	r3, [r3, #8]
 8003116:	69ba      	ldr	r2, [r7, #24]
 8003118:	3204      	adds	r2, #4
 800311a:	605a      	str	r2, [r3, #4]
 800311c:	69bb      	ldr	r3, [r7, #24]
 800311e:	1d1a      	adds	r2, r3, #4
 8003120:	68bb      	ldr	r3, [r7, #8]
 8003122:	609a      	str	r2, [r3, #8]
 8003124:	69bb      	ldr	r3, [r7, #24]
 8003126:	6ada      	ldr	r2, [r3, #44]	@ 0x2c
 8003128:	4613      	mov	r3, r2
 800312a:	009b      	lsls	r3, r3, #2
 800312c:	4413      	add	r3, r2
 800312e:	009b      	lsls	r3, r3, #2
 8003130:	4a26      	ldr	r2, [pc, #152]	@ (80031cc <xTaskRemoveFromEventList+0x184>)
 8003132:	441a      	add	r2, r3
 8003134:	69bb      	ldr	r3, [r7, #24]
 8003136:	615a      	str	r2, [r3, #20]
 8003138:	69bb      	ldr	r3, [r7, #24]
 800313a:	6ada      	ldr	r2, [r3, #44]	@ 0x2c
 800313c:	4923      	ldr	r1, [pc, #140]	@ (80031cc <xTaskRemoveFromEventList+0x184>)
 800313e:	4613      	mov	r3, r2
 8003140:	009b      	lsls	r3, r3, #2
 8003142:	4413      	add	r3, r2
 8003144:	009b      	lsls	r3, r3, #2
 8003146:	440b      	add	r3, r1
 8003148:	681b      	ldr	r3, [r3, #0]
 800314a:	69ba      	ldr	r2, [r7, #24]
 800314c:	6ad2      	ldr	r2, [r2, #44]	@ 0x2c
 800314e:	1c59      	adds	r1, r3, #1
 8003150:	481e      	ldr	r0, [pc, #120]	@ (80031cc <xTaskRemoveFromEventList+0x184>)
 8003152:	4613      	mov	r3, r2
 8003154:	009b      	lsls	r3, r3, #2
 8003156:	4413      	add	r3, r2
 8003158:	009b      	lsls	r3, r3, #2
 800315a:	4403      	add	r3, r0
 800315c:	6019      	str	r1, [r3, #0]
 800315e:	e01b      	b.n	8003198 <xTaskRemoveFromEventList+0x150>
    }
    else
    {
        /* The delayed and ready lists cannot be accessed, so hold this task
         * pending until the scheduler is resumed. */
        listINSERT_END( &( xPendingReadyList ), &( pxUnblockedTCB->xEventListItem ) );
 8003160:	4b1b      	ldr	r3, [pc, #108]	@ (80031d0 <xTaskRemoveFromEventList+0x188>)
 8003162:	685b      	ldr	r3, [r3, #4]
 8003164:	613b      	str	r3, [r7, #16]
 8003166:	69bb      	ldr	r3, [r7, #24]
 8003168:	693a      	ldr	r2, [r7, #16]
 800316a:	61da      	str	r2, [r3, #28]
 800316c:	693b      	ldr	r3, [r7, #16]
 800316e:	689a      	ldr	r2, [r3, #8]
 8003170:	69bb      	ldr	r3, [r7, #24]
 8003172:	621a      	str	r2, [r3, #32]
 8003174:	693b      	ldr	r3, [r7, #16]
 8003176:	689b      	ldr	r3, [r3, #8]
 8003178:	69ba      	ldr	r2, [r7, #24]
 800317a:	3218      	adds	r2, #24
 800317c:	605a      	str	r2, [r3, #4]
 800317e:	69bb      	ldr	r3, [r7, #24]
 8003180:	f103 0218 	add.w	r2, r3, #24
 8003184:	693b      	ldr	r3, [r7, #16]
 8003186:	609a      	str	r2, [r3, #8]
 8003188:	69bb      	ldr	r3, [r7, #24]
 800318a:	4a11      	ldr	r2, [pc, #68]	@ (80031d0 <xTaskRemoveFromEventList+0x188>)
 800318c:	629a      	str	r2, [r3, #40]	@ 0x28
 800318e:	4b10      	ldr	r3, [pc, #64]	@ (80031d0 <xTaskRemoveFromEventList+0x188>)
 8003190:	681b      	ldr	r3, [r3, #0]
 8003192:	3301      	adds	r3, #1
 8003194:	4a0e      	ldr	r2, [pc, #56]	@ (80031d0 <xTaskRemoveFromEventList+0x188>)
 8003196:	6013      	str	r3, [r2, #0]
    }

    #if ( configNUMBER_OF_CORES == 1 )
    {
        if( pxUnblockedTCB->uxPriority > pxCurrentTCB->uxPriority )
 8003198:	69bb      	ldr	r3, [r7, #24]
 800319a:	6ada      	ldr	r2, [r3, #44]	@ 0x2c
 800319c:	4b0d      	ldr	r3, [pc, #52]	@ (80031d4 <xTaskRemoveFromEventList+0x18c>)
 800319e:	681b      	ldr	r3, [r3, #0]
 80031a0:	6adb      	ldr	r3, [r3, #44]	@ 0x2c
 80031a2:	429a      	cmp	r2, r3
 80031a4:	d905      	bls.n	80031b2 <xTaskRemoveFromEventList+0x16a>
        {
            /* Return true if the task removed from the event list has a higher
             * priority than the calling task.  This allows the calling task to know if
             * it should force a context switch now. */
            xReturn = pdTRUE;
 80031a6:	2301      	movs	r3, #1
 80031a8:	61fb      	str	r3, [r7, #28]

            /* Mark that a yield is pending in case the user is not using the
             * "xHigherPriorityTaskWoken" parameter to an ISR safe FreeRTOS function. */
            xYieldPendings[ 0 ] = pdTRUE;
 80031aa:	4b0b      	ldr	r3, [pc, #44]	@ (80031d8 <xTaskRemoveFromEventList+0x190>)
 80031ac:	2201      	movs	r2, #1
 80031ae:	601a      	str	r2, [r3, #0]
 80031b0:	e001      	b.n	80031b6 <xTaskRemoveFromEventList+0x16e>
        }
        else
        {
            xReturn = pdFALSE;
 80031b2:	2300      	movs	r3, #0
 80031b4:	61fb      	str	r3, [r7, #28]
        #endif /* #if ( configUSE_PREEMPTION == 1 ) */
    }
    #endif /* #if ( configNUMBER_OF_CORES == 1 ) */

    traceRETURN_xTaskRemoveFromEventList( xReturn );
    return xReturn;
 80031b6:	69fb      	ldr	r3, [r7, #28]
}
 80031b8:	4618      	mov	r0, r3
 80031ba:	3724      	adds	r7, #36	@ 0x24
 80031bc:	46bd      	mov	sp, r7
 80031be:	f85d 7b04 	ldr.w	r7, [sp], #4
 80031c2:	4770      	bx	lr
 80031c4:	20000108 	.word	0x20000108
 80031c8:	200000e8 	.word	0x200000e8
 80031cc:	2000000c 	.word	0x2000000c
 80031d0:	200000a0 	.word	0x200000a0
 80031d4:	20000008 	.word	0x20000008
 80031d8:	200000f4 	.word	0x200000f4

080031dc <vTaskRemoveFromUnorderedEventList>:
/*-----------------------------------------------------------*/

void vTaskRemoveFromUnorderedEventList( ListItem_t * pxEventListItem,
                                        const TickType_t xItemValue )
{
 80031dc:	b480      	push	{r7}
 80031de:	b087      	sub	sp, #28
 80031e0:	af00      	add	r7, sp, #0
 80031e2:	6078      	str	r0, [r7, #4]
 80031e4:	6039      	str	r1, [r7, #0]
    /* THIS FUNCTION MUST BE CALLED WITH THE SCHEDULER SUSPENDED.  It is used by
     * the event flags implementation. */
    configASSERT( uxSchedulerSuspended != ( UBaseType_t ) 0U );

    /* Store the new item value in the event list. */
    listSET_LIST_ITEM_VALUE( pxEventListItem, xItemValue | taskEVENT_LIST_ITEM_VALUE_IN_USE );
 80031e6:	683b      	ldr	r3, [r7, #0]
 80031e8:	f043 4200 	orr.w	r2, r3, #2147483648	@ 0x80000000
 80031ec:	687b      	ldr	r3, [r7, #4]
 80031ee:	601a      	str	r2, [r3, #0]
    /* Remove the event list form the event flag.  Interrupts do not access
     * event flags. */
    /* MISRA Ref 11.5.3 [Void pointer assignment] */
    /* More details at: https://github.com/FreeRTOS/FreeRTOS-Kernel/blob/main/MISRA.md#rule-115 */
    /* coverity[misra_c_2012_rule_11_5_violation] */
    pxUnblockedTCB = listGET_LIST_ITEM_OWNER( pxEventListItem );
 80031f0:	687b      	ldr	r3, [r7, #4]
 80031f2:	68db      	ldr	r3, [r3, #12]
 80031f4:	617b      	str	r3, [r7, #20]
    configASSERT( pxUnblockedTCB );
    listREMOVE_ITEM( pxEventListItem );
 80031f6:	687b      	ldr	r3, [r7, #4]
 80031f8:	691b      	ldr	r3, [r3, #16]
 80031fa:	613b      	str	r3, [r7, #16]
 80031fc:	687b      	ldr	r3, [r7, #4]
 80031fe:	685b      	ldr	r3, [r3, #4]
 8003200:	687a      	ldr	r2, [r7, #4]
 8003202:	6892      	ldr	r2, [r2, #8]
 8003204:	609a      	str	r2, [r3, #8]
 8003206:	687b      	ldr	r3, [r7, #4]
 8003208:	689b      	ldr	r3, [r3, #8]
 800320a:	687a      	ldr	r2, [r7, #4]
 800320c:	6852      	ldr	r2, [r2, #4]
 800320e:	605a      	str	r2, [r3, #4]
 8003210:	693b      	ldr	r3, [r7, #16]
 8003212:	685b      	ldr	r3, [r3, #4]
 8003214:	687a      	ldr	r2, [r7, #4]
 8003216:	429a      	cmp	r2, r3
 8003218:	d103      	bne.n	8003222 <vTaskRemoveFromUnorderedEventList+0x46>
 800321a:	687b      	ldr	r3, [r7, #4]
 800321c:	689a      	ldr	r2, [r3, #8]
 800321e:	693b      	ldr	r3, [r7, #16]
 8003220:	605a      	str	r2, [r3, #4]
 8003222:	687b      	ldr	r3, [r7, #4]
 8003224:	2200      	movs	r2, #0
 8003226:	611a      	str	r2, [r3, #16]
 8003228:	693b      	ldr	r3, [r7, #16]
 800322a:	681b      	ldr	r3, [r3, #0]
 800322c:	1e5a      	subs	r2, r3, #1
 800322e:	693b      	ldr	r3, [r7, #16]
 8003230:	601a      	str	r2, [r3, #0]
    #endif

    /* Remove the task from the delayed list and add it to the ready list.  The
     * scheduler is suspended so interrupts will not be accessing the ready
     * lists. */
    listREMOVE_ITEM( &( pxUnblockedTCB->xStateListItem ) );
 8003232:	697b      	ldr	r3, [r7, #20]
 8003234:	695b      	ldr	r3, [r3, #20]
 8003236:	60fb      	str	r3, [r7, #12]
 8003238:	697b      	ldr	r3, [r7, #20]
 800323a:	689b      	ldr	r3, [r3, #8]
 800323c:	697a      	ldr	r2, [r7, #20]
 800323e:	68d2      	ldr	r2, [r2, #12]
 8003240:	609a      	str	r2, [r3, #8]
 8003242:	697b      	ldr	r3, [r7, #20]
 8003244:	68db      	ldr	r3, [r3, #12]
 8003246:	697a      	ldr	r2, [r7, #20]
 8003248:	6892      	ldr	r2, [r2, #8]
 800324a:	605a      	str	r2, [r3, #4]
 800324c:	68fb      	ldr	r3, [r7, #12]
 800324e:	685a      	ldr	r2, [r3, #4]
 8003250:	697b      	ldr	r3, [r7, #20]
 8003252:	3304      	adds	r3, #4
 8003254:	429a      	cmp	r2, r3
 8003256:	d103      	bne.n	8003260 <vTaskRemoveFromUnorderedEventList+0x84>
 8003258:	697b      	ldr	r3, [r7, #20]
 800325a:	68da      	ldr	r2, [r3, #12]
 800325c:	68fb      	ldr	r3, [r7, #12]
 800325e:	605a      	str	r2, [r3, #4]
 8003260:	697b      	ldr	r3, [r7, #20]
 8003262:	2200      	movs	r2, #0
 8003264:	615a      	str	r2, [r3, #20]
 8003266:	68fb      	ldr	r3, [r7, #12]
 8003268:	681b      	ldr	r3, [r3, #0]
 800326a:	1e5a      	subs	r2, r3, #1
 800326c:	68fb      	ldr	r3, [r7, #12]
 800326e:	601a      	str	r2, [r3, #0]
    prvAddTaskToReadyList( pxUnblockedTCB );
 8003270:	697b      	ldr	r3, [r7, #20]
 8003272:	6adb      	ldr	r3, [r3, #44]	@ 0x2c
 8003274:	2201      	movs	r2, #1
 8003276:	409a      	lsls	r2, r3
 8003278:	4b26      	ldr	r3, [pc, #152]	@ (8003314 <vTaskRemoveFromUnorderedEventList+0x138>)
 800327a:	681b      	ldr	r3, [r3, #0]
 800327c:	4313      	orrs	r3, r2
 800327e:	4a25      	ldr	r2, [pc, #148]	@ (8003314 <vTaskRemoveFromUnorderedEventList+0x138>)
 8003280:	6013      	str	r3, [r2, #0]
 8003282:	697b      	ldr	r3, [r7, #20]
 8003284:	6ada      	ldr	r2, [r3, #44]	@ 0x2c
 8003286:	4924      	ldr	r1, [pc, #144]	@ (8003318 <vTaskRemoveFromUnorderedEventList+0x13c>)
 8003288:	4613      	mov	r3, r2
 800328a:	009b      	lsls	r3, r3, #2
 800328c:	4413      	add	r3, r2
 800328e:	009b      	lsls	r3, r3, #2
 8003290:	440b      	add	r3, r1
 8003292:	3304      	adds	r3, #4
 8003294:	681b      	ldr	r3, [r3, #0]
 8003296:	60bb      	str	r3, [r7, #8]
 8003298:	697b      	ldr	r3, [r7, #20]
 800329a:	68ba      	ldr	r2, [r7, #8]
 800329c:	609a      	str	r2, [r3, #8]
 800329e:	68bb      	ldr	r3, [r7, #8]
 80032a0:	689a      	ldr	r2, [r3, #8]
 80032a2:	697b      	ldr	r3, [r7, #20]
 80032a4:	60da      	str	r2, [r3, #12]
 80032a6:	68bb      	ldr	r3, [r7, #8]
 80032a8:	689b      	ldr	r3, [r3, #8]
 80032aa:	697a      	ldr	r2, [r7, #20]
 80032ac:	3204      	adds	r2, #4
 80032ae:	605a      	str	r2, [r3, #4]
 80032b0:	697b      	ldr	r3, [r7, #20]
 80032b2:	1d1a      	adds	r2, r3, #4
 80032b4:	68bb      	ldr	r3, [r7, #8]
 80032b6:	609a      	str	r2, [r3, #8]
 80032b8:	697b      	ldr	r3, [r7, #20]
 80032ba:	6ada      	ldr	r2, [r3, #44]	@ 0x2c
 80032bc:	4613      	mov	r3, r2
 80032be:	009b      	lsls	r3, r3, #2
 80032c0:	4413      	add	r3, r2
 80032c2:	009b      	lsls	r3, r3, #2
 80032c4:	4a14      	ldr	r2, [pc, #80]	@ (8003318 <vTaskRemoveFromUnorderedEventList+0x13c>)
 80032c6:	441a      	add	r2, r3
 80032c8:	697b      	ldr	r3, [r7, #20]
 80032ca:	615a      	str	r2, [r3, #20]
 80032cc:	697b      	ldr	r3, [r7, #20]
 80032ce:	6ada      	ldr	r2, [r3, #44]	@ 0x2c
 80032d0:	4911      	ldr	r1, [pc, #68]	@ (8003318 <vTaskRemoveFromUnorderedEventList+0x13c>)
 80032d2:	4613      	mov	r3, r2
 80032d4:	009b      	lsls	r3, r3, #2
 80032d6:	4413      	add	r3, r2
 80032d8:	009b      	lsls	r3, r3, #2
 80032da:	440b      	add	r3, r1
 80032dc:	681b      	ldr	r3, [r3, #0]
 80032de:	697a      	ldr	r2, [r7, #20]
 80032e0:	6ad2      	ldr	r2, [r2, #44]	@ 0x2c
 80032e2:	1c59      	adds	r1, r3, #1
 80032e4:	480c      	ldr	r0, [pc, #48]	@ (8003318 <vTaskRemoveFromUnorderedEventList+0x13c>)
 80032e6:	4613      	mov	r3, r2
 80032e8:	009b      	lsls	r3, r3, #2
 80032ea:	4413      	add	r3, r2
 80032ec:	009b      	lsls	r3, r3, #2
 80032ee:	4403      	add	r3, r0
 80032f0:	6019      	str	r1, [r3, #0]

    #if ( configNUMBER_OF_CORES == 1 )
    {
        if( pxUnblockedTCB->uxPriority > pxCurrentTCB->uxPriority )
 80032f2:	697b      	ldr	r3, [r7, #20]
 80032f4:	6ada      	ldr	r2, [r3, #44]	@ 0x2c
 80032f6:	4b09      	ldr	r3, [pc, #36]	@ (800331c <vTaskRemoveFromUnorderedEventList+0x140>)
 80032f8:	681b      	ldr	r3, [r3, #0]
 80032fa:	6adb      	ldr	r3, [r3, #44]	@ 0x2c
 80032fc:	429a      	cmp	r2, r3
 80032fe:	d902      	bls.n	8003306 <vTaskRemoveFromUnorderedEventList+0x12a>
        {
            /* The unblocked task has a priority above that of the calling task, so
             * a context switch is required.  This function is called with the
             * scheduler suspended so xYieldPending is set so the context switch
             * occurs immediately that the scheduler is resumed (unsuspended). */
            xYieldPendings[ 0 ] = pdTRUE;
 8003300:	4b07      	ldr	r3, [pc, #28]	@ (8003320 <vTaskRemoveFromUnorderedEventList+0x144>)
 8003302:	2201      	movs	r2, #1
 8003304:	601a      	str	r2, [r3, #0]
        #endif
    }
    #endif /* #if ( configNUMBER_OF_CORES == 1 ) */

    traceRETURN_vTaskRemoveFromUnorderedEventList();
}
 8003306:	bf00      	nop
 8003308:	371c      	adds	r7, #28
 800330a:	46bd      	mov	sp, r7
 800330c:	f85d 7b04 	ldr.w	r7, [sp], #4
 8003310:	4770      	bx	lr
 8003312:	bf00      	nop
 8003314:	200000e8 	.word	0x200000e8
 8003318:	2000000c 	.word	0x2000000c
 800331c:	20000008 	.word	0x20000008
 8003320:	200000f4 	.word	0x200000f4

08003324 <vTaskSetTimeOutState>:
/*-----------------------------------------------------------*/

void vTaskSetTimeOutState( TimeOut_t * const pxTimeOut )
{
 8003324:	b580      	push	{r7, lr}
 8003326:	b082      	sub	sp, #8
 8003328:	af00      	add	r7, sp, #0
 800332a:	6078      	str	r0, [r7, #4]
    traceENTER_vTaskSetTimeOutState( pxTimeOut );

    configASSERT( pxTimeOut );
    taskENTER_CRITICAL();
 800332c:	f001 fd1f 	bl	8004d6e <vPortEnterCritical>
    {
        pxTimeOut->xOverflowCount = xNumOfOverflows;
 8003330:	4b06      	ldr	r3, [pc, #24]	@ (800334c <vTaskSetTimeOutState+0x28>)
 8003332:	681a      	ldr	r2, [r3, #0]
 8003334:	687b      	ldr	r3, [r7, #4]
 8003336:	601a      	str	r2, [r3, #0]
        pxTimeOut->xTimeOnEntering = xTickCount;
 8003338:	4b05      	ldr	r3, [pc, #20]	@ (8003350 <vTaskSetTimeOutState+0x2c>)
 800333a:	681a      	ldr	r2, [r3, #0]
 800333c:	687b      	ldr	r3, [r7, #4]
 800333e:	605a      	str	r2, [r3, #4]
    }
    taskEXIT_CRITICAL();
 8003340:	f001 fd30 	bl	8004da4 <vPortExitCritical>

    traceRETURN_vTaskSetTimeOutState();
}
 8003344:	bf00      	nop
 8003346:	3708      	adds	r7, #8
 8003348:	46bd      	mov	sp, r7
 800334a:	bd80      	pop	{r7, pc}
 800334c:	200000f8 	.word	0x200000f8
 8003350:	200000e4 	.word	0x200000e4

08003354 <vTaskInternalSetTimeOutState>:
/*-----------------------------------------------------------*/

void vTaskInternalSetTimeOutState( TimeOut_t * const pxTimeOut )
{
 8003354:	b480      	push	{r7}
 8003356:	b083      	sub	sp, #12
 8003358:	af00      	add	r7, sp, #0
 800335a:	6078      	str	r0, [r7, #4]
    traceENTER_vTaskInternalSetTimeOutState( pxTimeOut );

    /* For internal use only as it does not use a critical section. */
    pxTimeOut->xOverflowCount = xNumOfOverflows;
 800335c:	4b06      	ldr	r3, [pc, #24]	@ (8003378 <vTaskInternalSetTimeOutState+0x24>)
 800335e:	681a      	ldr	r2, [r3, #0]
 8003360:	687b      	ldr	r3, [r7, #4]
 8003362:	601a      	str	r2, [r3, #0]
    pxTimeOut->xTimeOnEntering = xTickCount;
 8003364:	4b05      	ldr	r3, [pc, #20]	@ (800337c <vTaskInternalSetTimeOutState+0x28>)
 8003366:	681a      	ldr	r2, [r3, #0]
 8003368:	687b      	ldr	r3, [r7, #4]
 800336a:	605a      	str	r2, [r3, #4]

    traceRETURN_vTaskInternalSetTimeOutState();
}
 800336c:	bf00      	nop
 800336e:	370c      	adds	r7, #12
 8003370:	46bd      	mov	sp, r7
 8003372:	f85d 7b04 	ldr.w	r7, [sp], #4
 8003376:	4770      	bx	lr
 8003378:	200000f8 	.word	0x200000f8
 800337c:	200000e4 	.word	0x200000e4

08003380 <xTaskCheckForTimeOut>:
/*-----------------------------------------------------------*/

BaseType_t xTaskCheckForTimeOut( TimeOut_t * const pxTimeOut,
                                 TickType_t * const pxTicksToWait )
{
 8003380:	b580      	push	{r7, lr}
 8003382:	b086      	sub	sp, #24
 8003384:	af00      	add	r7, sp, #0
 8003386:	6078      	str	r0, [r7, #4]
 8003388:	6039      	str	r1, [r7, #0]
    traceENTER_xTaskCheckForTimeOut( pxTimeOut, pxTicksToWait );

    configASSERT( pxTimeOut );
    configASSERT( pxTicksToWait );

    taskENTER_CRITICAL();
 800338a:	f001 fcf0 	bl	8004d6e <vPortEnterCritical>
    {
        /* Minor optimisation.  The tick count cannot change in this block. */
        const TickType_t xConstTickCount = xTickCount;
 800338e:	4b1f      	ldr	r3, [pc, #124]	@ (800340c <xTaskCheckForTimeOut+0x8c>)
 8003390:	681b      	ldr	r3, [r3, #0]
 8003392:	613b      	str	r3, [r7, #16]
        const TickType_t xElapsedTime = xConstTickCount - pxTimeOut->xTimeOnEntering;
 8003394:	687b      	ldr	r3, [r7, #4]
 8003396:	685b      	ldr	r3, [r3, #4]
 8003398:	693a      	ldr	r2, [r7, #16]
 800339a:	1ad3      	subs	r3, r2, r3
 800339c:	60fb      	str	r3, [r7, #12]
            }
            else
        #endif

        #if ( INCLUDE_vTaskSuspend == 1 )
            if( *pxTicksToWait == portMAX_DELAY )
 800339e:	683b      	ldr	r3, [r7, #0]
 80033a0:	681b      	ldr	r3, [r3, #0]
 80033a2:	f1b3 3fff 	cmp.w	r3, #4294967295
 80033a6:	d102      	bne.n	80033ae <xTaskCheckForTimeOut+0x2e>
            {
                /* If INCLUDE_vTaskSuspend is set to 1 and the block time
                 * specified is the maximum block time then the task should block
                 * indefinitely, and therefore never time out. */
                xReturn = pdFALSE;
 80033a8:	2300      	movs	r3, #0
 80033aa:	617b      	str	r3, [r7, #20]
 80033ac:	e026      	b.n	80033fc <xTaskCheckForTimeOut+0x7c>
            }
            else
        #endif

        if( ( xNumOfOverflows != pxTimeOut->xOverflowCount ) && ( xConstTickCount >= pxTimeOut->xTimeOnEntering ) )
 80033ae:	687b      	ldr	r3, [r7, #4]
 80033b0:	681a      	ldr	r2, [r3, #0]
 80033b2:	4b17      	ldr	r3, [pc, #92]	@ (8003410 <xTaskCheckForTimeOut+0x90>)
 80033b4:	681b      	ldr	r3, [r3, #0]
 80033b6:	429a      	cmp	r2, r3
 80033b8:	d00a      	beq.n	80033d0 <xTaskCheckForTimeOut+0x50>
 80033ba:	687b      	ldr	r3, [r7, #4]
 80033bc:	685b      	ldr	r3, [r3, #4]
 80033be:	693a      	ldr	r2, [r7, #16]
 80033c0:	429a      	cmp	r2, r3
 80033c2:	d305      	bcc.n	80033d0 <xTaskCheckForTimeOut+0x50>
            /* The tick count is greater than the time at which
             * vTaskSetTimeout() was called, but has also overflowed since
             * vTaskSetTimeOut() was called.  It must have wrapped all the way
             * around and gone past again. This passed since vTaskSetTimeout()
             * was called. */
            xReturn = pdTRUE;
 80033c4:	2301      	movs	r3, #1
 80033c6:	617b      	str	r3, [r7, #20]
            *pxTicksToWait = ( TickType_t ) 0;
 80033c8:	683b      	ldr	r3, [r7, #0]
 80033ca:	2200      	movs	r2, #0
 80033cc:	601a      	str	r2, [r3, #0]
 80033ce:	e015      	b.n	80033fc <xTaskCheckForTimeOut+0x7c>
        }
        else if( xElapsedTime < *pxTicksToWait )
 80033d0:	683b      	ldr	r3, [r7, #0]
 80033d2:	681b      	ldr	r3, [r3, #0]
 80033d4:	68fa      	ldr	r2, [r7, #12]
 80033d6:	429a      	cmp	r2, r3
 80033d8:	d20b      	bcs.n	80033f2 <xTaskCheckForTimeOut+0x72>
        {
            /* Not a genuine timeout. Adjust parameters for time remaining. */
            *pxTicksToWait -= xElapsedTime;
 80033da:	683b      	ldr	r3, [r7, #0]
 80033dc:	681a      	ldr	r2, [r3, #0]
 80033de:	68fb      	ldr	r3, [r7, #12]
 80033e0:	1ad2      	subs	r2, r2, r3
 80033e2:	683b      	ldr	r3, [r7, #0]
 80033e4:	601a      	str	r2, [r3, #0]
            vTaskInternalSetTimeOutState( pxTimeOut );
 80033e6:	6878      	ldr	r0, [r7, #4]
 80033e8:	f7ff ffb4 	bl	8003354 <vTaskInternalSetTimeOutState>
            xReturn = pdFALSE;
 80033ec:	2300      	movs	r3, #0
 80033ee:	617b      	str	r3, [r7, #20]
 80033f0:	e004      	b.n	80033fc <xTaskCheckForTimeOut+0x7c>
        }
        else
        {
            *pxTicksToWait = ( TickType_t ) 0;
 80033f2:	683b      	ldr	r3, [r7, #0]
 80033f4:	2200      	movs	r2, #0
 80033f6:	601a      	str	r2, [r3, #0]
            xReturn = pdTRUE;
 80033f8:	2301      	movs	r3, #1
 80033fa:	617b      	str	r3, [r7, #20]
        }
    }
    taskEXIT_CRITICAL();
 80033fc:	f001 fcd2 	bl	8004da4 <vPortExitCritical>

    traceRETURN_xTaskCheckForTimeOut( xReturn );

    return xReturn;
 8003400:	697b      	ldr	r3, [r7, #20]
}
 8003402:	4618      	mov	r0, r3
 8003404:	3718      	adds	r7, #24
 8003406:	46bd      	mov	sp, r7
 8003408:	bd80      	pop	{r7, pc}
 800340a:	bf00      	nop
 800340c:	200000e4 	.word	0x200000e4
 8003410:	200000f8 	.word	0x200000f8

08003414 <vTaskMissedYield>:
/*-----------------------------------------------------------*/

void vTaskMissedYield( void )
{
 8003414:	b480      	push	{r7}
 8003416:	af00      	add	r7, sp, #0
    traceENTER_vTaskMissedYield();

    /* Must be called from within a critical section. */
    xYieldPendings[ portGET_CORE_ID() ] = pdTRUE;
 8003418:	4b03      	ldr	r3, [pc, #12]	@ (8003428 <vTaskMissedYield+0x14>)
 800341a:	2201      	movs	r2, #1
 800341c:	601a      	str	r2, [r3, #0]

    traceRETURN_vTaskMissedYield();
}
 800341e:	bf00      	nop
 8003420:	46bd      	mov	sp, r7
 8003422:	f85d 7b04 	ldr.w	r7, [sp], #4
 8003426:	4770      	bx	lr
 8003428:	200000f4 	.word	0x200000f4

0800342c <prvIdleTask>:
 * void prvIdleTask( void *pvParameters );
 *
 */

static portTASK_FUNCTION( prvIdleTask, pvParameters )
{
 800342c:	b580      	push	{r7, lr}
 800342e:	b082      	sub	sp, #8
 8003430:	af00      	add	r7, sp, #0
 8003432:	6078      	str	r0, [r7, #4]

    for( ; configCONTROL_INFINITE_LOOP(); )
    {
        /* See if any tasks have deleted themselves - if so then the idle task
         * is responsible for freeing the deleted task's TCB and stack. */
        prvCheckTasksWaitingTermination();
 8003434:	f000 f852 	bl	80034dc <prvCheckTasksWaitingTermination>
             * A critical region is not required here as we are just reading from
             * the list, and an occasional incorrect value will not matter.  If
             * the ready list at the idle priority contains one more task than the
             * number of idle tasks, which is equal to the configured numbers of cores
             * then a task other than the idle task is ready to execute. */
            if( listCURRENT_LIST_LENGTH( &( pxReadyTasksLists[ tskIDLE_PRIORITY ] ) ) > ( UBaseType_t ) configNUMBER_OF_CORES )
 8003438:	4b06      	ldr	r3, [pc, #24]	@ (8003454 <prvIdleTask+0x28>)
 800343a:	681b      	ldr	r3, [r3, #0]
 800343c:	2b01      	cmp	r3, #1
 800343e:	d9f9      	bls.n	8003434 <prvIdleTask+0x8>
            {
                taskYIELD();
 8003440:	4b05      	ldr	r3, [pc, #20]	@ (8003458 <prvIdleTask+0x2c>)
 8003442:	f04f 5280 	mov.w	r2, #268435456	@ 0x10000000
 8003446:	601a      	str	r2, [r3, #0]
 8003448:	f3bf 8f4f 	dsb	sy
 800344c:	f3bf 8f6f 	isb	sy
        prvCheckTasksWaitingTermination();
 8003450:	e7f0      	b.n	8003434 <prvIdleTask+0x8>
 8003452:	bf00      	nop
 8003454:	2000000c 	.word	0x2000000c
 8003458:	e000ed04 	.word	0xe000ed04

0800345c <prvInitialiseTaskLists>:

#endif /* portUSING_MPU_WRAPPERS */
/*-----------------------------------------------------------*/

static void prvInitialiseTaskLists( void )
{
 800345c:	b580      	push	{r7, lr}
 800345e:	b082      	sub	sp, #8
 8003460:	af00      	add	r7, sp, #0
    UBaseType_t uxPriority;

    for( uxPriority = ( UBaseType_t ) 0U; uxPriority < ( UBaseType_t ) configMAX_PRIORITIES; uxPriority++ )
 8003462:	2300      	movs	r3, #0
 8003464:	607b      	str	r3, [r7, #4]
 8003466:	e00c      	b.n	8003482 <prvInitialiseTaskLists+0x26>
    {
        vListInitialise( &( pxReadyTasksLists[ uxPriority ] ) );
 8003468:	687a      	ldr	r2, [r7, #4]
 800346a:	4613      	mov	r3, r2
 800346c:	009b      	lsls	r3, r3, #2
 800346e:	4413      	add	r3, r2
 8003470:	009b      	lsls	r3, r3, #2
 8003472:	4a12      	ldr	r2, [pc, #72]	@ (80034bc <prvInitialiseTaskLists+0x60>)
 8003474:	4413      	add	r3, r2
 8003476:	4618      	mov	r0, r3
 8003478:	f7fd f8be 	bl	80005f8 <vListInitialise>
    for( uxPriority = ( UBaseType_t ) 0U; uxPriority < ( UBaseType_t ) configMAX_PRIORITIES; uxPriority++ )
 800347c:	687b      	ldr	r3, [r7, #4]
 800347e:	3301      	adds	r3, #1
 8003480:	607b      	str	r3, [r7, #4]
 8003482:	687b      	ldr	r3, [r7, #4]
 8003484:	2b04      	cmp	r3, #4
 8003486:	d9ef      	bls.n	8003468 <prvInitialiseTaskLists+0xc>
    }

    vListInitialise( &xDelayedTaskList1 );
 8003488:	480d      	ldr	r0, [pc, #52]	@ (80034c0 <prvInitialiseTaskLists+0x64>)
 800348a:	f7fd f8b5 	bl	80005f8 <vListInitialise>
    vListInitialise( &xDelayedTaskList2 );
 800348e:	480d      	ldr	r0, [pc, #52]	@ (80034c4 <prvInitialiseTaskLists+0x68>)
 8003490:	f7fd f8b2 	bl	80005f8 <vListInitialise>
    vListInitialise( &xPendingReadyList );
 8003494:	480c      	ldr	r0, [pc, #48]	@ (80034c8 <prvInitialiseTaskLists+0x6c>)
 8003496:	f7fd f8af 	bl	80005f8 <vListInitialise>

    #if ( INCLUDE_vTaskDelete == 1 )
    {
        vListInitialise( &xTasksWaitingTermination );
 800349a:	480c      	ldr	r0, [pc, #48]	@ (80034cc <prvInitialiseTaskLists+0x70>)
 800349c:	f7fd f8ac 	bl	80005f8 <vListInitialise>
    }
    #endif /* INCLUDE_vTaskDelete */

    #if ( INCLUDE_vTaskSuspend == 1 )
    {
        vListInitialise( &xSuspendedTaskList );
 80034a0:	480b      	ldr	r0, [pc, #44]	@ (80034d0 <prvInitialiseTaskLists+0x74>)
 80034a2:	f7fd f8a9 	bl	80005f8 <vListInitialise>
    }
    #endif /* INCLUDE_vTaskSuspend */

    /* Start with pxDelayedTaskList using list1 and the pxOverflowDelayedTaskList
     * using list2. */
    pxDelayedTaskList = &xDelayedTaskList1;
 80034a6:	4b0b      	ldr	r3, [pc, #44]	@ (80034d4 <prvInitialiseTaskLists+0x78>)
 80034a8:	4a05      	ldr	r2, [pc, #20]	@ (80034c0 <prvInitialiseTaskLists+0x64>)
 80034aa:	601a      	str	r2, [r3, #0]
    pxOverflowDelayedTaskList = &xDelayedTaskList2;
 80034ac:	4b0a      	ldr	r3, [pc, #40]	@ (80034d8 <prvInitialiseTaskLists+0x7c>)
 80034ae:	4a05      	ldr	r2, [pc, #20]	@ (80034c4 <prvInitialiseTaskLists+0x68>)
 80034b0:	601a      	str	r2, [r3, #0]
}
 80034b2:	bf00      	nop
 80034b4:	3708      	adds	r7, #8
 80034b6:	46bd      	mov	sp, r7
 80034b8:	bd80      	pop	{r7, pc}
 80034ba:	bf00      	nop
 80034bc:	2000000c 	.word	0x2000000c
 80034c0:	20000070 	.word	0x20000070
 80034c4:	20000084 	.word	0x20000084
 80034c8:	200000a0 	.word	0x200000a0
 80034cc:	200000b4 	.word	0x200000b4
 80034d0:	200000cc 	.word	0x200000cc
 80034d4:	20000098 	.word	0x20000098
 80034d8:	2000009c 	.word	0x2000009c

080034dc <prvCheckTasksWaitingTermination>:
/*-----------------------------------------------------------*/

static void prvCheckTasksWaitingTermination( void )
{
 80034dc:	b580      	push	{r7, lr}
 80034de:	b082      	sub	sp, #8
 80034e0:	af00      	add	r7, sp, #0
    {
        TCB_t * pxTCB;

        /* uxDeletedTasksWaitingCleanUp is used to prevent taskENTER_CRITICAL()
         * being called too often in the idle task. */
        while( uxDeletedTasksWaitingCleanUp > ( UBaseType_t ) 0U )
 80034e2:	e019      	b.n	8003518 <prvCheckTasksWaitingTermination+0x3c>
        {
            #if ( configNUMBER_OF_CORES == 1 )
            {
                taskENTER_CRITICAL();
 80034e4:	f001 fc43 	bl	8004d6e <vPortEnterCritical>
                {
                    {
                        /* MISRA Ref 11.5.3 [Void pointer assignment] */
                        /* More details at: https://github.com/FreeRTOS/FreeRTOS-Kernel/blob/main/MISRA.md#rule-115 */
                        /* coverity[misra_c_2012_rule_11_5_violation] */
                        pxTCB = listGET_OWNER_OF_HEAD_ENTRY( ( &xTasksWaitingTermination ) );
 80034e8:	4b10      	ldr	r3, [pc, #64]	@ (800352c <prvCheckTasksWaitingTermination+0x50>)
 80034ea:	68db      	ldr	r3, [r3, #12]
 80034ec:	68db      	ldr	r3, [r3, #12]
 80034ee:	607b      	str	r3, [r7, #4]
                        ( void ) uxListRemove( &( pxTCB->xStateListItem ) );
 80034f0:	687b      	ldr	r3, [r7, #4]
 80034f2:	3304      	adds	r3, #4
 80034f4:	4618      	mov	r0, r3
 80034f6:	f7fd f909 	bl	800070c <uxListRemove>
                        --uxCurrentNumberOfTasks;
 80034fa:	4b0d      	ldr	r3, [pc, #52]	@ (8003530 <prvCheckTasksWaitingTermination+0x54>)
 80034fc:	681b      	ldr	r3, [r3, #0]
 80034fe:	3b01      	subs	r3, #1
 8003500:	4a0b      	ldr	r2, [pc, #44]	@ (8003530 <prvCheckTasksWaitingTermination+0x54>)
 8003502:	6013      	str	r3, [r2, #0]
                        --uxDeletedTasksWaitingCleanUp;
 8003504:	4b0b      	ldr	r3, [pc, #44]	@ (8003534 <prvCheckTasksWaitingTermination+0x58>)
 8003506:	681b      	ldr	r3, [r3, #0]
 8003508:	3b01      	subs	r3, #1
 800350a:	4a0a      	ldr	r2, [pc, #40]	@ (8003534 <prvCheckTasksWaitingTermination+0x58>)
 800350c:	6013      	str	r3, [r2, #0]
                    }
                }
                taskEXIT_CRITICAL();
 800350e:	f001 fc49 	bl	8004da4 <vPortExitCritical>

                prvDeleteTCB( pxTCB );
 8003512:	6878      	ldr	r0, [r7, #4]
 8003514:	f000 f810 	bl	8003538 <prvDeleteTCB>
        while( uxDeletedTasksWaitingCleanUp > ( UBaseType_t ) 0U )
 8003518:	4b06      	ldr	r3, [pc, #24]	@ (8003534 <prvCheckTasksWaitingTermination+0x58>)
 800351a:	681b      	ldr	r3, [r3, #0]
 800351c:	2b00      	cmp	r3, #0
 800351e:	d1e1      	bne.n	80034e4 <prvCheckTasksWaitingTermination+0x8>
            }
            #endif /* #if( configNUMBER_OF_CORES == 1 ) */
        }
    }
    #endif /* INCLUDE_vTaskDelete */
}
 8003520:	bf00      	nop
 8003522:	bf00      	nop
 8003524:	3708      	adds	r7, #8
 8003526:	46bd      	mov	sp, r7
 8003528:	bd80      	pop	{r7, pc}
 800352a:	bf00      	nop
 800352c:	200000b4 	.word	0x200000b4
 8003530:	200000e0 	.word	0x200000e0
 8003534:	200000c8 	.word	0x200000c8

08003538 <prvDeleteTCB>:
/*-----------------------------------------------------------*/

#if ( INCLUDE_vTaskDelete == 1 )

    static void prvDeleteTCB( TCB_t * pxTCB )
    {
 8003538:	b580      	push	{r7, lr}
 800353a:	b082      	sub	sp, #8
 800353c:	af00      	add	r7, sp, #0
 800353e:	6078      	str	r0, [r7, #4]

        #if ( ( configSUPPORT_DYNAMIC_ALLOCATION == 1 ) && ( configSUPPORT_STATIC_ALLOCATION == 0 ) && ( portUSING_MPU_WRAPPERS == 0 ) )
        {
            /* The task can only have been allocated dynamically - free both
             * the stack and TCB. */
            vPortFreeStack( pxTCB->pxStack );
 8003540:	687b      	ldr	r3, [r7, #4]
 8003542:	6b1b      	ldr	r3, [r3, #48]	@ 0x30
 8003544:	4618      	mov	r0, r3
 8003546:	f001 fd79 	bl	800503c <vPortFree>
            vPortFree( pxTCB );
 800354a:	6878      	ldr	r0, [r7, #4]
 800354c:	f001 fd76 	bl	800503c <vPortFree>
                configASSERT( pxTCB->ucStaticallyAllocated == tskSTATICALLY_ALLOCATED_STACK_AND_TCB );
                mtCOVERAGE_TEST_MARKER();
            }
        }
        #endif /* configSUPPORT_DYNAMIC_ALLOCATION */
    }
 8003550:	bf00      	nop
 8003552:	3708      	adds	r7, #8
 8003554:	46bd      	mov	sp, r7
 8003556:	bd80      	pop	{r7, pc}

08003558 <prvResetNextTaskUnblockTime>:

#endif /* INCLUDE_vTaskDelete */
/*-----------------------------------------------------------*/

static void prvResetNextTaskUnblockTime( void )
{
 8003558:	b480      	push	{r7}
 800355a:	af00      	add	r7, sp, #0
    if( listLIST_IS_EMPTY( pxDelayedTaskList ) != pdFALSE )
 800355c:	4b0a      	ldr	r3, [pc, #40]	@ (8003588 <prvResetNextTaskUnblockTime+0x30>)
 800355e:	681b      	ldr	r3, [r3, #0]
 8003560:	681b      	ldr	r3, [r3, #0]
 8003562:	2b00      	cmp	r3, #0
 8003564:	d104      	bne.n	8003570 <prvResetNextTaskUnblockTime+0x18>
    {
        /* The new current delayed list is empty.  Set xNextTaskUnblockTime to
         * the maximum possible value so it is  extremely unlikely that the
         * if( xTickCount >= xNextTaskUnblockTime ) test will pass until
         * there is an item in the delayed list. */
        xNextTaskUnblockTime = portMAX_DELAY;
 8003566:	4b09      	ldr	r3, [pc, #36]	@ (800358c <prvResetNextTaskUnblockTime+0x34>)
 8003568:	f04f 32ff 	mov.w	r2, #4294967295
 800356c:	601a      	str	r2, [r3, #0]
         * the item at the head of the delayed list.  This is the time at
         * which the task at the head of the delayed list should be removed
         * from the Blocked state. */
        xNextTaskUnblockTime = listGET_ITEM_VALUE_OF_HEAD_ENTRY( pxDelayedTaskList );
    }
}
 800356e:	e005      	b.n	800357c <prvResetNextTaskUnblockTime+0x24>
        xNextTaskUnblockTime = listGET_ITEM_VALUE_OF_HEAD_ENTRY( pxDelayedTaskList );
 8003570:	4b05      	ldr	r3, [pc, #20]	@ (8003588 <prvResetNextTaskUnblockTime+0x30>)
 8003572:	681b      	ldr	r3, [r3, #0]
 8003574:	68db      	ldr	r3, [r3, #12]
 8003576:	681b      	ldr	r3, [r3, #0]
 8003578:	4a04      	ldr	r2, [pc, #16]	@ (800358c <prvResetNextTaskUnblockTime+0x34>)
 800357a:	6013      	str	r3, [r2, #0]
}
 800357c:	bf00      	nop
 800357e:	46bd      	mov	sp, r7
 8003580:	f85d 7b04 	ldr.w	r7, [sp], #4
 8003584:	4770      	bx	lr
 8003586:	bf00      	nop
 8003588:	20000098 	.word	0x20000098
 800358c:	20000100 	.word	0x20000100

08003590 <xTaskGetCurrentTaskHandle>:

#if ( ( INCLUDE_xTaskGetCurrentTaskHandle == 1 ) || ( configUSE_RECURSIVE_MUTEXES == 1 ) ) || ( configNUMBER_OF_CORES > 1 )

    #if ( configNUMBER_OF_CORES == 1 )
        TaskHandle_t xTaskGetCurrentTaskHandle( void )
        {
 8003590:	b480      	push	{r7}
 8003592:	b083      	sub	sp, #12
 8003594:	af00      	add	r7, sp, #0
            traceENTER_xTaskGetCurrentTaskHandle();

            /* A critical section is not required as this is not called from
             * an interrupt and the current TCB will always be the same for any
             * individual execution thread. */
            xReturn = pxCurrentTCB;
 8003596:	4b05      	ldr	r3, [pc, #20]	@ (80035ac <xTaskGetCurrentTaskHandle+0x1c>)
 8003598:	681b      	ldr	r3, [r3, #0]
 800359a:	607b      	str	r3, [r7, #4]

            traceRETURN_xTaskGetCurrentTaskHandle( xReturn );

            return xReturn;
 800359c:	687b      	ldr	r3, [r7, #4]
        }
 800359e:	4618      	mov	r0, r3
 80035a0:	370c      	adds	r7, #12
 80035a2:	46bd      	mov	sp, r7
 80035a4:	f85d 7b04 	ldr.w	r7, [sp], #4
 80035a8:	4770      	bx	lr
 80035aa:	bf00      	nop
 80035ac:	20000008 	.word	0x20000008

080035b0 <xTaskGetCurrentTaskHandleForCore>:
            return xReturn;
        }
    #endif /* #if ( configNUMBER_OF_CORES == 1 ) */

    TaskHandle_t xTaskGetCurrentTaskHandleForCore( BaseType_t xCoreID )
    {
 80035b0:	b480      	push	{r7}
 80035b2:	b085      	sub	sp, #20
 80035b4:	af00      	add	r7, sp, #0
 80035b6:	6078      	str	r0, [r7, #4]
        TaskHandle_t xReturn = NULL;
 80035b8:	2300      	movs	r3, #0
 80035ba:	60fb      	str	r3, [r7, #12]

        traceENTER_xTaskGetCurrentTaskHandleForCore( xCoreID );

        if( taskVALID_CORE_ID( xCoreID ) != pdFALSE )
 80035bc:	687b      	ldr	r3, [r7, #4]
 80035be:	2b00      	cmp	r3, #0
 80035c0:	db05      	blt.n	80035ce <xTaskGetCurrentTaskHandleForCore+0x1e>
 80035c2:	687b      	ldr	r3, [r7, #4]
 80035c4:	2b00      	cmp	r3, #0
 80035c6:	dc02      	bgt.n	80035ce <xTaskGetCurrentTaskHandleForCore+0x1e>
        {
            #if ( configNUMBER_OF_CORES == 1 )
                xReturn = pxCurrentTCB;
 80035c8:	4b04      	ldr	r3, [pc, #16]	@ (80035dc <xTaskGetCurrentTaskHandleForCore+0x2c>)
 80035ca:	681b      	ldr	r3, [r3, #0]
 80035cc:	60fb      	str	r3, [r7, #12]
            #endif /* #if ( configNUMBER_OF_CORES == 1 ) */
        }

        traceRETURN_xTaskGetCurrentTaskHandleForCore( xReturn );

        return xReturn;
 80035ce:	68fb      	ldr	r3, [r7, #12]
    }
 80035d0:	4618      	mov	r0, r3
 80035d2:	3714      	adds	r7, #20
 80035d4:	46bd      	mov	sp, r7
 80035d6:	f85d 7b04 	ldr.w	r7, [sp], #4
 80035da:	4770      	bx	lr
 80035dc:	20000008 	.word	0x20000008

080035e0 <xTaskGetSchedulerState>:
/*-----------------------------------------------------------*/

#if ( ( INCLUDE_xTaskGetSchedulerState == 1 ) || ( configUSE_TIMERS == 1 ) )

    BaseType_t xTaskGetSchedulerState( void )
    {
 80035e0:	b480      	push	{r7}
 80035e2:	b083      	sub	sp, #12
 80035e4:	af00      	add	r7, sp, #0
        BaseType_t xReturn;

        traceENTER_xTaskGetSchedulerState();

        if( xSchedulerRunning == pdFALSE )
 80035e6:	4b0b      	ldr	r3, [pc, #44]	@ (8003614 <xTaskGetSchedulerState+0x34>)
 80035e8:	681b      	ldr	r3, [r3, #0]
 80035ea:	2b00      	cmp	r3, #0
 80035ec:	d102      	bne.n	80035f4 <xTaskGetSchedulerState+0x14>
        {
            xReturn = taskSCHEDULER_NOT_STARTED;
 80035ee:	2301      	movs	r3, #1
 80035f0:	607b      	str	r3, [r7, #4]
 80035f2:	e008      	b.n	8003606 <xTaskGetSchedulerState+0x26>
        {
            #if ( configNUMBER_OF_CORES > 1 )
                taskENTER_CRITICAL();
            #endif
            {
                if( uxSchedulerSuspended == ( UBaseType_t ) 0U )
 80035f4:	4b08      	ldr	r3, [pc, #32]	@ (8003618 <xTaskGetSchedulerState+0x38>)
 80035f6:	681b      	ldr	r3, [r3, #0]
 80035f8:	2b00      	cmp	r3, #0
 80035fa:	d102      	bne.n	8003602 <xTaskGetSchedulerState+0x22>
                {
                    xReturn = taskSCHEDULER_RUNNING;
 80035fc:	2302      	movs	r3, #2
 80035fe:	607b      	str	r3, [r7, #4]
 8003600:	e001      	b.n	8003606 <xTaskGetSchedulerState+0x26>
                }
                else
                {
                    xReturn = taskSCHEDULER_SUSPENDED;
 8003602:	2300      	movs	r3, #0
 8003604:	607b      	str	r3, [r7, #4]
            #endif
        }

        traceRETURN_xTaskGetSchedulerState( xReturn );

        return xReturn;
 8003606:	687b      	ldr	r3, [r7, #4]
    }
 8003608:	4618      	mov	r0, r3
 800360a:	370c      	adds	r7, #12
 800360c:	46bd      	mov	sp, r7
 800360e:	f85d 7b04 	ldr.w	r7, [sp], #4
 8003612:	4770      	bx	lr
 8003614:	200000ec 	.word	0x200000ec
 8003618:	20000108 	.word	0x20000108

0800361c <xTaskPriorityInherit>:
/*-----------------------------------------------------------*/

#if ( configUSE_MUTEXES == 1 )

    BaseType_t xTaskPriorityInherit( TaskHandle_t const pxMutexHolder )
    {
 800361c:	b580      	push	{r7, lr}
 800361e:	b086      	sub	sp, #24
 8003620:	af00      	add	r7, sp, #0
 8003622:	6078      	str	r0, [r7, #4]
        TCB_t * const pxMutexHolderTCB = pxMutexHolder;
 8003624:	687b      	ldr	r3, [r7, #4]
 8003626:	613b      	str	r3, [r7, #16]
        BaseType_t xReturn = pdFALSE;
 8003628:	2300      	movs	r3, #0
 800362a:	617b      	str	r3, [r7, #20]

        traceENTER_xTaskPriorityInherit( pxMutexHolder );

        /* If the mutex is taken by an interrupt, the mutex holder is NULL. Priority
         * inheritance is not applied in this scenario. */
        if( pxMutexHolder != NULL )
 800362c:	687b      	ldr	r3, [r7, #4]
 800362e:	2b00      	cmp	r3, #0
 8003630:	f000 8089 	beq.w	8003746 <xTaskPriorityInherit+0x12a>
        {
            /* If the holder of the mutex has a priority below the priority of
             * the task attempting to obtain the mutex then it will temporarily
             * inherit the priority of the task attempting to obtain the mutex. */
            if( pxMutexHolderTCB->uxPriority < pxCurrentTCB->uxPriority )
 8003634:	693b      	ldr	r3, [r7, #16]
 8003636:	6ada      	ldr	r2, [r3, #44]	@ 0x2c
 8003638:	4b45      	ldr	r3, [pc, #276]	@ (8003750 <xTaskPriorityInherit+0x134>)
 800363a:	681b      	ldr	r3, [r3, #0]
 800363c:	6adb      	ldr	r3, [r3, #44]	@ 0x2c
 800363e:	429a      	cmp	r2, r3
 8003640:	d278      	bcs.n	8003734 <xTaskPriorityInherit+0x118>
            {
                /* Adjust the mutex holder state to account for its new
                 * priority.  Only reset the event list item value if the value is
                 * not being used for anything else. */
                if( ( listGET_LIST_ITEM_VALUE( &( pxMutexHolderTCB->xEventListItem ) ) & taskEVENT_LIST_ITEM_VALUE_IN_USE ) == ( ( TickType_t ) 0U ) )
 8003642:	693b      	ldr	r3, [r7, #16]
 8003644:	699b      	ldr	r3, [r3, #24]
 8003646:	2b00      	cmp	r3, #0
 8003648:	db06      	blt.n	8003658 <xTaskPriorityInherit+0x3c>
                {
                    listSET_LIST_ITEM_VALUE( &( pxMutexHolderTCB->xEventListItem ), ( TickType_t ) configMAX_PRIORITIES - ( TickType_t ) pxCurrentTCB->uxPriority );
 800364a:	4b41      	ldr	r3, [pc, #260]	@ (8003750 <xTaskPriorityInherit+0x134>)
 800364c:	681b      	ldr	r3, [r3, #0]
 800364e:	6adb      	ldr	r3, [r3, #44]	@ 0x2c
 8003650:	f1c3 0205 	rsb	r2, r3, #5
 8003654:	693b      	ldr	r3, [r7, #16]
 8003656:	619a      	str	r2, [r3, #24]
                    mtCOVERAGE_TEST_MARKER();
                }

                /* If the task being modified is in the ready state it will need
                 * to be moved into a new list. */
                if( listIS_CONTAINED_WITHIN( &( pxReadyTasksLists[ pxMutexHolderTCB->uxPriority ] ), &( pxMutexHolderTCB->xStateListItem ) ) != pdFALSE )
 8003658:	693b      	ldr	r3, [r7, #16]
 800365a:	6959      	ldr	r1, [r3, #20]
 800365c:	693b      	ldr	r3, [r7, #16]
 800365e:	6ada      	ldr	r2, [r3, #44]	@ 0x2c
 8003660:	4613      	mov	r3, r2
 8003662:	009b      	lsls	r3, r3, #2
 8003664:	4413      	add	r3, r2
 8003666:	009b      	lsls	r3, r3, #2
 8003668:	4a3a      	ldr	r2, [pc, #232]	@ (8003754 <xTaskPriorityInherit+0x138>)
 800366a:	4413      	add	r3, r2
 800366c:	4299      	cmp	r1, r3
 800366e:	d159      	bne.n	8003724 <xTaskPriorityInherit+0x108>
                {
                    if( uxListRemove( &( pxMutexHolderTCB->xStateListItem ) ) == ( UBaseType_t ) 0 )
 8003670:	693b      	ldr	r3, [r7, #16]
 8003672:	3304      	adds	r3, #4
 8003674:	4618      	mov	r0, r3
 8003676:	f7fd f849 	bl	800070c <uxListRemove>
 800367a:	4603      	mov	r3, r0
 800367c:	2b00      	cmp	r3, #0
 800367e:	d10a      	bne.n	8003696 <xTaskPriorityInherit+0x7a>
                    {
                        /* It is known that the task is in its ready list so
                         * there is no need to check again and the port level
                         * reset macro can be called directly. */
                        portRESET_READY_PRIORITY( pxMutexHolderTCB->uxPriority, uxTopReadyPriority );
 8003680:	693b      	ldr	r3, [r7, #16]
 8003682:	6adb      	ldr	r3, [r3, #44]	@ 0x2c
 8003684:	2201      	movs	r2, #1
 8003686:	fa02 f303 	lsl.w	r3, r2, r3
 800368a:	43da      	mvns	r2, r3
 800368c:	4b32      	ldr	r3, [pc, #200]	@ (8003758 <xTaskPriorityInherit+0x13c>)
 800368e:	681b      	ldr	r3, [r3, #0]
 8003690:	4013      	ands	r3, r2
 8003692:	4a31      	ldr	r2, [pc, #196]	@ (8003758 <xTaskPriorityInherit+0x13c>)
 8003694:	6013      	str	r3, [r2, #0]
                    {
                        mtCOVERAGE_TEST_MARKER();
                    }

                    /* Inherit the priority before being moved into the new list. */
                    pxMutexHolderTCB->uxPriority = pxCurrentTCB->uxPriority;
 8003696:	4b2e      	ldr	r3, [pc, #184]	@ (8003750 <xTaskPriorityInherit+0x134>)
 8003698:	681b      	ldr	r3, [r3, #0]
 800369a:	6ada      	ldr	r2, [r3, #44]	@ 0x2c
 800369c:	693b      	ldr	r3, [r7, #16]
 800369e:	62da      	str	r2, [r3, #44]	@ 0x2c
                    prvAddTaskToReadyList( pxMutexHolderTCB );
 80036a0:	693b      	ldr	r3, [r7, #16]
 80036a2:	6adb      	ldr	r3, [r3, #44]	@ 0x2c
 80036a4:	2201      	movs	r2, #1
 80036a6:	409a      	lsls	r2, r3
 80036a8:	4b2b      	ldr	r3, [pc, #172]	@ (8003758 <xTaskPriorityInherit+0x13c>)
 80036aa:	681b      	ldr	r3, [r3, #0]
 80036ac:	4313      	orrs	r3, r2
 80036ae:	4a2a      	ldr	r2, [pc, #168]	@ (8003758 <xTaskPriorityInherit+0x13c>)
 80036b0:	6013      	str	r3, [r2, #0]
 80036b2:	693b      	ldr	r3, [r7, #16]
 80036b4:	6ada      	ldr	r2, [r3, #44]	@ 0x2c
 80036b6:	4927      	ldr	r1, [pc, #156]	@ (8003754 <xTaskPriorityInherit+0x138>)
 80036b8:	4613      	mov	r3, r2
 80036ba:	009b      	lsls	r3, r3, #2
 80036bc:	4413      	add	r3, r2
 80036be:	009b      	lsls	r3, r3, #2
 80036c0:	440b      	add	r3, r1
 80036c2:	3304      	adds	r3, #4
 80036c4:	681b      	ldr	r3, [r3, #0]
 80036c6:	60fb      	str	r3, [r7, #12]
 80036c8:	693b      	ldr	r3, [r7, #16]
 80036ca:	68fa      	ldr	r2, [r7, #12]
 80036cc:	609a      	str	r2, [r3, #8]
 80036ce:	68fb      	ldr	r3, [r7, #12]
 80036d0:	689a      	ldr	r2, [r3, #8]
 80036d2:	693b      	ldr	r3, [r7, #16]
 80036d4:	60da      	str	r2, [r3, #12]
 80036d6:	68fb      	ldr	r3, [r7, #12]
 80036d8:	689b      	ldr	r3, [r3, #8]
 80036da:	693a      	ldr	r2, [r7, #16]
 80036dc:	3204      	adds	r2, #4
 80036de:	605a      	str	r2, [r3, #4]
 80036e0:	693b      	ldr	r3, [r7, #16]
 80036e2:	1d1a      	adds	r2, r3, #4
 80036e4:	68fb      	ldr	r3, [r7, #12]
 80036e6:	609a      	str	r2, [r3, #8]
 80036e8:	693b      	ldr	r3, [r7, #16]
 80036ea:	6ada      	ldr	r2, [r3, #44]	@ 0x2c
 80036ec:	4613      	mov	r3, r2
 80036ee:	009b      	lsls	r3, r3, #2
 80036f0:	4413      	add	r3, r2
 80036f2:	009b      	lsls	r3, r3, #2
 80036f4:	4a17      	ldr	r2, [pc, #92]	@ (8003754 <xTaskPriorityInherit+0x138>)
 80036f6:	441a      	add	r2, r3
 80036f8:	693b      	ldr	r3, [r7, #16]
 80036fa:	615a      	str	r2, [r3, #20]
 80036fc:	693b      	ldr	r3, [r7, #16]
 80036fe:	6ada      	ldr	r2, [r3, #44]	@ 0x2c
 8003700:	4914      	ldr	r1, [pc, #80]	@ (8003754 <xTaskPriorityInherit+0x138>)
 8003702:	4613      	mov	r3, r2
 8003704:	009b      	lsls	r3, r3, #2
 8003706:	4413      	add	r3, r2
 8003708:	009b      	lsls	r3, r3, #2
 800370a:	440b      	add	r3, r1
 800370c:	681b      	ldr	r3, [r3, #0]
 800370e:	693a      	ldr	r2, [r7, #16]
 8003710:	6ad2      	ldr	r2, [r2, #44]	@ 0x2c
 8003712:	1c59      	adds	r1, r3, #1
 8003714:	480f      	ldr	r0, [pc, #60]	@ (8003754 <xTaskPriorityInherit+0x138>)
 8003716:	4613      	mov	r3, r2
 8003718:	009b      	lsls	r3, r3, #2
 800371a:	4413      	add	r3, r2
 800371c:	009b      	lsls	r3, r3, #2
 800371e:	4403      	add	r3, r0
 8003720:	6019      	str	r1, [r3, #0]
 8003722:	e004      	b.n	800372e <xTaskPriorityInherit+0x112>
                    #endif /* if ( configNUMBER_OF_CORES > 1 ) */
                }
                else
                {
                    /* Just inherit the priority. */
                    pxMutexHolderTCB->uxPriority = pxCurrentTCB->uxPriority;
 8003724:	4b0a      	ldr	r3, [pc, #40]	@ (8003750 <xTaskPriorityInherit+0x134>)
 8003726:	681b      	ldr	r3, [r3, #0]
 8003728:	6ada      	ldr	r2, [r3, #44]	@ 0x2c
 800372a:	693b      	ldr	r3, [r7, #16]
 800372c:	62da      	str	r2, [r3, #44]	@ 0x2c
                }

                traceTASK_PRIORITY_INHERIT( pxMutexHolderTCB, pxCurrentTCB->uxPriority );

                /* Inheritance occurred. */
                xReturn = pdTRUE;
 800372e:	2301      	movs	r3, #1
 8003730:	617b      	str	r3, [r7, #20]
 8003732:	e008      	b.n	8003746 <xTaskPriorityInherit+0x12a>
            }
            else
            {
                if( pxMutexHolderTCB->uxBasePriority < pxCurrentTCB->uxPriority )
 8003734:	693b      	ldr	r3, [r7, #16]
 8003736:	6c5a      	ldr	r2, [r3, #68]	@ 0x44
 8003738:	4b05      	ldr	r3, [pc, #20]	@ (8003750 <xTaskPriorityInherit+0x134>)
 800373a:	681b      	ldr	r3, [r3, #0]
 800373c:	6adb      	ldr	r3, [r3, #44]	@ 0x2c
 800373e:	429a      	cmp	r2, r3
 8003740:	d201      	bcs.n	8003746 <xTaskPriorityInherit+0x12a>
                     * current priority of the mutex holder is not lower than the
                     * priority of the task attempting to take the mutex.
                     * Therefore the mutex holder must have already inherited a
                     * priority, but inheritance would have occurred if that had
                     * not been the case. */
                    xReturn = pdTRUE;
 8003742:	2301      	movs	r3, #1
 8003744:	617b      	str	r3, [r7, #20]
            mtCOVERAGE_TEST_MARKER();
        }

        traceRETURN_xTaskPriorityInherit( xReturn );

        return xReturn;
 8003746:	697b      	ldr	r3, [r7, #20]
    }
 8003748:	4618      	mov	r0, r3
 800374a:	3718      	adds	r7, #24
 800374c:	46bd      	mov	sp, r7
 800374e:	bd80      	pop	{r7, pc}
 8003750:	20000008 	.word	0x20000008
 8003754:	2000000c 	.word	0x2000000c
 8003758:	200000e8 	.word	0x200000e8

0800375c <xTaskPriorityDisinherit>:
/*-----------------------------------------------------------*/

#if ( configUSE_MUTEXES == 1 )

    BaseType_t xTaskPriorityDisinherit( TaskHandle_t const pxMutexHolder )
    {
 800375c:	b580      	push	{r7, lr}
 800375e:	b086      	sub	sp, #24
 8003760:	af00      	add	r7, sp, #0
 8003762:	6078      	str	r0, [r7, #4]
        TCB_t * const pxTCB = pxMutexHolder;
 8003764:	687b      	ldr	r3, [r7, #4]
 8003766:	613b      	str	r3, [r7, #16]
        BaseType_t xReturn = pdFALSE;
 8003768:	2300      	movs	r3, #0
 800376a:	617b      	str	r3, [r7, #20]

        traceENTER_xTaskPriorityDisinherit( pxMutexHolder );

        if( pxMutexHolder != NULL )
 800376c:	687b      	ldr	r3, [r7, #4]
 800376e:	2b00      	cmp	r3, #0
 8003770:	d06e      	beq.n	8003850 <xTaskPriorityDisinherit+0xf4>
             * If the mutex is held by a task then it cannot be given from an
             * interrupt, and if a mutex is given by the holding task then it must
             * be the running state task. */
            configASSERT( pxTCB == pxCurrentTCB );
            configASSERT( pxTCB->uxMutexesHeld );
            ( pxTCB->uxMutexesHeld )--;
 8003772:	693b      	ldr	r3, [r7, #16]
 8003774:	6c9b      	ldr	r3, [r3, #72]	@ 0x48
 8003776:	1e5a      	subs	r2, r3, #1
 8003778:	693b      	ldr	r3, [r7, #16]
 800377a:	649a      	str	r2, [r3, #72]	@ 0x48

            /* Has the holder of the mutex inherited the priority of another
             * task? */
            if( pxTCB->uxPriority != pxTCB->uxBasePriority )
 800377c:	693b      	ldr	r3, [r7, #16]
 800377e:	6ada      	ldr	r2, [r3, #44]	@ 0x2c
 8003780:	693b      	ldr	r3, [r7, #16]
 8003782:	6c5b      	ldr	r3, [r3, #68]	@ 0x44
 8003784:	429a      	cmp	r2, r3
 8003786:	d063      	beq.n	8003850 <xTaskPriorityDisinherit+0xf4>
            {
                /* Only disinherit if no other mutexes are held. */
                if( pxTCB->uxMutexesHeld == ( UBaseType_t ) 0 )
 8003788:	693b      	ldr	r3, [r7, #16]
 800378a:	6c9b      	ldr	r3, [r3, #72]	@ 0x48
 800378c:	2b00      	cmp	r3, #0
 800378e:	d15f      	bne.n	8003850 <xTaskPriorityDisinherit+0xf4>
                    /* A task can only have an inherited priority if it holds
                     * the mutex.  If the mutex is held by a task then it cannot be
                     * given from an interrupt, and if a mutex is given by the
                     * holding task then it must be the running state task.  Remove
                     * the holding task from the ready list. */
                    if( uxListRemove( &( pxTCB->xStateListItem ) ) == ( UBaseType_t ) 0 )
 8003790:	693b      	ldr	r3, [r7, #16]
 8003792:	3304      	adds	r3, #4
 8003794:	4618      	mov	r0, r3
 8003796:	f7fc ffb9 	bl	800070c <uxListRemove>
 800379a:	4603      	mov	r3, r0
 800379c:	2b00      	cmp	r3, #0
 800379e:	d10a      	bne.n	80037b6 <xTaskPriorityDisinherit+0x5a>
                    {
                        portRESET_READY_PRIORITY( pxTCB->uxPriority, uxTopReadyPriority );
 80037a0:	693b      	ldr	r3, [r7, #16]
 80037a2:	6adb      	ldr	r3, [r3, #44]	@ 0x2c
 80037a4:	2201      	movs	r2, #1
 80037a6:	fa02 f303 	lsl.w	r3, r2, r3
 80037aa:	43da      	mvns	r2, r3
 80037ac:	4b2b      	ldr	r3, [pc, #172]	@ (800385c <xTaskPriorityDisinherit+0x100>)
 80037ae:	681b      	ldr	r3, [r3, #0]
 80037b0:	4013      	ands	r3, r2
 80037b2:	4a2a      	ldr	r2, [pc, #168]	@ (800385c <xTaskPriorityDisinherit+0x100>)
 80037b4:	6013      	str	r3, [r2, #0]
                    }

                    /* Disinherit the priority before adding the task into the
                     * new  ready list. */
                    traceTASK_PRIORITY_DISINHERIT( pxTCB, pxTCB->uxBasePriority );
                    pxTCB->uxPriority = pxTCB->uxBasePriority;
 80037b6:	693b      	ldr	r3, [r7, #16]
 80037b8:	6c5a      	ldr	r2, [r3, #68]	@ 0x44
 80037ba:	693b      	ldr	r3, [r7, #16]
 80037bc:	62da      	str	r2, [r3, #44]	@ 0x2c

                    /* Reset the event list item value.  It cannot be in use for
                     * any other purpose if this task is running, and it must be
                     * running to give back the mutex. */
                    listSET_LIST_ITEM_VALUE( &( pxTCB->xEventListItem ), ( TickType_t ) configMAX_PRIORITIES - ( TickType_t ) pxTCB->uxPriority );
 80037be:	693b      	ldr	r3, [r7, #16]
 80037c0:	6adb      	ldr	r3, [r3, #44]	@ 0x2c
 80037c2:	f1c3 0205 	rsb	r2, r3, #5
 80037c6:	693b      	ldr	r3, [r7, #16]
 80037c8:	619a      	str	r2, [r3, #24]
                    prvAddTaskToReadyList( pxTCB );
 80037ca:	693b      	ldr	r3, [r7, #16]
 80037cc:	6adb      	ldr	r3, [r3, #44]	@ 0x2c
 80037ce:	2201      	movs	r2, #1
 80037d0:	409a      	lsls	r2, r3
 80037d2:	4b22      	ldr	r3, [pc, #136]	@ (800385c <xTaskPriorityDisinherit+0x100>)
 80037d4:	681b      	ldr	r3, [r3, #0]
 80037d6:	4313      	orrs	r3, r2
 80037d8:	4a20      	ldr	r2, [pc, #128]	@ (800385c <xTaskPriorityDisinherit+0x100>)
 80037da:	6013      	str	r3, [r2, #0]
 80037dc:	693b      	ldr	r3, [r7, #16]
 80037de:	6ada      	ldr	r2, [r3, #44]	@ 0x2c
 80037e0:	491f      	ldr	r1, [pc, #124]	@ (8003860 <xTaskPriorityDisinherit+0x104>)
 80037e2:	4613      	mov	r3, r2
 80037e4:	009b      	lsls	r3, r3, #2
 80037e6:	4413      	add	r3, r2
 80037e8:	009b      	lsls	r3, r3, #2
 80037ea:	440b      	add	r3, r1
 80037ec:	3304      	adds	r3, #4
 80037ee:	681b      	ldr	r3, [r3, #0]
 80037f0:	60fb      	str	r3, [r7, #12]
 80037f2:	693b      	ldr	r3, [r7, #16]
 80037f4:	68fa      	ldr	r2, [r7, #12]
 80037f6:	609a      	str	r2, [r3, #8]
 80037f8:	68fb      	ldr	r3, [r7, #12]
 80037fa:	689a      	ldr	r2, [r3, #8]
 80037fc:	693b      	ldr	r3, [r7, #16]
 80037fe:	60da      	str	r2, [r3, #12]
 8003800:	68fb      	ldr	r3, [r7, #12]
 8003802:	689b      	ldr	r3, [r3, #8]
 8003804:	693a      	ldr	r2, [r7, #16]
 8003806:	3204      	adds	r2, #4
 8003808:	605a      	str	r2, [r3, #4]
 800380a:	693b      	ldr	r3, [r7, #16]
 800380c:	1d1a      	adds	r2, r3, #4
 800380e:	68fb      	ldr	r3, [r7, #12]
 8003810:	609a      	str	r2, [r3, #8]
 8003812:	693b      	ldr	r3, [r7, #16]
 8003814:	6ada      	ldr	r2, [r3, #44]	@ 0x2c
 8003816:	4613      	mov	r3, r2
 8003818:	009b      	lsls	r3, r3, #2
 800381a:	4413      	add	r3, r2
 800381c:	009b      	lsls	r3, r3, #2
 800381e:	4a10      	ldr	r2, [pc, #64]	@ (8003860 <xTaskPriorityDisinherit+0x104>)
 8003820:	441a      	add	r2, r3
 8003822:	693b      	ldr	r3, [r7, #16]
 8003824:	615a      	str	r2, [r3, #20]
 8003826:	693b      	ldr	r3, [r7, #16]
 8003828:	6ada      	ldr	r2, [r3, #44]	@ 0x2c
 800382a:	490d      	ldr	r1, [pc, #52]	@ (8003860 <xTaskPriorityDisinherit+0x104>)
 800382c:	4613      	mov	r3, r2
 800382e:	009b      	lsls	r3, r3, #2
 8003830:	4413      	add	r3, r2
 8003832:	009b      	lsls	r3, r3, #2
 8003834:	440b      	add	r3, r1
 8003836:	681b      	ldr	r3, [r3, #0]
 8003838:	693a      	ldr	r2, [r7, #16]
 800383a:	6ad2      	ldr	r2, [r2, #44]	@ 0x2c
 800383c:	1c59      	adds	r1, r3, #1
 800383e:	4808      	ldr	r0, [pc, #32]	@ (8003860 <xTaskPriorityDisinherit+0x104>)
 8003840:	4613      	mov	r3, r2
 8003842:	009b      	lsls	r3, r3, #2
 8003844:	4413      	add	r3, r2
 8003846:	009b      	lsls	r3, r3, #2
 8003848:	4403      	add	r3, r0
 800384a:	6019      	str	r1, [r3, #0]
                     * in an order different to that in which they were taken.
                     * If a context switch did not occur when the first mutex was
                     * returned, even if a task was waiting on it, then a context
                     * switch should occur when the last mutex is returned whether
                     * a task is waiting on it or not. */
                    xReturn = pdTRUE;
 800384c:	2301      	movs	r3, #1
 800384e:	617b      	str	r3, [r7, #20]
            mtCOVERAGE_TEST_MARKER();
        }

        traceRETURN_xTaskPriorityDisinherit( xReturn );

        return xReturn;
 8003850:	697b      	ldr	r3, [r7, #20]
    }
 8003852:	4618      	mov	r0, r3
 8003854:	3718      	adds	r7, #24
 8003856:	46bd      	mov	sp, r7
 8003858:	bd80      	pop	{r7, pc}
 800385a:	bf00      	nop
 800385c:	200000e8 	.word	0x200000e8
 8003860:	2000000c 	.word	0x2000000c

08003864 <vTaskPriorityDisinheritAfterTimeout>:

#if ( configUSE_MUTEXES == 1 )

    void vTaskPriorityDisinheritAfterTimeout( TaskHandle_t const pxMutexHolder,
                                              UBaseType_t uxHighestPriorityWaitingTask )
    {
 8003864:	b580      	push	{r7, lr}
 8003866:	b088      	sub	sp, #32
 8003868:	af00      	add	r7, sp, #0
 800386a:	6078      	str	r0, [r7, #4]
 800386c:	6039      	str	r1, [r7, #0]
        TCB_t * const pxTCB = pxMutexHolder;
 800386e:	687b      	ldr	r3, [r7, #4]
 8003870:	61bb      	str	r3, [r7, #24]
        UBaseType_t uxPriorityUsedOnEntry, uxPriorityToUse;
        const UBaseType_t uxOnlyOneMutexHeld = ( UBaseType_t ) 1;
 8003872:	2301      	movs	r3, #1
 8003874:	617b      	str	r3, [r7, #20]

        traceENTER_vTaskPriorityDisinheritAfterTimeout( pxMutexHolder, uxHighestPriorityWaitingTask );

        if( pxMutexHolder != NULL )
 8003876:	687b      	ldr	r3, [r7, #4]
 8003878:	2b00      	cmp	r3, #0
 800387a:	f000 8083 	beq.w	8003984 <vTaskPriorityDisinheritAfterTimeout+0x120>

            /* Determine the priority to which the priority of the task that
             * holds the mutex should be set.  This will be the greater of the
             * holding task's base priority and the priority of the highest
             * priority task that is waiting to obtain the mutex. */
            if( pxTCB->uxBasePriority < uxHighestPriorityWaitingTask )
 800387e:	69bb      	ldr	r3, [r7, #24]
 8003880:	6c5b      	ldr	r3, [r3, #68]	@ 0x44
 8003882:	683a      	ldr	r2, [r7, #0]
 8003884:	429a      	cmp	r2, r3
 8003886:	d902      	bls.n	800388e <vTaskPriorityDisinheritAfterTimeout+0x2a>
            {
                uxPriorityToUse = uxHighestPriorityWaitingTask;
 8003888:	683b      	ldr	r3, [r7, #0]
 800388a:	61fb      	str	r3, [r7, #28]
 800388c:	e002      	b.n	8003894 <vTaskPriorityDisinheritAfterTimeout+0x30>
            }
            else
            {
                uxPriorityToUse = pxTCB->uxBasePriority;
 800388e:	69bb      	ldr	r3, [r7, #24]
 8003890:	6c5b      	ldr	r3, [r3, #68]	@ 0x44
 8003892:	61fb      	str	r3, [r7, #28]
            }

            /* Does the priority need to change? */
            if( pxTCB->uxPriority != uxPriorityToUse )
 8003894:	69bb      	ldr	r3, [r7, #24]
 8003896:	6adb      	ldr	r3, [r3, #44]	@ 0x2c
 8003898:	69fa      	ldr	r2, [r7, #28]
 800389a:	429a      	cmp	r2, r3
 800389c:	d072      	beq.n	8003984 <vTaskPriorityDisinheritAfterTimeout+0x120>
            {
                /* Only disinherit if no other mutexes are held.  This is a
                 * simplification in the priority inheritance implementation.  If
                 * the task that holds the mutex is also holding other mutexes then
                 * the other mutexes may have caused the priority inheritance. */
                if( pxTCB->uxMutexesHeld == uxOnlyOneMutexHeld )
 800389e:	69bb      	ldr	r3, [r7, #24]
 80038a0:	6c9b      	ldr	r3, [r3, #72]	@ 0x48
 80038a2:	697a      	ldr	r2, [r7, #20]
 80038a4:	429a      	cmp	r2, r3
 80038a6:	d16d      	bne.n	8003984 <vTaskPriorityDisinheritAfterTimeout+0x120>

                    /* Disinherit the priority, remembering the previous
                     * priority to facilitate determining the subject task's
                     * state. */
                    traceTASK_PRIORITY_DISINHERIT( pxTCB, uxPriorityToUse );
                    uxPriorityUsedOnEntry = pxTCB->uxPriority;
 80038a8:	69bb      	ldr	r3, [r7, #24]
 80038aa:	6adb      	ldr	r3, [r3, #44]	@ 0x2c
 80038ac:	613b      	str	r3, [r7, #16]
                    pxTCB->uxPriority = uxPriorityToUse;
 80038ae:	69bb      	ldr	r3, [r7, #24]
 80038b0:	69fa      	ldr	r2, [r7, #28]
 80038b2:	62da      	str	r2, [r3, #44]	@ 0x2c

                    /* Only reset the event list item value if the value is not
                     * being used for anything else. */
                    if( ( listGET_LIST_ITEM_VALUE( &( pxTCB->xEventListItem ) ) & taskEVENT_LIST_ITEM_VALUE_IN_USE ) == ( ( TickType_t ) 0U ) )
 80038b4:	69bb      	ldr	r3, [r7, #24]
 80038b6:	699b      	ldr	r3, [r3, #24]
 80038b8:	2b00      	cmp	r3, #0
 80038ba:	db04      	blt.n	80038c6 <vTaskPriorityDisinheritAfterTimeout+0x62>
                    {
                        listSET_LIST_ITEM_VALUE( &( pxTCB->xEventListItem ), ( TickType_t ) configMAX_PRIORITIES - ( TickType_t ) uxPriorityToUse );
 80038bc:	69fb      	ldr	r3, [r7, #28]
 80038be:	f1c3 0205 	rsb	r2, r3, #5
 80038c2:	69bb      	ldr	r3, [r7, #24]
 80038c4:	619a      	str	r2, [r3, #24]
                     * then the task that holds the mutex could be in either the
                     * Ready, Blocked or Suspended states.  Only remove the task
                     * from its current state list if it is in the Ready state as
                     * the task's priority is going to change and there is one
                     * Ready list per priority. */
                    if( listIS_CONTAINED_WITHIN( &( pxReadyTasksLists[ uxPriorityUsedOnEntry ] ), &( pxTCB->xStateListItem ) ) != pdFALSE )
 80038c6:	69bb      	ldr	r3, [r7, #24]
 80038c8:	6959      	ldr	r1, [r3, #20]
 80038ca:	693a      	ldr	r2, [r7, #16]
 80038cc:	4613      	mov	r3, r2
 80038ce:	009b      	lsls	r3, r3, #2
 80038d0:	4413      	add	r3, r2
 80038d2:	009b      	lsls	r3, r3, #2
 80038d4:	4a2d      	ldr	r2, [pc, #180]	@ (800398c <vTaskPriorityDisinheritAfterTimeout+0x128>)
 80038d6:	4413      	add	r3, r2
 80038d8:	4299      	cmp	r1, r3
 80038da:	d153      	bne.n	8003984 <vTaskPriorityDisinheritAfterTimeout+0x120>
                    {
                        if( uxListRemove( &( pxTCB->xStateListItem ) ) == ( UBaseType_t ) 0 )
 80038dc:	69bb      	ldr	r3, [r7, #24]
 80038de:	3304      	adds	r3, #4
 80038e0:	4618      	mov	r0, r3
 80038e2:	f7fc ff13 	bl	800070c <uxListRemove>
 80038e6:	4603      	mov	r3, r0
 80038e8:	2b00      	cmp	r3, #0
 80038ea:	d10a      	bne.n	8003902 <vTaskPriorityDisinheritAfterTimeout+0x9e>
                        {
                            /* It is known that the task is in its ready list so
                             * there is no need to check again and the port level
                             * reset macro can be called directly. */
                            portRESET_READY_PRIORITY( pxTCB->uxPriority, uxTopReadyPriority );
 80038ec:	69bb      	ldr	r3, [r7, #24]
 80038ee:	6adb      	ldr	r3, [r3, #44]	@ 0x2c
 80038f0:	2201      	movs	r2, #1
 80038f2:	fa02 f303 	lsl.w	r3, r2, r3
 80038f6:	43da      	mvns	r2, r3
 80038f8:	4b25      	ldr	r3, [pc, #148]	@ (8003990 <vTaskPriorityDisinheritAfterTimeout+0x12c>)
 80038fa:	681b      	ldr	r3, [r3, #0]
 80038fc:	4013      	ands	r3, r2
 80038fe:	4a24      	ldr	r2, [pc, #144]	@ (8003990 <vTaskPriorityDisinheritAfterTimeout+0x12c>)
 8003900:	6013      	str	r3, [r2, #0]
                        else
                        {
                            mtCOVERAGE_TEST_MARKER();
                        }

                        prvAddTaskToReadyList( pxTCB );
 8003902:	69bb      	ldr	r3, [r7, #24]
 8003904:	6adb      	ldr	r3, [r3, #44]	@ 0x2c
 8003906:	2201      	movs	r2, #1
 8003908:	409a      	lsls	r2, r3
 800390a:	4b21      	ldr	r3, [pc, #132]	@ (8003990 <vTaskPriorityDisinheritAfterTimeout+0x12c>)
 800390c:	681b      	ldr	r3, [r3, #0]
 800390e:	4313      	orrs	r3, r2
 8003910:	4a1f      	ldr	r2, [pc, #124]	@ (8003990 <vTaskPriorityDisinheritAfterTimeout+0x12c>)
 8003912:	6013      	str	r3, [r2, #0]
 8003914:	69bb      	ldr	r3, [r7, #24]
 8003916:	6ada      	ldr	r2, [r3, #44]	@ 0x2c
 8003918:	491c      	ldr	r1, [pc, #112]	@ (800398c <vTaskPriorityDisinheritAfterTimeout+0x128>)
 800391a:	4613      	mov	r3, r2
 800391c:	009b      	lsls	r3, r3, #2
 800391e:	4413      	add	r3, r2
 8003920:	009b      	lsls	r3, r3, #2
 8003922:	440b      	add	r3, r1
 8003924:	3304      	adds	r3, #4
 8003926:	681b      	ldr	r3, [r3, #0]
 8003928:	60fb      	str	r3, [r7, #12]
 800392a:	69bb      	ldr	r3, [r7, #24]
 800392c:	68fa      	ldr	r2, [r7, #12]
 800392e:	609a      	str	r2, [r3, #8]
 8003930:	68fb      	ldr	r3, [r7, #12]
 8003932:	689a      	ldr	r2, [r3, #8]
 8003934:	69bb      	ldr	r3, [r7, #24]
 8003936:	60da      	str	r2, [r3, #12]
 8003938:	68fb      	ldr	r3, [r7, #12]
 800393a:	689b      	ldr	r3, [r3, #8]
 800393c:	69ba      	ldr	r2, [r7, #24]
 800393e:	3204      	adds	r2, #4
 8003940:	605a      	str	r2, [r3, #4]
 8003942:	69bb      	ldr	r3, [r7, #24]
 8003944:	1d1a      	adds	r2, r3, #4
 8003946:	68fb      	ldr	r3, [r7, #12]
 8003948:	609a      	str	r2, [r3, #8]
 800394a:	69bb      	ldr	r3, [r7, #24]
 800394c:	6ada      	ldr	r2, [r3, #44]	@ 0x2c
 800394e:	4613      	mov	r3, r2
 8003950:	009b      	lsls	r3, r3, #2
 8003952:	4413      	add	r3, r2
 8003954:	009b      	lsls	r3, r3, #2
 8003956:	4a0d      	ldr	r2, [pc, #52]	@ (800398c <vTaskPriorityDisinheritAfterTimeout+0x128>)
 8003958:	441a      	add	r2, r3
 800395a:	69bb      	ldr	r3, [r7, #24]
 800395c:	615a      	str	r2, [r3, #20]
 800395e:	69bb      	ldr	r3, [r7, #24]
 8003960:	6ada      	ldr	r2, [r3, #44]	@ 0x2c
 8003962:	490a      	ldr	r1, [pc, #40]	@ (800398c <vTaskPriorityDisinheritAfterTimeout+0x128>)
 8003964:	4613      	mov	r3, r2
 8003966:	009b      	lsls	r3, r3, #2
 8003968:	4413      	add	r3, r2
 800396a:	009b      	lsls	r3, r3, #2
 800396c:	440b      	add	r3, r1
 800396e:	681b      	ldr	r3, [r3, #0]
 8003970:	69ba      	ldr	r2, [r7, #24]
 8003972:	6ad2      	ldr	r2, [r2, #44]	@ 0x2c
 8003974:	1c59      	adds	r1, r3, #1
 8003976:	4805      	ldr	r0, [pc, #20]	@ (800398c <vTaskPriorityDisinheritAfterTimeout+0x128>)
 8003978:	4613      	mov	r3, r2
 800397a:	009b      	lsls	r3, r3, #2
 800397c:	4413      	add	r3, r2
 800397e:	009b      	lsls	r3, r3, #2
 8003980:	4403      	add	r3, r0
 8003982:	6019      	str	r1, [r3, #0]
        {
            mtCOVERAGE_TEST_MARKER();
        }

        traceRETURN_vTaskPriorityDisinheritAfterTimeout();
    }
 8003984:	bf00      	nop
 8003986:	3720      	adds	r7, #32
 8003988:	46bd      	mov	sp, r7
 800398a:	bd80      	pop	{r7, pc}
 800398c:	2000000c 	.word	0x2000000c
 8003990:	200000e8 	.word	0x200000e8

08003994 <uxTaskResetEventItemValue>:

#endif /* ( ( configGENERATE_RUN_TIME_STATS == 1 ) && ( configUSE_STATS_FORMATTING_FUNCTIONS > 0 ) ) */
/*-----------------------------------------------------------*/

TickType_t uxTaskResetEventItemValue( void )
{
 8003994:	b480      	push	{r7}
 8003996:	b083      	sub	sp, #12
 8003998:	af00      	add	r7, sp, #0
    TickType_t uxReturn;

    traceENTER_uxTaskResetEventItemValue();

    uxReturn = listGET_LIST_ITEM_VALUE( &( pxCurrentTCB->xEventListItem ) );
 800399a:	4b09      	ldr	r3, [pc, #36]	@ (80039c0 <uxTaskResetEventItemValue+0x2c>)
 800399c:	681b      	ldr	r3, [r3, #0]
 800399e:	699b      	ldr	r3, [r3, #24]
 80039a0:	607b      	str	r3, [r7, #4]

    /* Reset the event list item to its normal value - so it can be used with
     * queues and semaphores. */
    listSET_LIST_ITEM_VALUE( &( pxCurrentTCB->xEventListItem ), ( ( TickType_t ) configMAX_PRIORITIES - ( TickType_t ) pxCurrentTCB->uxPriority ) );
 80039a2:	4b07      	ldr	r3, [pc, #28]	@ (80039c0 <uxTaskResetEventItemValue+0x2c>)
 80039a4:	681b      	ldr	r3, [r3, #0]
 80039a6:	6ada      	ldr	r2, [r3, #44]	@ 0x2c
 80039a8:	4b05      	ldr	r3, [pc, #20]	@ (80039c0 <uxTaskResetEventItemValue+0x2c>)
 80039aa:	681b      	ldr	r3, [r3, #0]
 80039ac:	f1c2 0205 	rsb	r2, r2, #5
 80039b0:	619a      	str	r2, [r3, #24]

    traceRETURN_uxTaskResetEventItemValue( uxReturn );

    return uxReturn;
 80039b2:	687b      	ldr	r3, [r7, #4]
}
 80039b4:	4618      	mov	r0, r3
 80039b6:	370c      	adds	r7, #12
 80039b8:	46bd      	mov	sp, r7
 80039ba:	f85d 7b04 	ldr.w	r7, [sp], #4
 80039be:	4770      	bx	lr
 80039c0:	20000008 	.word	0x20000008

080039c4 <pvTaskIncrementMutexHeldCount>:
/*-----------------------------------------------------------*/

#if ( configUSE_MUTEXES == 1 )

    TaskHandle_t pvTaskIncrementMutexHeldCount( void )
    {
 80039c4:	b480      	push	{r7}
 80039c6:	b083      	sub	sp, #12
 80039c8:	af00      	add	r7, sp, #0
        TCB_t * pxTCB;

        traceENTER_pvTaskIncrementMutexHeldCount();

        pxTCB = pxCurrentTCB;
 80039ca:	4b09      	ldr	r3, [pc, #36]	@ (80039f0 <pvTaskIncrementMutexHeldCount+0x2c>)
 80039cc:	681b      	ldr	r3, [r3, #0]
 80039ce:	607b      	str	r3, [r7, #4]

        /* If xSemaphoreCreateMutex() is called before any tasks have been created
         * then pxCurrentTCB will be NULL. */
        if( pxTCB != NULL )
 80039d0:	687b      	ldr	r3, [r7, #4]
 80039d2:	2b00      	cmp	r3, #0
 80039d4:	d004      	beq.n	80039e0 <pvTaskIncrementMutexHeldCount+0x1c>
        {
            ( pxTCB->uxMutexesHeld )++;
 80039d6:	687b      	ldr	r3, [r7, #4]
 80039d8:	6c9b      	ldr	r3, [r3, #72]	@ 0x48
 80039da:	1c5a      	adds	r2, r3, #1
 80039dc:	687b      	ldr	r3, [r7, #4]
 80039de:	649a      	str	r2, [r3, #72]	@ 0x48
        }

        traceRETURN_pvTaskIncrementMutexHeldCount( pxTCB );

        return pxTCB;
 80039e0:	687b      	ldr	r3, [r7, #4]
    }
 80039e2:	4618      	mov	r0, r3
 80039e4:	370c      	adds	r7, #12
 80039e6:	46bd      	mov	sp, r7
 80039e8:	f85d 7b04 	ldr.w	r7, [sp], #4
 80039ec:	4770      	bx	lr
 80039ee:	bf00      	nop
 80039f0:	20000008 	.word	0x20000008

080039f4 <ulTaskGenericNotifyTake>:
#if ( configUSE_TASK_NOTIFICATIONS == 1 )

    uint32_t ulTaskGenericNotifyTake( UBaseType_t uxIndexToWaitOn,
                                      BaseType_t xClearCountOnExit,
                                      TickType_t xTicksToWait )
    {
 80039f4:	b580      	push	{r7, lr}
 80039f6:	b088      	sub	sp, #32
 80039f8:	af00      	add	r7, sp, #0
 80039fa:	60f8      	str	r0, [r7, #12]
 80039fc:	60b9      	str	r1, [r7, #8]
 80039fe:	607a      	str	r2, [r7, #4]
        uint32_t ulReturn;
        BaseType_t xAlreadyYielded, xShouldBlock = pdFALSE;
 8003a00:	2300      	movs	r3, #0
 8003a02:	61fb      	str	r3, [r7, #28]

        configASSERT( uxIndexToWaitOn < configTASK_NOTIFICATION_ARRAY_ENTRIES );

        /* If the notification count is zero, and if we are willing to wait for a
         * notification, then block the task and wait. */
        if( ( pxCurrentTCB->ulNotifiedValue[ uxIndexToWaitOn ] == 0U ) && ( xTicksToWait > ( TickType_t ) 0 ) )
 8003a04:	4b35      	ldr	r3, [pc, #212]	@ (8003adc <ulTaskGenericNotifyTake+0xe8>)
 8003a06:	681a      	ldr	r2, [r3, #0]
 8003a08:	68fb      	ldr	r3, [r7, #12]
 8003a0a:	3312      	adds	r3, #18
 8003a0c:	009b      	lsls	r3, r3, #2
 8003a0e:	4413      	add	r3, r2
 8003a10:	685b      	ldr	r3, [r3, #4]
 8003a12:	2b00      	cmp	r3, #0
 8003a14:	d132      	bne.n	8003a7c <ulTaskGenericNotifyTake+0x88>
 8003a16:	687b      	ldr	r3, [r7, #4]
 8003a18:	2b00      	cmp	r3, #0
 8003a1a:	d02f      	beq.n	8003a7c <ulTaskGenericNotifyTake+0x88>
        {
            /* We suspend the scheduler here as prvAddCurrentTaskToDelayedList is a
             * non-deterministic operation. */
            vTaskSuspendAll();
 8003a1c:	f7fe ffac 	bl	8002978 <vTaskSuspendAll>
            {
                /* We MUST enter a critical section to atomically check if a notification
                 * has occurred and set the flag to indicate that we are waiting for
                 * a notification. If we do not do so, a notification sent from an ISR
                 * will get lost. */
                taskENTER_CRITICAL();
 8003a20:	f001 f9a5 	bl	8004d6e <vPortEnterCritical>
                {
                    /* Only block if the notification count is not already non-zero. */
                    if( pxCurrentTCB->ulNotifiedValue[ uxIndexToWaitOn ] == 0U )
 8003a24:	4b2d      	ldr	r3, [pc, #180]	@ (8003adc <ulTaskGenericNotifyTake+0xe8>)
 8003a26:	681a      	ldr	r2, [r3, #0]
 8003a28:	68fb      	ldr	r3, [r7, #12]
 8003a2a:	3312      	adds	r3, #18
 8003a2c:	009b      	lsls	r3, r3, #2
 8003a2e:	4413      	add	r3, r2
 8003a30:	685b      	ldr	r3, [r3, #4]
 8003a32:	2b00      	cmp	r3, #0
 8003a34:	d108      	bne.n	8003a48 <ulTaskGenericNotifyTake+0x54>
                    {
                        /* Mark this task as waiting for a notification. */
                        pxCurrentTCB->ucNotifyState[ uxIndexToWaitOn ] = taskWAITING_NOTIFICATION;
 8003a36:	4b29      	ldr	r3, [pc, #164]	@ (8003adc <ulTaskGenericNotifyTake+0xe8>)
 8003a38:	681a      	ldr	r2, [r3, #0]
 8003a3a:	68fb      	ldr	r3, [r7, #12]
 8003a3c:	4413      	add	r3, r2
 8003a3e:	3350      	adds	r3, #80	@ 0x50
 8003a40:	2201      	movs	r2, #1
 8003a42:	701a      	strb	r2, [r3, #0]

                        /* Arrange to wait for a notification. */
                        xShouldBlock = pdTRUE;
 8003a44:	2301      	movs	r3, #1
 8003a46:	61fb      	str	r3, [r7, #28]
                    else
                    {
                        mtCOVERAGE_TEST_MARKER();
                    }
                }
                taskEXIT_CRITICAL();
 8003a48:	f001 f9ac 	bl	8004da4 <vPortExitCritical>

                /* We are now out of the critical section but the scheduler is still
                 * suspended, so we are safe to do non-deterministic operations such
                 * as prvAddCurrentTaskToDelayedList. */
                if( xShouldBlock == pdTRUE )
 8003a4c:	69fb      	ldr	r3, [r7, #28]
 8003a4e:	2b01      	cmp	r3, #1
 8003a50:	d103      	bne.n	8003a5a <ulTaskGenericNotifyTake+0x66>
                {
                    traceTASK_NOTIFY_TAKE_BLOCK( uxIndexToWaitOn );
                    prvAddCurrentTaskToDelayedList( xTicksToWait, pdTRUE );
 8003a52:	2101      	movs	r1, #1
 8003a54:	6878      	ldr	r0, [r7, #4]
 8003a56:	f000 fc21 	bl	800429c <prvAddCurrentTaskToDelayedList>
                else
                {
                    mtCOVERAGE_TEST_MARKER();
                }
            }
            xAlreadyYielded = xTaskResumeAll();
 8003a5a:	f7fe ff9b 	bl	8002994 <xTaskResumeAll>
 8003a5e:	61b8      	str	r0, [r7, #24]

            /* Force a reschedule if xTaskResumeAll has not already done so. */
            if( ( xShouldBlock == pdTRUE ) && ( xAlreadyYielded == pdFALSE ) )
 8003a60:	69fb      	ldr	r3, [r7, #28]
 8003a62:	2b01      	cmp	r3, #1
 8003a64:	d10a      	bne.n	8003a7c <ulTaskGenericNotifyTake+0x88>
 8003a66:	69bb      	ldr	r3, [r7, #24]
 8003a68:	2b00      	cmp	r3, #0
 8003a6a:	d107      	bne.n	8003a7c <ulTaskGenericNotifyTake+0x88>
            {
                taskYIELD_WITHIN_API();
 8003a6c:	4b1c      	ldr	r3, [pc, #112]	@ (8003ae0 <ulTaskGenericNotifyTake+0xec>)
 8003a6e:	f04f 5280 	mov.w	r2, #268435456	@ 0x10000000
 8003a72:	601a      	str	r2, [r3, #0]
 8003a74:	f3bf 8f4f 	dsb	sy
 8003a78:	f3bf 8f6f 	isb	sy
            {
                mtCOVERAGE_TEST_MARKER();
            }
        }

        taskENTER_CRITICAL();
 8003a7c:	f001 f977 	bl	8004d6e <vPortEnterCritical>
        {
            traceTASK_NOTIFY_TAKE( uxIndexToWaitOn );
            ulReturn = pxCurrentTCB->ulNotifiedValue[ uxIndexToWaitOn ];
 8003a80:	4b16      	ldr	r3, [pc, #88]	@ (8003adc <ulTaskGenericNotifyTake+0xe8>)
 8003a82:	681a      	ldr	r2, [r3, #0]
 8003a84:	68fb      	ldr	r3, [r7, #12]
 8003a86:	3312      	adds	r3, #18
 8003a88:	009b      	lsls	r3, r3, #2
 8003a8a:	4413      	add	r3, r2
 8003a8c:	685b      	ldr	r3, [r3, #4]
 8003a8e:	617b      	str	r3, [r7, #20]

            if( ulReturn != 0U )
 8003a90:	697b      	ldr	r3, [r7, #20]
 8003a92:	2b00      	cmp	r3, #0
 8003a94:	d014      	beq.n	8003ac0 <ulTaskGenericNotifyTake+0xcc>
            {
                if( xClearCountOnExit != pdFALSE )
 8003a96:	68bb      	ldr	r3, [r7, #8]
 8003a98:	2b00      	cmp	r3, #0
 8003a9a:	d008      	beq.n	8003aae <ulTaskGenericNotifyTake+0xba>
                {
                    pxCurrentTCB->ulNotifiedValue[ uxIndexToWaitOn ] = ( uint32_t ) 0U;
 8003a9c:	4b0f      	ldr	r3, [pc, #60]	@ (8003adc <ulTaskGenericNotifyTake+0xe8>)
 8003a9e:	681a      	ldr	r2, [r3, #0]
 8003aa0:	68fb      	ldr	r3, [r7, #12]
 8003aa2:	3312      	adds	r3, #18
 8003aa4:	009b      	lsls	r3, r3, #2
 8003aa6:	4413      	add	r3, r2
 8003aa8:	2200      	movs	r2, #0
 8003aaa:	605a      	str	r2, [r3, #4]
 8003aac:	e008      	b.n	8003ac0 <ulTaskGenericNotifyTake+0xcc>
                }
                else
                {
                    pxCurrentTCB->ulNotifiedValue[ uxIndexToWaitOn ] = ulReturn - ( uint32_t ) 1;
 8003aae:	4b0b      	ldr	r3, [pc, #44]	@ (8003adc <ulTaskGenericNotifyTake+0xe8>)
 8003ab0:	6819      	ldr	r1, [r3, #0]
 8003ab2:	697b      	ldr	r3, [r7, #20]
 8003ab4:	1e5a      	subs	r2, r3, #1
 8003ab6:	68fb      	ldr	r3, [r7, #12]
 8003ab8:	3312      	adds	r3, #18
 8003aba:	009b      	lsls	r3, r3, #2
 8003abc:	440b      	add	r3, r1
 8003abe:	605a      	str	r2, [r3, #4]
            else
            {
                mtCOVERAGE_TEST_MARKER();
            }

            pxCurrentTCB->ucNotifyState[ uxIndexToWaitOn ] = taskNOT_WAITING_NOTIFICATION;
 8003ac0:	4b06      	ldr	r3, [pc, #24]	@ (8003adc <ulTaskGenericNotifyTake+0xe8>)
 8003ac2:	681a      	ldr	r2, [r3, #0]
 8003ac4:	68fb      	ldr	r3, [r7, #12]
 8003ac6:	4413      	add	r3, r2
 8003ac8:	3350      	adds	r3, #80	@ 0x50
 8003aca:	2200      	movs	r2, #0
 8003acc:	701a      	strb	r2, [r3, #0]
        }
        taskEXIT_CRITICAL();
 8003ace:	f001 f969 	bl	8004da4 <vPortExitCritical>

        traceRETURN_ulTaskGenericNotifyTake( ulReturn );

        return ulReturn;
 8003ad2:	697b      	ldr	r3, [r7, #20]
    }
 8003ad4:	4618      	mov	r0, r3
 8003ad6:	3720      	adds	r7, #32
 8003ad8:	46bd      	mov	sp, r7
 8003ada:	bd80      	pop	{r7, pc}
 8003adc:	20000008 	.word	0x20000008
 8003ae0:	e000ed04 	.word	0xe000ed04

08003ae4 <xTaskGenericNotifyWait>:
    BaseType_t xTaskGenericNotifyWait( UBaseType_t uxIndexToWaitOn,
                                       uint32_t ulBitsToClearOnEntry,
                                       uint32_t ulBitsToClearOnExit,
                                       uint32_t * pulNotificationValue,
                                       TickType_t xTicksToWait )
    {
 8003ae4:	b580      	push	{r7, lr}
 8003ae6:	b088      	sub	sp, #32
 8003ae8:	af00      	add	r7, sp, #0
 8003aea:	60f8      	str	r0, [r7, #12]
 8003aec:	60b9      	str	r1, [r7, #8]
 8003aee:	607a      	str	r2, [r7, #4]
 8003af0:	603b      	str	r3, [r7, #0]
        BaseType_t xReturn, xAlreadyYielded, xShouldBlock = pdFALSE;
 8003af2:	2300      	movs	r3, #0
 8003af4:	61bb      	str	r3, [r7, #24]

        configASSERT( uxIndexToWaitOn < configTASK_NOTIFICATION_ARRAY_ENTRIES );

        /* If the task hasn't received a notification, and if we are willing to wait
         * for it, then block the task and wait. */
        if( ( pxCurrentTCB->ucNotifyState[ uxIndexToWaitOn ] != taskNOTIFICATION_RECEIVED ) && ( xTicksToWait > ( TickType_t ) 0 ) )
 8003af6:	4b42      	ldr	r3, [pc, #264]	@ (8003c00 <xTaskGenericNotifyWait+0x11c>)
 8003af8:	681a      	ldr	r2, [r3, #0]
 8003afa:	68fb      	ldr	r3, [r7, #12]
 8003afc:	4413      	add	r3, r2
 8003afe:	3350      	adds	r3, #80	@ 0x50
 8003b00:	781b      	ldrb	r3, [r3, #0]
 8003b02:	b2db      	uxtb	r3, r3
 8003b04:	2b02      	cmp	r3, #2
 8003b06:	d041      	beq.n	8003b8c <xTaskGenericNotifyWait+0xa8>
 8003b08:	6abb      	ldr	r3, [r7, #40]	@ 0x28
 8003b0a:	2b00      	cmp	r3, #0
 8003b0c:	d03e      	beq.n	8003b8c <xTaskGenericNotifyWait+0xa8>
        {
            /* We suspend the scheduler here as prvAddCurrentTaskToDelayedList is a
             * non-deterministic operation. */
            vTaskSuspendAll();
 8003b0e:	f7fe ff33 	bl	8002978 <vTaskSuspendAll>
            {
                /* We MUST enter a critical section to atomically check and update the
                 * task notification value. If we do not do so, a notification from
                 * an ISR will get lost. */
                taskENTER_CRITICAL();
 8003b12:	f001 f92c 	bl	8004d6e <vPortEnterCritical>
                {
                    /* Only block if a notification is not already pending. */
                    if( pxCurrentTCB->ucNotifyState[ uxIndexToWaitOn ] != taskNOTIFICATION_RECEIVED )
 8003b16:	4b3a      	ldr	r3, [pc, #232]	@ (8003c00 <xTaskGenericNotifyWait+0x11c>)
 8003b18:	681a      	ldr	r2, [r3, #0]
 8003b1a:	68fb      	ldr	r3, [r7, #12]
 8003b1c:	4413      	add	r3, r2
 8003b1e:	3350      	adds	r3, #80	@ 0x50
 8003b20:	781b      	ldrb	r3, [r3, #0]
 8003b22:	b2db      	uxtb	r3, r3
 8003b24:	2b02      	cmp	r3, #2
 8003b26:	d017      	beq.n	8003b58 <xTaskGenericNotifyWait+0x74>
                    {
                        /* Clear bits in the task's notification value as bits may get
                         * set by the notifying task or interrupt. This can be used
                         * to clear the value to zero. */
                        pxCurrentTCB->ulNotifiedValue[ uxIndexToWaitOn ] &= ~ulBitsToClearOnEntry;
 8003b28:	4b35      	ldr	r3, [pc, #212]	@ (8003c00 <xTaskGenericNotifyWait+0x11c>)
 8003b2a:	681a      	ldr	r2, [r3, #0]
 8003b2c:	68fb      	ldr	r3, [r7, #12]
 8003b2e:	3312      	adds	r3, #18
 8003b30:	009b      	lsls	r3, r3, #2
 8003b32:	4413      	add	r3, r2
 8003b34:	6859      	ldr	r1, [r3, #4]
 8003b36:	68bb      	ldr	r3, [r7, #8]
 8003b38:	43db      	mvns	r3, r3
 8003b3a:	4019      	ands	r1, r3
 8003b3c:	68fb      	ldr	r3, [r7, #12]
 8003b3e:	3312      	adds	r3, #18
 8003b40:	009b      	lsls	r3, r3, #2
 8003b42:	4413      	add	r3, r2
 8003b44:	6059      	str	r1, [r3, #4]

                        /* Mark this task as waiting for a notification. */
                        pxCurrentTCB->ucNotifyState[ uxIndexToWaitOn ] = taskWAITING_NOTIFICATION;
 8003b46:	4b2e      	ldr	r3, [pc, #184]	@ (8003c00 <xTaskGenericNotifyWait+0x11c>)
 8003b48:	681a      	ldr	r2, [r3, #0]
 8003b4a:	68fb      	ldr	r3, [r7, #12]
 8003b4c:	4413      	add	r3, r2
 8003b4e:	3350      	adds	r3, #80	@ 0x50
 8003b50:	2201      	movs	r2, #1
 8003b52:	701a      	strb	r2, [r3, #0]

                        /* Arrange to wait for a notification. */
                        xShouldBlock = pdTRUE;
 8003b54:	2301      	movs	r3, #1
 8003b56:	61bb      	str	r3, [r7, #24]
                    else
                    {
                        mtCOVERAGE_TEST_MARKER();
                    }
                }
                taskEXIT_CRITICAL();
 8003b58:	f001 f924 	bl	8004da4 <vPortExitCritical>

                /* We are now out of the critical section but the scheduler is still
                 * suspended, so we are safe to do non-deterministic operations such
                 * as prvAddCurrentTaskToDelayedList. */
                if( xShouldBlock == pdTRUE )
 8003b5c:	69bb      	ldr	r3, [r7, #24]
 8003b5e:	2b01      	cmp	r3, #1
 8003b60:	d103      	bne.n	8003b6a <xTaskGenericNotifyWait+0x86>
                {
                    traceTASK_NOTIFY_WAIT_BLOCK( uxIndexToWaitOn );
                    prvAddCurrentTaskToDelayedList( xTicksToWait, pdTRUE );
 8003b62:	2101      	movs	r1, #1
 8003b64:	6ab8      	ldr	r0, [r7, #40]	@ 0x28
 8003b66:	f000 fb99 	bl	800429c <prvAddCurrentTaskToDelayedList>
                else
                {
                    mtCOVERAGE_TEST_MARKER();
                }
            }
            xAlreadyYielded = xTaskResumeAll();
 8003b6a:	f7fe ff13 	bl	8002994 <xTaskResumeAll>
 8003b6e:	6178      	str	r0, [r7, #20]

            /* Force a reschedule if xTaskResumeAll has not already done so. */
            if( ( xShouldBlock == pdTRUE ) && ( xAlreadyYielded == pdFALSE ) )
 8003b70:	69bb      	ldr	r3, [r7, #24]
 8003b72:	2b01      	cmp	r3, #1
 8003b74:	d10a      	bne.n	8003b8c <xTaskGenericNotifyWait+0xa8>
 8003b76:	697b      	ldr	r3, [r7, #20]
 8003b78:	2b00      	cmp	r3, #0
 8003b7a:	d107      	bne.n	8003b8c <xTaskGenericNotifyWait+0xa8>
            {
                taskYIELD_WITHIN_API();
 8003b7c:	4b21      	ldr	r3, [pc, #132]	@ (8003c04 <xTaskGenericNotifyWait+0x120>)
 8003b7e:	f04f 5280 	mov.w	r2, #268435456	@ 0x10000000
 8003b82:	601a      	str	r2, [r3, #0]
 8003b84:	f3bf 8f4f 	dsb	sy
 8003b88:	f3bf 8f6f 	isb	sy
            {
                mtCOVERAGE_TEST_MARKER();
            }
        }

        taskENTER_CRITICAL();
 8003b8c:	f001 f8ef 	bl	8004d6e <vPortEnterCritical>
        {
            traceTASK_NOTIFY_WAIT( uxIndexToWaitOn );

            if( pulNotificationValue != NULL )
 8003b90:	683b      	ldr	r3, [r7, #0]
 8003b92:	2b00      	cmp	r3, #0
 8003b94:	d008      	beq.n	8003ba8 <xTaskGenericNotifyWait+0xc4>
            {
                /* Output the current notification value, which may or may not
                 * have changed. */
                *pulNotificationValue = pxCurrentTCB->ulNotifiedValue[ uxIndexToWaitOn ];
 8003b96:	4b1a      	ldr	r3, [pc, #104]	@ (8003c00 <xTaskGenericNotifyWait+0x11c>)
 8003b98:	681a      	ldr	r2, [r3, #0]
 8003b9a:	68fb      	ldr	r3, [r7, #12]
 8003b9c:	3312      	adds	r3, #18
 8003b9e:	009b      	lsls	r3, r3, #2
 8003ba0:	4413      	add	r3, r2
 8003ba2:	685a      	ldr	r2, [r3, #4]
 8003ba4:	683b      	ldr	r3, [r7, #0]
 8003ba6:	601a      	str	r2, [r3, #0]

            /* If ucNotifyValue is set then either the task never entered the
             * blocked state (because a notification was already pending) or the
             * task unblocked because of a notification.  Otherwise the task
             * unblocked because of a timeout. */
            if( pxCurrentTCB->ucNotifyState[ uxIndexToWaitOn ] != taskNOTIFICATION_RECEIVED )
 8003ba8:	4b15      	ldr	r3, [pc, #84]	@ (8003c00 <xTaskGenericNotifyWait+0x11c>)
 8003baa:	681a      	ldr	r2, [r3, #0]
 8003bac:	68fb      	ldr	r3, [r7, #12]
 8003bae:	4413      	add	r3, r2
 8003bb0:	3350      	adds	r3, #80	@ 0x50
 8003bb2:	781b      	ldrb	r3, [r3, #0]
 8003bb4:	b2db      	uxtb	r3, r3
 8003bb6:	2b02      	cmp	r3, #2
 8003bb8:	d002      	beq.n	8003bc0 <xTaskGenericNotifyWait+0xdc>
            {
                /* A notification was not received. */
                xReturn = pdFALSE;
 8003bba:	2300      	movs	r3, #0
 8003bbc:	61fb      	str	r3, [r7, #28]
 8003bbe:	e010      	b.n	8003be2 <xTaskGenericNotifyWait+0xfe>
            }
            else
            {
                /* A notification was already pending or a notification was
                 * received while the task was waiting. */
                pxCurrentTCB->ulNotifiedValue[ uxIndexToWaitOn ] &= ~ulBitsToClearOnExit;
 8003bc0:	4b0f      	ldr	r3, [pc, #60]	@ (8003c00 <xTaskGenericNotifyWait+0x11c>)
 8003bc2:	681a      	ldr	r2, [r3, #0]
 8003bc4:	68fb      	ldr	r3, [r7, #12]
 8003bc6:	3312      	adds	r3, #18
 8003bc8:	009b      	lsls	r3, r3, #2
 8003bca:	4413      	add	r3, r2
 8003bcc:	6859      	ldr	r1, [r3, #4]
 8003bce:	687b      	ldr	r3, [r7, #4]
 8003bd0:	43db      	mvns	r3, r3
 8003bd2:	4019      	ands	r1, r3
 8003bd4:	68fb      	ldr	r3, [r7, #12]
 8003bd6:	3312      	adds	r3, #18
 8003bd8:	009b      	lsls	r3, r3, #2
 8003bda:	4413      	add	r3, r2
 8003bdc:	6059      	str	r1, [r3, #4]
                xReturn = pdTRUE;
 8003bde:	2301      	movs	r3, #1
 8003be0:	61fb      	str	r3, [r7, #28]
            }

            pxCurrentTCB->ucNotifyState[ uxIndexToWaitOn ] = taskNOT_WAITING_NOTIFICATION;
 8003be2:	4b07      	ldr	r3, [pc, #28]	@ (8003c00 <xTaskGenericNotifyWait+0x11c>)
 8003be4:	681a      	ldr	r2, [r3, #0]
 8003be6:	68fb      	ldr	r3, [r7, #12]
 8003be8:	4413      	add	r3, r2
 8003bea:	3350      	adds	r3, #80	@ 0x50
 8003bec:	2200      	movs	r2, #0
 8003bee:	701a      	strb	r2, [r3, #0]
        }
        taskEXIT_CRITICAL();
 8003bf0:	f001 f8d8 	bl	8004da4 <vPortExitCritical>

        traceRETURN_xTaskGenericNotifyWait( xReturn );

        return xReturn;
 8003bf4:	69fb      	ldr	r3, [r7, #28]
    }
 8003bf6:	4618      	mov	r0, r3
 8003bf8:	3720      	adds	r7, #32
 8003bfa:	46bd      	mov	sp, r7
 8003bfc:	bd80      	pop	{r7, pc}
 8003bfe:	bf00      	nop
 8003c00:	20000008 	.word	0x20000008
 8003c04:	e000ed04 	.word	0xe000ed04

08003c08 <xTaskGenericNotify>:
    BaseType_t xTaskGenericNotify( TaskHandle_t xTaskToNotify,
                                   UBaseType_t uxIndexToNotify,
                                   uint32_t ulValue,
                                   eNotifyAction eAction,
                                   uint32_t * pulPreviousNotificationValue )
    {
 8003c08:	b580      	push	{r7, lr}
 8003c0a:	b08a      	sub	sp, #40	@ 0x28
 8003c0c:	af00      	add	r7, sp, #0
 8003c0e:	60f8      	str	r0, [r7, #12]
 8003c10:	60b9      	str	r1, [r7, #8]
 8003c12:	607a      	str	r2, [r7, #4]
 8003c14:	70fb      	strb	r3, [r7, #3]
        TCB_t * pxTCB;
        BaseType_t xReturn = pdPASS;
 8003c16:	2301      	movs	r3, #1
 8003c18:	627b      	str	r3, [r7, #36]	@ 0x24

        traceENTER_xTaskGenericNotify( xTaskToNotify, uxIndexToNotify, ulValue, eAction, pulPreviousNotificationValue );

        configASSERT( uxIndexToNotify < configTASK_NOTIFICATION_ARRAY_ENTRIES );
        configASSERT( xTaskToNotify );
        pxTCB = xTaskToNotify;
 8003c1a:	68fb      	ldr	r3, [r7, #12]
 8003c1c:	623b      	str	r3, [r7, #32]

        taskENTER_CRITICAL();
 8003c1e:	f001 f8a6 	bl	8004d6e <vPortEnterCritical>
        {
            if( pulPreviousNotificationValue != NULL )
 8003c22:	6b3b      	ldr	r3, [r7, #48]	@ 0x30
 8003c24:	2b00      	cmp	r3, #0
 8003c26:	d007      	beq.n	8003c38 <xTaskGenericNotify+0x30>
            {
                *pulPreviousNotificationValue = pxTCB->ulNotifiedValue[ uxIndexToNotify ];
 8003c28:	6a3a      	ldr	r2, [r7, #32]
 8003c2a:	68bb      	ldr	r3, [r7, #8]
 8003c2c:	3312      	adds	r3, #18
 8003c2e:	009b      	lsls	r3, r3, #2
 8003c30:	4413      	add	r3, r2
 8003c32:	685a      	ldr	r2, [r3, #4]
 8003c34:	6b3b      	ldr	r3, [r7, #48]	@ 0x30
 8003c36:	601a      	str	r2, [r3, #0]
            }

            ucOriginalNotifyState = pxTCB->ucNotifyState[ uxIndexToNotify ];
 8003c38:	6a3a      	ldr	r2, [r7, #32]
 8003c3a:	68bb      	ldr	r3, [r7, #8]
 8003c3c:	4413      	add	r3, r2
 8003c3e:	3350      	adds	r3, #80	@ 0x50
 8003c40:	781b      	ldrb	r3, [r3, #0]
 8003c42:	77fb      	strb	r3, [r7, #31]

            pxTCB->ucNotifyState[ uxIndexToNotify ] = taskNOTIFICATION_RECEIVED;
 8003c44:	6a3a      	ldr	r2, [r7, #32]
 8003c46:	68bb      	ldr	r3, [r7, #8]
 8003c48:	4413      	add	r3, r2
 8003c4a:	3350      	adds	r3, #80	@ 0x50
 8003c4c:	2202      	movs	r2, #2
 8003c4e:	701a      	strb	r2, [r3, #0]

            switch( eAction )
 8003c50:	78fb      	ldrb	r3, [r7, #3]
 8003c52:	2b04      	cmp	r3, #4
 8003c54:	d83f      	bhi.n	8003cd6 <xTaskGenericNotify+0xce>
 8003c56:	a201      	add	r2, pc, #4	@ (adr r2, 8003c5c <xTaskGenericNotify+0x54>)
 8003c58:	f852 f023 	ldr.w	pc, [r2, r3, lsl #2]
 8003c5c:	08003cd7 	.word	0x08003cd7
 8003c60:	08003c71 	.word	0x08003c71
 8003c64:	08003c8f 	.word	0x08003c8f
 8003c68:	08003cab 	.word	0x08003cab
 8003c6c:	08003cbb 	.word	0x08003cbb
            {
                case eSetBits:
                    pxTCB->ulNotifiedValue[ uxIndexToNotify ] |= ulValue;
 8003c70:	6a3a      	ldr	r2, [r7, #32]
 8003c72:	68bb      	ldr	r3, [r7, #8]
 8003c74:	3312      	adds	r3, #18
 8003c76:	009b      	lsls	r3, r3, #2
 8003c78:	4413      	add	r3, r2
 8003c7a:	685a      	ldr	r2, [r3, #4]
 8003c7c:	687b      	ldr	r3, [r7, #4]
 8003c7e:	431a      	orrs	r2, r3
 8003c80:	6a39      	ldr	r1, [r7, #32]
 8003c82:	68bb      	ldr	r3, [r7, #8]
 8003c84:	3312      	adds	r3, #18
 8003c86:	009b      	lsls	r3, r3, #2
 8003c88:	440b      	add	r3, r1
 8003c8a:	605a      	str	r2, [r3, #4]
                    break;
 8003c8c:	e024      	b.n	8003cd8 <xTaskGenericNotify+0xd0>

                case eIncrement:
                    ( pxTCB->ulNotifiedValue[ uxIndexToNotify ] )++;
 8003c8e:	6a3a      	ldr	r2, [r7, #32]
 8003c90:	68bb      	ldr	r3, [r7, #8]
 8003c92:	3312      	adds	r3, #18
 8003c94:	009b      	lsls	r3, r3, #2
 8003c96:	4413      	add	r3, r2
 8003c98:	685b      	ldr	r3, [r3, #4]
 8003c9a:	1c5a      	adds	r2, r3, #1
 8003c9c:	6a39      	ldr	r1, [r7, #32]
 8003c9e:	68bb      	ldr	r3, [r7, #8]
 8003ca0:	3312      	adds	r3, #18
 8003ca2:	009b      	lsls	r3, r3, #2
 8003ca4:	440b      	add	r3, r1
 8003ca6:	605a      	str	r2, [r3, #4]
                    break;
 8003ca8:	e016      	b.n	8003cd8 <xTaskGenericNotify+0xd0>

                case eSetValueWithOverwrite:
                    pxTCB->ulNotifiedValue[ uxIndexToNotify ] = ulValue;
 8003caa:	6a3a      	ldr	r2, [r7, #32]
 8003cac:	68bb      	ldr	r3, [r7, #8]
 8003cae:	3312      	adds	r3, #18
 8003cb0:	009b      	lsls	r3, r3, #2
 8003cb2:	4413      	add	r3, r2
 8003cb4:	687a      	ldr	r2, [r7, #4]
 8003cb6:	605a      	str	r2, [r3, #4]
                    break;
 8003cb8:	e00e      	b.n	8003cd8 <xTaskGenericNotify+0xd0>

                case eSetValueWithoutOverwrite:

                    if( ucOriginalNotifyState != taskNOTIFICATION_RECEIVED )
 8003cba:	7ffb      	ldrb	r3, [r7, #31]
 8003cbc:	2b02      	cmp	r3, #2
 8003cbe:	d007      	beq.n	8003cd0 <xTaskGenericNotify+0xc8>
                    {
                        pxTCB->ulNotifiedValue[ uxIndexToNotify ] = ulValue;
 8003cc0:	6a3a      	ldr	r2, [r7, #32]
 8003cc2:	68bb      	ldr	r3, [r7, #8]
 8003cc4:	3312      	adds	r3, #18
 8003cc6:	009b      	lsls	r3, r3, #2
 8003cc8:	4413      	add	r3, r2
 8003cca:	687a      	ldr	r2, [r7, #4]
 8003ccc:	605a      	str	r2, [r3, #4]
                    {
                        /* The value could not be written to the task. */
                        xReturn = pdFAIL;
                    }

                    break;
 8003cce:	e003      	b.n	8003cd8 <xTaskGenericNotify+0xd0>
                        xReturn = pdFAIL;
 8003cd0:	2300      	movs	r3, #0
 8003cd2:	627b      	str	r3, [r7, #36]	@ 0x24
                    break;
 8003cd4:	e000      	b.n	8003cd8 <xTaskGenericNotify+0xd0>
                    /* Should not get here if all enums are handled.
                     * Artificially force an assert by testing a value the
                     * compiler can't assume is const. */
                    configASSERT( xTickCount == ( TickType_t ) 0 );

                    break;
 8003cd6:	bf00      	nop

            traceTASK_NOTIFY( uxIndexToNotify );

            /* If the task is in the blocked state specifically to wait for a
             * notification then unblock it now. */
            if( ucOriginalNotifyState == taskWAITING_NOTIFICATION )
 8003cd8:	7ffb      	ldrb	r3, [r7, #31]
 8003cda:	2b01      	cmp	r3, #1
 8003cdc:	d16e      	bne.n	8003dbc <xTaskGenericNotify+0x1b4>
            {
                listREMOVE_ITEM( &( pxTCB->xStateListItem ) );
 8003cde:	6a3b      	ldr	r3, [r7, #32]
 8003ce0:	695b      	ldr	r3, [r3, #20]
 8003ce2:	61bb      	str	r3, [r7, #24]
 8003ce4:	6a3b      	ldr	r3, [r7, #32]
 8003ce6:	689b      	ldr	r3, [r3, #8]
 8003ce8:	6a3a      	ldr	r2, [r7, #32]
 8003cea:	68d2      	ldr	r2, [r2, #12]
 8003cec:	609a      	str	r2, [r3, #8]
 8003cee:	6a3b      	ldr	r3, [r7, #32]
 8003cf0:	68db      	ldr	r3, [r3, #12]
 8003cf2:	6a3a      	ldr	r2, [r7, #32]
 8003cf4:	6892      	ldr	r2, [r2, #8]
 8003cf6:	605a      	str	r2, [r3, #4]
 8003cf8:	69bb      	ldr	r3, [r7, #24]
 8003cfa:	685a      	ldr	r2, [r3, #4]
 8003cfc:	6a3b      	ldr	r3, [r7, #32]
 8003cfe:	3304      	adds	r3, #4
 8003d00:	429a      	cmp	r2, r3
 8003d02:	d103      	bne.n	8003d0c <xTaskGenericNotify+0x104>
 8003d04:	6a3b      	ldr	r3, [r7, #32]
 8003d06:	68da      	ldr	r2, [r3, #12]
 8003d08:	69bb      	ldr	r3, [r7, #24]
 8003d0a:	605a      	str	r2, [r3, #4]
 8003d0c:	6a3b      	ldr	r3, [r7, #32]
 8003d0e:	2200      	movs	r2, #0
 8003d10:	615a      	str	r2, [r3, #20]
 8003d12:	69bb      	ldr	r3, [r7, #24]
 8003d14:	681b      	ldr	r3, [r3, #0]
 8003d16:	1e5a      	subs	r2, r3, #1
 8003d18:	69bb      	ldr	r3, [r7, #24]
 8003d1a:	601a      	str	r2, [r3, #0]
                prvAddTaskToReadyList( pxTCB );
 8003d1c:	6a3b      	ldr	r3, [r7, #32]
 8003d1e:	6adb      	ldr	r3, [r3, #44]	@ 0x2c
 8003d20:	2201      	movs	r2, #1
 8003d22:	409a      	lsls	r2, r3
 8003d24:	4b29      	ldr	r3, [pc, #164]	@ (8003dcc <xTaskGenericNotify+0x1c4>)
 8003d26:	681b      	ldr	r3, [r3, #0]
 8003d28:	4313      	orrs	r3, r2
 8003d2a:	4a28      	ldr	r2, [pc, #160]	@ (8003dcc <xTaskGenericNotify+0x1c4>)
 8003d2c:	6013      	str	r3, [r2, #0]
 8003d2e:	6a3b      	ldr	r3, [r7, #32]
 8003d30:	6ada      	ldr	r2, [r3, #44]	@ 0x2c
 8003d32:	4927      	ldr	r1, [pc, #156]	@ (8003dd0 <xTaskGenericNotify+0x1c8>)
 8003d34:	4613      	mov	r3, r2
 8003d36:	009b      	lsls	r3, r3, #2
 8003d38:	4413      	add	r3, r2
 8003d3a:	009b      	lsls	r3, r3, #2
 8003d3c:	440b      	add	r3, r1
 8003d3e:	3304      	adds	r3, #4
 8003d40:	681b      	ldr	r3, [r3, #0]
 8003d42:	617b      	str	r3, [r7, #20]
 8003d44:	6a3b      	ldr	r3, [r7, #32]
 8003d46:	697a      	ldr	r2, [r7, #20]
 8003d48:	609a      	str	r2, [r3, #8]
 8003d4a:	697b      	ldr	r3, [r7, #20]
 8003d4c:	689a      	ldr	r2, [r3, #8]
 8003d4e:	6a3b      	ldr	r3, [r7, #32]
 8003d50:	60da      	str	r2, [r3, #12]
 8003d52:	697b      	ldr	r3, [r7, #20]
 8003d54:	689b      	ldr	r3, [r3, #8]
 8003d56:	6a3a      	ldr	r2, [r7, #32]
 8003d58:	3204      	adds	r2, #4
 8003d5a:	605a      	str	r2, [r3, #4]
 8003d5c:	6a3b      	ldr	r3, [r7, #32]
 8003d5e:	1d1a      	adds	r2, r3, #4
 8003d60:	697b      	ldr	r3, [r7, #20]
 8003d62:	609a      	str	r2, [r3, #8]
 8003d64:	6a3b      	ldr	r3, [r7, #32]
 8003d66:	6ada      	ldr	r2, [r3, #44]	@ 0x2c
 8003d68:	4613      	mov	r3, r2
 8003d6a:	009b      	lsls	r3, r3, #2
 8003d6c:	4413      	add	r3, r2
 8003d6e:	009b      	lsls	r3, r3, #2
 8003d70:	4a17      	ldr	r2, [pc, #92]	@ (8003dd0 <xTaskGenericNotify+0x1c8>)
 8003d72:	441a      	add	r2, r3
 8003d74:	6a3b      	ldr	r3, [r7, #32]
 8003d76:	615a      	str	r2, [r3, #20]
 8003d78:	6a3b      	ldr	r3, [r7, #32]
 8003d7a:	6ada      	ldr	r2, [r3, #44]	@ 0x2c
 8003d7c:	4914      	ldr	r1, [pc, #80]	@ (8003dd0 <xTaskGenericNotify+0x1c8>)
 8003d7e:	4613      	mov	r3, r2
 8003d80:	009b      	lsls	r3, r3, #2
 8003d82:	4413      	add	r3, r2
 8003d84:	009b      	lsls	r3, r3, #2
 8003d86:	440b      	add	r3, r1
 8003d88:	681b      	ldr	r3, [r3, #0]
 8003d8a:	6a3a      	ldr	r2, [r7, #32]
 8003d8c:	6ad2      	ldr	r2, [r2, #44]	@ 0x2c
 8003d8e:	1c59      	adds	r1, r3, #1
 8003d90:	480f      	ldr	r0, [pc, #60]	@ (8003dd0 <xTaskGenericNotify+0x1c8>)
 8003d92:	4613      	mov	r3, r2
 8003d94:	009b      	lsls	r3, r3, #2
 8003d96:	4413      	add	r3, r2
 8003d98:	009b      	lsls	r3, r3, #2
 8003d9a:	4403      	add	r3, r0
 8003d9c:	6019      	str	r1, [r3, #0]
                }
                #endif

                /* Check if the notified task has a priority above the currently
                 * executing task. */
                taskYIELD_ANY_CORE_IF_USING_PREEMPTION( pxTCB );
 8003d9e:	4b0d      	ldr	r3, [pc, #52]	@ (8003dd4 <xTaskGenericNotify+0x1cc>)
 8003da0:	681b      	ldr	r3, [r3, #0]
 8003da2:	6ada      	ldr	r2, [r3, #44]	@ 0x2c
 8003da4:	6a3b      	ldr	r3, [r7, #32]
 8003da6:	6adb      	ldr	r3, [r3, #44]	@ 0x2c
 8003da8:	429a      	cmp	r2, r3
 8003daa:	d207      	bcs.n	8003dbc <xTaskGenericNotify+0x1b4>
 8003dac:	4b0a      	ldr	r3, [pc, #40]	@ (8003dd8 <xTaskGenericNotify+0x1d0>)
 8003dae:	f04f 5280 	mov.w	r2, #268435456	@ 0x10000000
 8003db2:	601a      	str	r2, [r3, #0]
 8003db4:	f3bf 8f4f 	dsb	sy
 8003db8:	f3bf 8f6f 	isb	sy
            else
            {
                mtCOVERAGE_TEST_MARKER();
            }
        }
        taskEXIT_CRITICAL();
 8003dbc:	f000 fff2 	bl	8004da4 <vPortExitCritical>

        traceRETURN_xTaskGenericNotify( xReturn );

        return xReturn;
 8003dc0:	6a7b      	ldr	r3, [r7, #36]	@ 0x24
    }
 8003dc2:	4618      	mov	r0, r3
 8003dc4:	3728      	adds	r7, #40	@ 0x28
 8003dc6:	46bd      	mov	sp, r7
 8003dc8:	bd80      	pop	{r7, pc}
 8003dca:	bf00      	nop
 8003dcc:	200000e8 	.word	0x200000e8
 8003dd0:	2000000c 	.word	0x2000000c
 8003dd4:	20000008 	.word	0x20000008
 8003dd8:	e000ed04 	.word	0xe000ed04

08003ddc <xTaskGenericNotifyFromISR>:
                                          UBaseType_t uxIndexToNotify,
                                          uint32_t ulValue,
                                          eNotifyAction eAction,
                                          uint32_t * pulPreviousNotificationValue,
                                          BaseType_t * pxHigherPriorityTaskWoken )
    {
 8003ddc:	b480      	push	{r7}
 8003dde:	b08f      	sub	sp, #60	@ 0x3c
 8003de0:	af00      	add	r7, sp, #0
 8003de2:	60f8      	str	r0, [r7, #12]
 8003de4:	60b9      	str	r1, [r7, #8]
 8003de6:	607a      	str	r2, [r7, #4]
 8003de8:	70fb      	strb	r3, [r7, #3]
        TCB_t * pxTCB;
        uint8_t ucOriginalNotifyState;
        BaseType_t xReturn = pdPASS;
 8003dea:	2301      	movs	r3, #1
 8003dec:	637b      	str	r3, [r7, #52]	@ 0x34
         * simple as possible.  More information (albeit Cortex-M specific) is
         * provided on the following link:
         * https://www.FreeRTOS.org/RTOS-Cortex-M3-M4.html */
        portASSERT_IF_INTERRUPT_PRIORITY_INVALID();

        pxTCB = xTaskToNotify;
 8003dee:	68fb      	ldr	r3, [r7, #12]
 8003df0:	633b      	str	r3, [r7, #48]	@ 0x30
    __asm volatile
 8003df2:	f3ef 8211 	mrs	r2, BASEPRI
 8003df6:	f04f 0350 	mov.w	r3, #80	@ 0x50
 8003dfa:	f383 8811 	msr	BASEPRI, r3
 8003dfe:	f3bf 8f6f 	isb	sy
 8003e02:	f3bf 8f4f 	dsb	sy
 8003e06:	61ba      	str	r2, [r7, #24]
 8003e08:	617b      	str	r3, [r7, #20]
    return ulOriginalBASEPRI;
 8003e0a:	69bb      	ldr	r3, [r7, #24]

        /* MISRA Ref 4.7.1 [Return value shall be checked] */
        /* More details at: https://github.com/FreeRTOS/FreeRTOS-Kernel/blob/main/MISRA.md#dir-47 */
        /* coverity[misra_c_2012_directive_4_7_violation] */
        uxSavedInterruptStatus = ( UBaseType_t ) taskENTER_CRITICAL_FROM_ISR();
 8003e0c:	62fb      	str	r3, [r7, #44]	@ 0x2c
        {
            if( pulPreviousNotificationValue != NULL )
 8003e0e:	6c3b      	ldr	r3, [r7, #64]	@ 0x40
 8003e10:	2b00      	cmp	r3, #0
 8003e12:	d007      	beq.n	8003e24 <xTaskGenericNotifyFromISR+0x48>
            {
                *pulPreviousNotificationValue = pxTCB->ulNotifiedValue[ uxIndexToNotify ];
 8003e14:	6b3a      	ldr	r2, [r7, #48]	@ 0x30
 8003e16:	68bb      	ldr	r3, [r7, #8]
 8003e18:	3312      	adds	r3, #18
 8003e1a:	009b      	lsls	r3, r3, #2
 8003e1c:	4413      	add	r3, r2
 8003e1e:	685a      	ldr	r2, [r3, #4]
 8003e20:	6c3b      	ldr	r3, [r7, #64]	@ 0x40
 8003e22:	601a      	str	r2, [r3, #0]
            }

            ucOriginalNotifyState = pxTCB->ucNotifyState[ uxIndexToNotify ];
 8003e24:	6b3a      	ldr	r2, [r7, #48]	@ 0x30
 8003e26:	68bb      	ldr	r3, [r7, #8]
 8003e28:	4413      	add	r3, r2
 8003e2a:	3350      	adds	r3, #80	@ 0x50
 8003e2c:	781b      	ldrb	r3, [r3, #0]
 8003e2e:	f887 302b 	strb.w	r3, [r7, #43]	@ 0x2b
            pxTCB->ucNotifyState[ uxIndexToNotify ] = taskNOTIFICATION_RECEIVED;
 8003e32:	6b3a      	ldr	r2, [r7, #48]	@ 0x30
 8003e34:	68bb      	ldr	r3, [r7, #8]
 8003e36:	4413      	add	r3, r2
 8003e38:	3350      	adds	r3, #80	@ 0x50
 8003e3a:	2202      	movs	r2, #2
 8003e3c:	701a      	strb	r2, [r3, #0]

            switch( eAction )
 8003e3e:	78fb      	ldrb	r3, [r7, #3]
 8003e40:	2b04      	cmp	r3, #4
 8003e42:	d841      	bhi.n	8003ec8 <xTaskGenericNotifyFromISR+0xec>
 8003e44:	a201      	add	r2, pc, #4	@ (adr r2, 8003e4c <xTaskGenericNotifyFromISR+0x70>)
 8003e46:	f852 f023 	ldr.w	pc, [r2, r3, lsl #2]
 8003e4a:	bf00      	nop
 8003e4c:	08003ec9 	.word	0x08003ec9
 8003e50:	08003e61 	.word	0x08003e61
 8003e54:	08003e7f 	.word	0x08003e7f
 8003e58:	08003e9b 	.word	0x08003e9b
 8003e5c:	08003eab 	.word	0x08003eab
            {
                case eSetBits:
                    pxTCB->ulNotifiedValue[ uxIndexToNotify ] |= ulValue;
 8003e60:	6b3a      	ldr	r2, [r7, #48]	@ 0x30
 8003e62:	68bb      	ldr	r3, [r7, #8]
 8003e64:	3312      	adds	r3, #18
 8003e66:	009b      	lsls	r3, r3, #2
 8003e68:	4413      	add	r3, r2
 8003e6a:	685a      	ldr	r2, [r3, #4]
 8003e6c:	687b      	ldr	r3, [r7, #4]
 8003e6e:	431a      	orrs	r2, r3
 8003e70:	6b39      	ldr	r1, [r7, #48]	@ 0x30
 8003e72:	68bb      	ldr	r3, [r7, #8]
 8003e74:	3312      	adds	r3, #18
 8003e76:	009b      	lsls	r3, r3, #2
 8003e78:	440b      	add	r3, r1
 8003e7a:	605a      	str	r2, [r3, #4]
                    break;
 8003e7c:	e025      	b.n	8003eca <xTaskGenericNotifyFromISR+0xee>

                case eIncrement:
                    ( pxTCB->ulNotifiedValue[ uxIndexToNotify ] )++;
 8003e7e:	6b3a      	ldr	r2, [r7, #48]	@ 0x30
 8003e80:	68bb      	ldr	r3, [r7, #8]
 8003e82:	3312      	adds	r3, #18
 8003e84:	009b      	lsls	r3, r3, #2
 8003e86:	4413      	add	r3, r2
 8003e88:	685b      	ldr	r3, [r3, #4]
 8003e8a:	1c5a      	adds	r2, r3, #1
 8003e8c:	6b39      	ldr	r1, [r7, #48]	@ 0x30
 8003e8e:	68bb      	ldr	r3, [r7, #8]
 8003e90:	3312      	adds	r3, #18
 8003e92:	009b      	lsls	r3, r3, #2
 8003e94:	440b      	add	r3, r1
 8003e96:	605a      	str	r2, [r3, #4]
                    break;
 8003e98:	e017      	b.n	8003eca <xTaskGenericNotifyFromISR+0xee>

                case eSetValueWithOverwrite:
                    pxTCB->ulNotifiedValue[ uxIndexToNotify ] = ulValue;
 8003e9a:	6b3a      	ldr	r2, [r7, #48]	@ 0x30
 8003e9c:	68bb      	ldr	r3, [r7, #8]
 8003e9e:	3312      	adds	r3, #18
 8003ea0:	009b      	lsls	r3, r3, #2
 8003ea2:	4413      	add	r3, r2
 8003ea4:	687a      	ldr	r2, [r7, #4]
 8003ea6:	605a      	str	r2, [r3, #4]
                    break;
 8003ea8:	e00f      	b.n	8003eca <xTaskGenericNotifyFromISR+0xee>

                case eSetValueWithoutOverwrite:

                    if( ucOriginalNotifyState != taskNOTIFICATION_RECEIVED )
 8003eaa:	f897 302b 	ldrb.w	r3, [r7, #43]	@ 0x2b
 8003eae:	2b02      	cmp	r3, #2
 8003eb0:	d007      	beq.n	8003ec2 <xTaskGenericNotifyFromISR+0xe6>
                    {
                        pxTCB->ulNotifiedValue[ uxIndexToNotify ] = ulValue;
 8003eb2:	6b3a      	ldr	r2, [r7, #48]	@ 0x30
 8003eb4:	68bb      	ldr	r3, [r7, #8]
 8003eb6:	3312      	adds	r3, #18
 8003eb8:	009b      	lsls	r3, r3, #2
 8003eba:	4413      	add	r3, r2
 8003ebc:	687a      	ldr	r2, [r7, #4]
 8003ebe:	605a      	str	r2, [r3, #4]
                    {
                        /* The value could not be written to the task. */
                        xReturn = pdFAIL;
                    }

                    break;
 8003ec0:	e003      	b.n	8003eca <xTaskGenericNotifyFromISR+0xee>
                        xReturn = pdFAIL;
 8003ec2:	2300      	movs	r3, #0
 8003ec4:	637b      	str	r3, [r7, #52]	@ 0x34
                    break;
 8003ec6:	e000      	b.n	8003eca <xTaskGenericNotifyFromISR+0xee>

                    /* Should not get here if all enums are handled.
                     * Artificially force an assert by testing a value the
                     * compiler can't assume is const. */
                    configASSERT( xTickCount == ( TickType_t ) 0 );
                    break;
 8003ec8:	bf00      	nop

            traceTASK_NOTIFY_FROM_ISR( uxIndexToNotify );

            /* If the task is in the blocked state specifically to wait for a
             * notification then unblock it now. */
            if( ucOriginalNotifyState == taskWAITING_NOTIFICATION )
 8003eca:	f897 302b 	ldrb.w	r3, [r7, #43]	@ 0x2b
 8003ece:	2b01      	cmp	r3, #1
 8003ed0:	f040 8091 	bne.w	8003ff6 <xTaskGenericNotifyFromISR+0x21a>
            {
                /* The task should not have been on an event list. */
                configASSERT( listLIST_ITEM_CONTAINER( &( pxTCB->xEventListItem ) ) == NULL );

                if( uxSchedulerSuspended == ( UBaseType_t ) 0U )
 8003ed4:	4b4e      	ldr	r3, [pc, #312]	@ (8004010 <xTaskGenericNotifyFromISR+0x234>)
 8003ed6:	681b      	ldr	r3, [r3, #0]
 8003ed8:	2b00      	cmp	r3, #0
 8003eda:	d160      	bne.n	8003f9e <xTaskGenericNotifyFromISR+0x1c2>
                {
                    listREMOVE_ITEM( &( pxTCB->xStateListItem ) );
 8003edc:	6b3b      	ldr	r3, [r7, #48]	@ 0x30
 8003ede:	695b      	ldr	r3, [r3, #20]
 8003ee0:	623b      	str	r3, [r7, #32]
 8003ee2:	6b3b      	ldr	r3, [r7, #48]	@ 0x30
 8003ee4:	689b      	ldr	r3, [r3, #8]
 8003ee6:	6b3a      	ldr	r2, [r7, #48]	@ 0x30
 8003ee8:	68d2      	ldr	r2, [r2, #12]
 8003eea:	609a      	str	r2, [r3, #8]
 8003eec:	6b3b      	ldr	r3, [r7, #48]	@ 0x30
 8003eee:	68db      	ldr	r3, [r3, #12]
 8003ef0:	6b3a      	ldr	r2, [r7, #48]	@ 0x30
 8003ef2:	6892      	ldr	r2, [r2, #8]
 8003ef4:	605a      	str	r2, [r3, #4]
 8003ef6:	6a3b      	ldr	r3, [r7, #32]
 8003ef8:	685a      	ldr	r2, [r3, #4]
 8003efa:	6b3b      	ldr	r3, [r7, #48]	@ 0x30
 8003efc:	3304      	adds	r3, #4
 8003efe:	429a      	cmp	r2, r3
 8003f00:	d103      	bne.n	8003f0a <xTaskGenericNotifyFromISR+0x12e>
 8003f02:	6b3b      	ldr	r3, [r7, #48]	@ 0x30
 8003f04:	68da      	ldr	r2, [r3, #12]
 8003f06:	6a3b      	ldr	r3, [r7, #32]
 8003f08:	605a      	str	r2, [r3, #4]
 8003f0a:	6b3b      	ldr	r3, [r7, #48]	@ 0x30
 8003f0c:	2200      	movs	r2, #0
 8003f0e:	615a      	str	r2, [r3, #20]
 8003f10:	6a3b      	ldr	r3, [r7, #32]
 8003f12:	681b      	ldr	r3, [r3, #0]
 8003f14:	1e5a      	subs	r2, r3, #1
 8003f16:	6a3b      	ldr	r3, [r7, #32]
 8003f18:	601a      	str	r2, [r3, #0]
                    prvAddTaskToReadyList( pxTCB );
 8003f1a:	6b3b      	ldr	r3, [r7, #48]	@ 0x30
 8003f1c:	6adb      	ldr	r3, [r3, #44]	@ 0x2c
 8003f1e:	2201      	movs	r2, #1
 8003f20:	409a      	lsls	r2, r3
 8003f22:	4b3c      	ldr	r3, [pc, #240]	@ (8004014 <xTaskGenericNotifyFromISR+0x238>)
 8003f24:	681b      	ldr	r3, [r3, #0]
 8003f26:	4313      	orrs	r3, r2
 8003f28:	4a3a      	ldr	r2, [pc, #232]	@ (8004014 <xTaskGenericNotifyFromISR+0x238>)
 8003f2a:	6013      	str	r3, [r2, #0]
 8003f2c:	6b3b      	ldr	r3, [r7, #48]	@ 0x30
 8003f2e:	6ada      	ldr	r2, [r3, #44]	@ 0x2c
 8003f30:	4939      	ldr	r1, [pc, #228]	@ (8004018 <xTaskGenericNotifyFromISR+0x23c>)
 8003f32:	4613      	mov	r3, r2
 8003f34:	009b      	lsls	r3, r3, #2
 8003f36:	4413      	add	r3, r2
 8003f38:	009b      	lsls	r3, r3, #2
 8003f3a:	440b      	add	r3, r1
 8003f3c:	3304      	adds	r3, #4
 8003f3e:	681b      	ldr	r3, [r3, #0]
 8003f40:	61fb      	str	r3, [r7, #28]
 8003f42:	6b3b      	ldr	r3, [r7, #48]	@ 0x30
 8003f44:	69fa      	ldr	r2, [r7, #28]
 8003f46:	609a      	str	r2, [r3, #8]
 8003f48:	69fb      	ldr	r3, [r7, #28]
 8003f4a:	689a      	ldr	r2, [r3, #8]
 8003f4c:	6b3b      	ldr	r3, [r7, #48]	@ 0x30
 8003f4e:	60da      	str	r2, [r3, #12]
 8003f50:	69fb      	ldr	r3, [r7, #28]
 8003f52:	689b      	ldr	r3, [r3, #8]
 8003f54:	6b3a      	ldr	r2, [r7, #48]	@ 0x30
 8003f56:	3204      	adds	r2, #4
 8003f58:	605a      	str	r2, [r3, #4]
 8003f5a:	6b3b      	ldr	r3, [r7, #48]	@ 0x30
 8003f5c:	1d1a      	adds	r2, r3, #4
 8003f5e:	69fb      	ldr	r3, [r7, #28]
 8003f60:	609a      	str	r2, [r3, #8]
 8003f62:	6b3b      	ldr	r3, [r7, #48]	@ 0x30
 8003f64:	6ada      	ldr	r2, [r3, #44]	@ 0x2c
 8003f66:	4613      	mov	r3, r2
 8003f68:	009b      	lsls	r3, r3, #2
 8003f6a:	4413      	add	r3, r2
 8003f6c:	009b      	lsls	r3, r3, #2
 8003f6e:	4a2a      	ldr	r2, [pc, #168]	@ (8004018 <xTaskGenericNotifyFromISR+0x23c>)
 8003f70:	441a      	add	r2, r3
 8003f72:	6b3b      	ldr	r3, [r7, #48]	@ 0x30
 8003f74:	615a      	str	r2, [r3, #20]
 8003f76:	6b3b      	ldr	r3, [r7, #48]	@ 0x30
 8003f78:	6ada      	ldr	r2, [r3, #44]	@ 0x2c
 8003f7a:	4927      	ldr	r1, [pc, #156]	@ (8004018 <xTaskGenericNotifyFromISR+0x23c>)
 8003f7c:	4613      	mov	r3, r2
 8003f7e:	009b      	lsls	r3, r3, #2
 8003f80:	4413      	add	r3, r2
 8003f82:	009b      	lsls	r3, r3, #2
 8003f84:	440b      	add	r3, r1
 8003f86:	681b      	ldr	r3, [r3, #0]
 8003f88:	6b3a      	ldr	r2, [r7, #48]	@ 0x30
 8003f8a:	6ad2      	ldr	r2, [r2, #44]	@ 0x2c
 8003f8c:	1c59      	adds	r1, r3, #1
 8003f8e:	4822      	ldr	r0, [pc, #136]	@ (8004018 <xTaskGenericNotifyFromISR+0x23c>)
 8003f90:	4613      	mov	r3, r2
 8003f92:	009b      	lsls	r3, r3, #2
 8003f94:	4413      	add	r3, r2
 8003f96:	009b      	lsls	r3, r3, #2
 8003f98:	4403      	add	r3, r0
 8003f9a:	6019      	str	r1, [r3, #0]
 8003f9c:	e01b      	b.n	8003fd6 <xTaskGenericNotifyFromISR+0x1fa>
                }
                else
                {
                    /* The delayed and ready lists cannot be accessed, so hold
                     * this task pending until the scheduler is resumed. */
                    listINSERT_END( &( xPendingReadyList ), &( pxTCB->xEventListItem ) );
 8003f9e:	4b1f      	ldr	r3, [pc, #124]	@ (800401c <xTaskGenericNotifyFromISR+0x240>)
 8003fa0:	685b      	ldr	r3, [r3, #4]
 8003fa2:	627b      	str	r3, [r7, #36]	@ 0x24
 8003fa4:	6b3b      	ldr	r3, [r7, #48]	@ 0x30
 8003fa6:	6a7a      	ldr	r2, [r7, #36]	@ 0x24
 8003fa8:	61da      	str	r2, [r3, #28]
 8003faa:	6a7b      	ldr	r3, [r7, #36]	@ 0x24
 8003fac:	689a      	ldr	r2, [r3, #8]
 8003fae:	6b3b      	ldr	r3, [r7, #48]	@ 0x30
 8003fb0:	621a      	str	r2, [r3, #32]
 8003fb2:	6a7b      	ldr	r3, [r7, #36]	@ 0x24
 8003fb4:	689b      	ldr	r3, [r3, #8]
 8003fb6:	6b3a      	ldr	r2, [r7, #48]	@ 0x30
 8003fb8:	3218      	adds	r2, #24
 8003fba:	605a      	str	r2, [r3, #4]
 8003fbc:	6b3b      	ldr	r3, [r7, #48]	@ 0x30
 8003fbe:	f103 0218 	add.w	r2, r3, #24
 8003fc2:	6a7b      	ldr	r3, [r7, #36]	@ 0x24
 8003fc4:	609a      	str	r2, [r3, #8]
 8003fc6:	6b3b      	ldr	r3, [r7, #48]	@ 0x30
 8003fc8:	4a14      	ldr	r2, [pc, #80]	@ (800401c <xTaskGenericNotifyFromISR+0x240>)
 8003fca:	629a      	str	r2, [r3, #40]	@ 0x28
 8003fcc:	4b13      	ldr	r3, [pc, #76]	@ (800401c <xTaskGenericNotifyFromISR+0x240>)
 8003fce:	681b      	ldr	r3, [r3, #0]
 8003fd0:	3301      	adds	r3, #1
 8003fd2:	4a12      	ldr	r2, [pc, #72]	@ (800401c <xTaskGenericNotifyFromISR+0x240>)
 8003fd4:	6013      	str	r3, [r2, #0]
                }

                #if ( configNUMBER_OF_CORES == 1 )
                {
                    if( pxTCB->uxPriority > pxCurrentTCB->uxPriority )
 8003fd6:	6b3b      	ldr	r3, [r7, #48]	@ 0x30
 8003fd8:	6ada      	ldr	r2, [r3, #44]	@ 0x2c
 8003fda:	4b11      	ldr	r3, [pc, #68]	@ (8004020 <xTaskGenericNotifyFromISR+0x244>)
 8003fdc:	681b      	ldr	r3, [r3, #0]
 8003fde:	6adb      	ldr	r3, [r3, #44]	@ 0x2c
 8003fe0:	429a      	cmp	r2, r3
 8003fe2:	d908      	bls.n	8003ff6 <xTaskGenericNotifyFromISR+0x21a>
                    {
                        /* The notified task has a priority above the currently
                         * executing task so a yield is required. */
                        if( pxHigherPriorityTaskWoken != NULL )
 8003fe4:	6c7b      	ldr	r3, [r7, #68]	@ 0x44
 8003fe6:	2b00      	cmp	r3, #0
 8003fe8:	d002      	beq.n	8003ff0 <xTaskGenericNotifyFromISR+0x214>
                        {
                            *pxHigherPriorityTaskWoken = pdTRUE;
 8003fea:	6c7b      	ldr	r3, [r7, #68]	@ 0x44
 8003fec:	2201      	movs	r2, #1
 8003fee:	601a      	str	r2, [r3, #0]
                        }

                        /* Mark that a yield is pending in case the user is not
                         * using the "xHigherPriorityTaskWoken" parameter to an ISR
                         * safe FreeRTOS function. */
                        xYieldPendings[ 0 ] = pdTRUE;
 8003ff0:	4b0c      	ldr	r3, [pc, #48]	@ (8004024 <xTaskGenericNotifyFromISR+0x248>)
 8003ff2:	2201      	movs	r2, #1
 8003ff4:	601a      	str	r2, [r3, #0]
 8003ff6:	6afb      	ldr	r3, [r7, #44]	@ 0x2c
 8003ff8:	613b      	str	r3, [r7, #16]
    __asm volatile
 8003ffa:	693b      	ldr	r3, [r7, #16]
 8003ffc:	f383 8811 	msr	BASEPRI, r3
}
 8004000:	bf00      	nop
        }
        taskEXIT_CRITICAL_FROM_ISR( uxSavedInterruptStatus );

        traceRETURN_xTaskGenericNotifyFromISR( xReturn );

        return xReturn;
 8004002:	6b7b      	ldr	r3, [r7, #52]	@ 0x34
    }
 8004004:	4618      	mov	r0, r3
 8004006:	373c      	adds	r7, #60	@ 0x3c
 8004008:	46bd      	mov	sp, r7
 800400a:	f85d 7b04 	ldr.w	r7, [sp], #4
 800400e:	4770      	bx	lr
 8004010:	20000108 	.word	0x20000108
 8004014:	200000e8 	.word	0x200000e8
 8004018:	2000000c 	.word	0x2000000c
 800401c:	200000a0 	.word	0x200000a0
 8004020:	20000008 	.word	0x20000008
 8004024:	200000f4 	.word	0x200000f4

08004028 <vTaskGenericNotifyGiveFromISR>:
#if ( configUSE_TASK_NOTIFICATIONS == 1 )

    void vTaskGenericNotifyGiveFromISR( TaskHandle_t xTaskToNotify,
                                        UBaseType_t uxIndexToNotify,
                                        BaseType_t * pxHigherPriorityTaskWoken )
    {
 8004028:	b480      	push	{r7}
 800402a:	b08f      	sub	sp, #60	@ 0x3c
 800402c:	af00      	add	r7, sp, #0
 800402e:	60f8      	str	r0, [r7, #12]
 8004030:	60b9      	str	r1, [r7, #8]
 8004032:	607a      	str	r2, [r7, #4]
         * simple as possible.  More information (albeit Cortex-M specific) is
         * provided on the following link:
         * https://www.FreeRTOS.org/RTOS-Cortex-M3-M4.html */
        portASSERT_IF_INTERRUPT_PRIORITY_INVALID();

        pxTCB = xTaskToNotify;
 8004034:	68fb      	ldr	r3, [r7, #12]
 8004036:	637b      	str	r3, [r7, #52]	@ 0x34
    __asm volatile
 8004038:	f3ef 8211 	mrs	r2, BASEPRI
 800403c:	f04f 0350 	mov.w	r3, #80	@ 0x50
 8004040:	f383 8811 	msr	BASEPRI, r3
 8004044:	f3bf 8f6f 	isb	sy
 8004048:	f3bf 8f4f 	dsb	sy
 800404c:	61fa      	str	r2, [r7, #28]
 800404e:	61bb      	str	r3, [r7, #24]
    return ulOriginalBASEPRI;
 8004050:	69fb      	ldr	r3, [r7, #28]

        /* MISRA Ref 4.7.1 [Return value shall be checked] */
        /* More details at: https://github.com/FreeRTOS/FreeRTOS-Kernel/blob/main/MISRA.md#dir-47 */
        /* coverity[misra_c_2012_directive_4_7_violation] */
        uxSavedInterruptStatus = ( UBaseType_t ) taskENTER_CRITICAL_FROM_ISR();
 8004052:	633b      	str	r3, [r7, #48]	@ 0x30
        {
            ucOriginalNotifyState = pxTCB->ucNotifyState[ uxIndexToNotify ];
 8004054:	6b7a      	ldr	r2, [r7, #52]	@ 0x34
 8004056:	68bb      	ldr	r3, [r7, #8]
 8004058:	4413      	add	r3, r2
 800405a:	3350      	adds	r3, #80	@ 0x50
 800405c:	781b      	ldrb	r3, [r3, #0]
 800405e:	f887 302f 	strb.w	r3, [r7, #47]	@ 0x2f
            pxTCB->ucNotifyState[ uxIndexToNotify ] = taskNOTIFICATION_RECEIVED;
 8004062:	6b7a      	ldr	r2, [r7, #52]	@ 0x34
 8004064:	68bb      	ldr	r3, [r7, #8]
 8004066:	4413      	add	r3, r2
 8004068:	3350      	adds	r3, #80	@ 0x50
 800406a:	2202      	movs	r2, #2
 800406c:	701a      	strb	r2, [r3, #0]

            /* 'Giving' is equivalent to incrementing a count in a counting
             * semaphore. */
            ( pxTCB->ulNotifiedValue[ uxIndexToNotify ] )++;
 800406e:	6b7a      	ldr	r2, [r7, #52]	@ 0x34
 8004070:	68bb      	ldr	r3, [r7, #8]
 8004072:	3312      	adds	r3, #18
 8004074:	009b      	lsls	r3, r3, #2
 8004076:	4413      	add	r3, r2
 8004078:	685b      	ldr	r3, [r3, #4]
 800407a:	1c5a      	adds	r2, r3, #1
 800407c:	6b79      	ldr	r1, [r7, #52]	@ 0x34
 800407e:	68bb      	ldr	r3, [r7, #8]
 8004080:	3312      	adds	r3, #18
 8004082:	009b      	lsls	r3, r3, #2
 8004084:	440b      	add	r3, r1
 8004086:	605a      	str	r2, [r3, #4]

            traceTASK_NOTIFY_GIVE_FROM_ISR( uxIndexToNotify );

            /* If the task is in the blocked state specifically to wait for a
             * notification then unblock it now. */
            if( ucOriginalNotifyState == taskWAITING_NOTIFICATION )
 8004088:	f897 302f 	ldrb.w	r3, [r7, #47]	@ 0x2f
 800408c:	2b01      	cmp	r3, #1
 800408e:	f040 8091 	bne.w	80041b4 <vTaskGenericNotifyGiveFromISR+0x18c>
            {
                /* The task should not have been on an event list. */
                configASSERT( listLIST_ITEM_CONTAINER( &( pxTCB->xEventListItem ) ) == NULL );

                if( uxSchedulerSuspended == ( UBaseType_t ) 0U )
 8004092:	4b4e      	ldr	r3, [pc, #312]	@ (80041cc <vTaskGenericNotifyGiveFromISR+0x1a4>)
 8004094:	681b      	ldr	r3, [r3, #0]
 8004096:	2b00      	cmp	r3, #0
 8004098:	d160      	bne.n	800415c <vTaskGenericNotifyGiveFromISR+0x134>
                {
                    listREMOVE_ITEM( &( pxTCB->xStateListItem ) );
 800409a:	6b7b      	ldr	r3, [r7, #52]	@ 0x34
 800409c:	695b      	ldr	r3, [r3, #20]
 800409e:	627b      	str	r3, [r7, #36]	@ 0x24
 80040a0:	6b7b      	ldr	r3, [r7, #52]	@ 0x34
 80040a2:	689b      	ldr	r3, [r3, #8]
 80040a4:	6b7a      	ldr	r2, [r7, #52]	@ 0x34
 80040a6:	68d2      	ldr	r2, [r2, #12]
 80040a8:	609a      	str	r2, [r3, #8]
 80040aa:	6b7b      	ldr	r3, [r7, #52]	@ 0x34
 80040ac:	68db      	ldr	r3, [r3, #12]
 80040ae:	6b7a      	ldr	r2, [r7, #52]	@ 0x34
 80040b0:	6892      	ldr	r2, [r2, #8]
 80040b2:	605a      	str	r2, [r3, #4]
 80040b4:	6a7b      	ldr	r3, [r7, #36]	@ 0x24
 80040b6:	685a      	ldr	r2, [r3, #4]
 80040b8:	6b7b      	ldr	r3, [r7, #52]	@ 0x34
 80040ba:	3304      	adds	r3, #4
 80040bc:	429a      	cmp	r2, r3
 80040be:	d103      	bne.n	80040c8 <vTaskGenericNotifyGiveFromISR+0xa0>
 80040c0:	6b7b      	ldr	r3, [r7, #52]	@ 0x34
 80040c2:	68da      	ldr	r2, [r3, #12]
 80040c4:	6a7b      	ldr	r3, [r7, #36]	@ 0x24
 80040c6:	605a      	str	r2, [r3, #4]
 80040c8:	6b7b      	ldr	r3, [r7, #52]	@ 0x34
 80040ca:	2200      	movs	r2, #0
 80040cc:	615a      	str	r2, [r3, #20]
 80040ce:	6a7b      	ldr	r3, [r7, #36]	@ 0x24
 80040d0:	681b      	ldr	r3, [r3, #0]
 80040d2:	1e5a      	subs	r2, r3, #1
 80040d4:	6a7b      	ldr	r3, [r7, #36]	@ 0x24
 80040d6:	601a      	str	r2, [r3, #0]
                    prvAddTaskToReadyList( pxTCB );
 80040d8:	6b7b      	ldr	r3, [r7, #52]	@ 0x34
 80040da:	6adb      	ldr	r3, [r3, #44]	@ 0x2c
 80040dc:	2201      	movs	r2, #1
 80040de:	409a      	lsls	r2, r3
 80040e0:	4b3b      	ldr	r3, [pc, #236]	@ (80041d0 <vTaskGenericNotifyGiveFromISR+0x1a8>)
 80040e2:	681b      	ldr	r3, [r3, #0]
 80040e4:	4313      	orrs	r3, r2
 80040e6:	4a3a      	ldr	r2, [pc, #232]	@ (80041d0 <vTaskGenericNotifyGiveFromISR+0x1a8>)
 80040e8:	6013      	str	r3, [r2, #0]
 80040ea:	6b7b      	ldr	r3, [r7, #52]	@ 0x34
 80040ec:	6ada      	ldr	r2, [r3, #44]	@ 0x2c
 80040ee:	4939      	ldr	r1, [pc, #228]	@ (80041d4 <vTaskGenericNotifyGiveFromISR+0x1ac>)
 80040f0:	4613      	mov	r3, r2
 80040f2:	009b      	lsls	r3, r3, #2
 80040f4:	4413      	add	r3, r2
 80040f6:	009b      	lsls	r3, r3, #2
 80040f8:	440b      	add	r3, r1
 80040fa:	3304      	adds	r3, #4
 80040fc:	681b      	ldr	r3, [r3, #0]
 80040fe:	623b      	str	r3, [r7, #32]
 8004100:	6b7b      	ldr	r3, [r7, #52]	@ 0x34
 8004102:	6a3a      	ldr	r2, [r7, #32]
 8004104:	609a      	str	r2, [r3, #8]
 8004106:	6a3b      	ldr	r3, [r7, #32]
 8004108:	689a      	ldr	r2, [r3, #8]
 800410a:	6b7b      	ldr	r3, [r7, #52]	@ 0x34
 800410c:	60da      	str	r2, [r3, #12]
 800410e:	6a3b      	ldr	r3, [r7, #32]
 8004110:	689b      	ldr	r3, [r3, #8]
 8004112:	6b7a      	ldr	r2, [r7, #52]	@ 0x34
 8004114:	3204      	adds	r2, #4
 8004116:	605a      	str	r2, [r3, #4]
 8004118:	6b7b      	ldr	r3, [r7, #52]	@ 0x34
 800411a:	1d1a      	adds	r2, r3, #4
 800411c:	6a3b      	ldr	r3, [r7, #32]
 800411e:	609a      	str	r2, [r3, #8]
 8004120:	6b7b      	ldr	r3, [r7, #52]	@ 0x34
 8004122:	6ada      	ldr	r2, [r3, #44]	@ 0x2c
 8004124:	4613      	mov	r3, r2
 8004126:	009b      	lsls	r3, r3, #2
 8004128:	4413      	add	r3, r2
 800412a:	009b      	lsls	r3, r3, #2
 800412c:	4a29      	ldr	r2, [pc, #164]	@ (80041d4 <vTaskGenericNotifyGiveFromISR+0x1ac>)
 800412e:	441a      	add	r2, r3
 8004130:	6b7b      	ldr	r3, [r7, #52]	@ 0x34
 8004132:	615a      	str	r2, [r3, #20]
 8004134:	6b7b      	ldr	r3, [r7, #52]	@ 0x34
 8004136:	6ada      	ldr	r2, [r3, #44]	@ 0x2c
 8004138:	4926      	ldr	r1, [pc, #152]	@ (80041d4 <vTaskGenericNotifyGiveFromISR+0x1ac>)
 800413a:	4613      	mov	r3, r2
 800413c:	009b      	lsls	r3, r3, #2
 800413e:	4413      	add	r3, r2
 8004140:	009b      	lsls	r3, r3, #2
 8004142:	440b      	add	r3, r1
 8004144:	681b      	ldr	r3, [r3, #0]
 8004146:	6b7a      	ldr	r2, [r7, #52]	@ 0x34
 8004148:	6ad2      	ldr	r2, [r2, #44]	@ 0x2c
 800414a:	1c59      	adds	r1, r3, #1
 800414c:	4821      	ldr	r0, [pc, #132]	@ (80041d4 <vTaskGenericNotifyGiveFromISR+0x1ac>)
 800414e:	4613      	mov	r3, r2
 8004150:	009b      	lsls	r3, r3, #2
 8004152:	4413      	add	r3, r2
 8004154:	009b      	lsls	r3, r3, #2
 8004156:	4403      	add	r3, r0
 8004158:	6019      	str	r1, [r3, #0]
 800415a:	e01b      	b.n	8004194 <vTaskGenericNotifyGiveFromISR+0x16c>
                }
                else
                {
                    /* The delayed and ready lists cannot be accessed, so hold
                     * this task pending until the scheduler is resumed. */
                    listINSERT_END( &( xPendingReadyList ), &( pxTCB->xEventListItem ) );
 800415c:	4b1e      	ldr	r3, [pc, #120]	@ (80041d8 <vTaskGenericNotifyGiveFromISR+0x1b0>)
 800415e:	685b      	ldr	r3, [r3, #4]
 8004160:	62bb      	str	r3, [r7, #40]	@ 0x28
 8004162:	6b7b      	ldr	r3, [r7, #52]	@ 0x34
 8004164:	6aba      	ldr	r2, [r7, #40]	@ 0x28
 8004166:	61da      	str	r2, [r3, #28]
 8004168:	6abb      	ldr	r3, [r7, #40]	@ 0x28
 800416a:	689a      	ldr	r2, [r3, #8]
 800416c:	6b7b      	ldr	r3, [r7, #52]	@ 0x34
 800416e:	621a      	str	r2, [r3, #32]
 8004170:	6abb      	ldr	r3, [r7, #40]	@ 0x28
 8004172:	689b      	ldr	r3, [r3, #8]
 8004174:	6b7a      	ldr	r2, [r7, #52]	@ 0x34
 8004176:	3218      	adds	r2, #24
 8004178:	605a      	str	r2, [r3, #4]
 800417a:	6b7b      	ldr	r3, [r7, #52]	@ 0x34
 800417c:	f103 0218 	add.w	r2, r3, #24
 8004180:	6abb      	ldr	r3, [r7, #40]	@ 0x28
 8004182:	609a      	str	r2, [r3, #8]
 8004184:	6b7b      	ldr	r3, [r7, #52]	@ 0x34
 8004186:	4a14      	ldr	r2, [pc, #80]	@ (80041d8 <vTaskGenericNotifyGiveFromISR+0x1b0>)
 8004188:	629a      	str	r2, [r3, #40]	@ 0x28
 800418a:	4b13      	ldr	r3, [pc, #76]	@ (80041d8 <vTaskGenericNotifyGiveFromISR+0x1b0>)
 800418c:	681b      	ldr	r3, [r3, #0]
 800418e:	3301      	adds	r3, #1
 8004190:	4a11      	ldr	r2, [pc, #68]	@ (80041d8 <vTaskGenericNotifyGiveFromISR+0x1b0>)
 8004192:	6013      	str	r3, [r2, #0]
                }

                #if ( configNUMBER_OF_CORES == 1 )
                {
                    if( pxTCB->uxPriority > pxCurrentTCB->uxPriority )
 8004194:	6b7b      	ldr	r3, [r7, #52]	@ 0x34
 8004196:	6ada      	ldr	r2, [r3, #44]	@ 0x2c
 8004198:	4b10      	ldr	r3, [pc, #64]	@ (80041dc <vTaskGenericNotifyGiveFromISR+0x1b4>)
 800419a:	681b      	ldr	r3, [r3, #0]
 800419c:	6adb      	ldr	r3, [r3, #44]	@ 0x2c
 800419e:	429a      	cmp	r2, r3
 80041a0:	d908      	bls.n	80041b4 <vTaskGenericNotifyGiveFromISR+0x18c>
                    {
                        /* The notified task has a priority above the currently
                         * executing task so a yield is required. */
                        if( pxHigherPriorityTaskWoken != NULL )
 80041a2:	687b      	ldr	r3, [r7, #4]
 80041a4:	2b00      	cmp	r3, #0
 80041a6:	d002      	beq.n	80041ae <vTaskGenericNotifyGiveFromISR+0x186>
                        {
                            *pxHigherPriorityTaskWoken = pdTRUE;
 80041a8:	687b      	ldr	r3, [r7, #4]
 80041aa:	2201      	movs	r2, #1
 80041ac:	601a      	str	r2, [r3, #0]
                        }

                        /* Mark that a yield is pending in case the user is not
                         * using the "xHigherPriorityTaskWoken" parameter in an ISR
                         * safe FreeRTOS function. */
                        xYieldPendings[ 0 ] = pdTRUE;
 80041ae:	4b0c      	ldr	r3, [pc, #48]	@ (80041e0 <vTaskGenericNotifyGiveFromISR+0x1b8>)
 80041b0:	2201      	movs	r2, #1
 80041b2:	601a      	str	r2, [r3, #0]
 80041b4:	6b3b      	ldr	r3, [r7, #48]	@ 0x30
 80041b6:	617b      	str	r3, [r7, #20]
    __asm volatile
 80041b8:	697b      	ldr	r3, [r7, #20]
 80041ba:	f383 8811 	msr	BASEPRI, r3
}
 80041be:	bf00      	nop
            }
        }
        taskEXIT_CRITICAL_FROM_ISR( uxSavedInterruptStatus );

        traceRETURN_vTaskGenericNotifyGiveFromISR();
    }
 80041c0:	bf00      	nop
 80041c2:	373c      	adds	r7, #60	@ 0x3c
 80041c4:	46bd      	mov	sp, r7
 80041c6:	f85d 7b04 	ldr.w	r7, [sp], #4
 80041ca:	4770      	bx	lr
 80041cc:	20000108 	.word	0x20000108
 80041d0:	200000e8 	.word	0x200000e8
 80041d4:	2000000c 	.word	0x2000000c
 80041d8:	200000a0 	.word	0x200000a0
 80041dc:	20000008 	.word	0x20000008
 80041e0:	200000f4 	.word	0x200000f4

080041e4 <xTaskGenericNotifyStateClear>:

#if ( configUSE_TASK_NOTIFICATIONS == 1 )

    BaseType_t xTaskGenericNotifyStateClear( TaskHandle_t xTask,
                                             UBaseType_t uxIndexToClear )
    {
 80041e4:	b580      	push	{r7, lr}
 80041e6:	b084      	sub	sp, #16
 80041e8:	af00      	add	r7, sp, #0
 80041ea:	6078      	str	r0, [r7, #4]
 80041ec:	6039      	str	r1, [r7, #0]

        configASSERT( uxIndexToClear < configTASK_NOTIFICATION_ARRAY_ENTRIES );

        /* If null is passed in here then it is the calling task that is having
         * its notification state cleared. */
        pxTCB = prvGetTCBFromHandle( xTask );
 80041ee:	687b      	ldr	r3, [r7, #4]
 80041f0:	2b00      	cmp	r3, #0
 80041f2:	d102      	bne.n	80041fa <xTaskGenericNotifyStateClear+0x16>
 80041f4:	4b10      	ldr	r3, [pc, #64]	@ (8004238 <xTaskGenericNotifyStateClear+0x54>)
 80041f6:	681b      	ldr	r3, [r3, #0]
 80041f8:	e000      	b.n	80041fc <xTaskGenericNotifyStateClear+0x18>
 80041fa:	687b      	ldr	r3, [r7, #4]
 80041fc:	60bb      	str	r3, [r7, #8]
        configASSERT( pxTCB != NULL );

        taskENTER_CRITICAL();
 80041fe:	f000 fdb6 	bl	8004d6e <vPortEnterCritical>
        {
            if( pxTCB->ucNotifyState[ uxIndexToClear ] == taskNOTIFICATION_RECEIVED )
 8004202:	68ba      	ldr	r2, [r7, #8]
 8004204:	683b      	ldr	r3, [r7, #0]
 8004206:	4413      	add	r3, r2
 8004208:	3350      	adds	r3, #80	@ 0x50
 800420a:	781b      	ldrb	r3, [r3, #0]
 800420c:	b2db      	uxtb	r3, r3
 800420e:	2b02      	cmp	r3, #2
 8004210:	d108      	bne.n	8004224 <xTaskGenericNotifyStateClear+0x40>
            {
                pxTCB->ucNotifyState[ uxIndexToClear ] = taskNOT_WAITING_NOTIFICATION;
 8004212:	68ba      	ldr	r2, [r7, #8]
 8004214:	683b      	ldr	r3, [r7, #0]
 8004216:	4413      	add	r3, r2
 8004218:	3350      	adds	r3, #80	@ 0x50
 800421a:	2200      	movs	r2, #0
 800421c:	701a      	strb	r2, [r3, #0]
                xReturn = pdPASS;
 800421e:	2301      	movs	r3, #1
 8004220:	60fb      	str	r3, [r7, #12]
 8004222:	e001      	b.n	8004228 <xTaskGenericNotifyStateClear+0x44>
            }
            else
            {
                xReturn = pdFAIL;
 8004224:	2300      	movs	r3, #0
 8004226:	60fb      	str	r3, [r7, #12]
            }
        }
        taskEXIT_CRITICAL();
 8004228:	f000 fdbc 	bl	8004da4 <vPortExitCritical>

        traceRETURN_xTaskGenericNotifyStateClear( xReturn );

        return xReturn;
 800422c:	68fb      	ldr	r3, [r7, #12]
    }
 800422e:	4618      	mov	r0, r3
 8004230:	3710      	adds	r7, #16
 8004232:	46bd      	mov	sp, r7
 8004234:	bd80      	pop	{r7, pc}
 8004236:	bf00      	nop
 8004238:	20000008 	.word	0x20000008

0800423c <ulTaskGenericNotifyValueClear>:
#if ( configUSE_TASK_NOTIFICATIONS == 1 )

    uint32_t ulTaskGenericNotifyValueClear( TaskHandle_t xTask,
                                            UBaseType_t uxIndexToClear,
                                            uint32_t ulBitsToClear )
    {
 800423c:	b580      	push	{r7, lr}
 800423e:	b086      	sub	sp, #24
 8004240:	af00      	add	r7, sp, #0
 8004242:	60f8      	str	r0, [r7, #12]
 8004244:	60b9      	str	r1, [r7, #8]
 8004246:	607a      	str	r2, [r7, #4]

        configASSERT( uxIndexToClear < configTASK_NOTIFICATION_ARRAY_ENTRIES );

        /* If null is passed in here then it is the calling task that is having
         * its notification state cleared. */
        pxTCB = prvGetTCBFromHandle( xTask );
 8004248:	68fb      	ldr	r3, [r7, #12]
 800424a:	2b00      	cmp	r3, #0
 800424c:	d102      	bne.n	8004254 <ulTaskGenericNotifyValueClear+0x18>
 800424e:	4b12      	ldr	r3, [pc, #72]	@ (8004298 <ulTaskGenericNotifyValueClear+0x5c>)
 8004250:	681b      	ldr	r3, [r3, #0]
 8004252:	e000      	b.n	8004256 <ulTaskGenericNotifyValueClear+0x1a>
 8004254:	68fb      	ldr	r3, [r7, #12]
 8004256:	617b      	str	r3, [r7, #20]
        configASSERT( pxTCB != NULL );

        taskENTER_CRITICAL();
 8004258:	f000 fd89 	bl	8004d6e <vPortEnterCritical>
        {
            /* Return the notification as it was before the bits were cleared,
             * then clear the bit mask. */
            ulReturn = pxTCB->ulNotifiedValue[ uxIndexToClear ];
 800425c:	697a      	ldr	r2, [r7, #20]
 800425e:	68bb      	ldr	r3, [r7, #8]
 8004260:	3312      	adds	r3, #18
 8004262:	009b      	lsls	r3, r3, #2
 8004264:	4413      	add	r3, r2
 8004266:	685b      	ldr	r3, [r3, #4]
 8004268:	613b      	str	r3, [r7, #16]
            pxTCB->ulNotifiedValue[ uxIndexToClear ] &= ~ulBitsToClear;
 800426a:	697a      	ldr	r2, [r7, #20]
 800426c:	68bb      	ldr	r3, [r7, #8]
 800426e:	3312      	adds	r3, #18
 8004270:	009b      	lsls	r3, r3, #2
 8004272:	4413      	add	r3, r2
 8004274:	685a      	ldr	r2, [r3, #4]
 8004276:	687b      	ldr	r3, [r7, #4]
 8004278:	43db      	mvns	r3, r3
 800427a:	401a      	ands	r2, r3
 800427c:	6979      	ldr	r1, [r7, #20]
 800427e:	68bb      	ldr	r3, [r7, #8]
 8004280:	3312      	adds	r3, #18
 8004282:	009b      	lsls	r3, r3, #2
 8004284:	440b      	add	r3, r1
 8004286:	605a      	str	r2, [r3, #4]
        }
        taskEXIT_CRITICAL();
 8004288:	f000 fd8c 	bl	8004da4 <vPortExitCritical>

        traceRETURN_ulTaskGenericNotifyValueClear( ulReturn );

        return ulReturn;
 800428c:	693b      	ldr	r3, [r7, #16]
    }
 800428e:	4618      	mov	r0, r3
 8004290:	3718      	adds	r7, #24
 8004292:	46bd      	mov	sp, r7
 8004294:	bd80      	pop	{r7, pc}
 8004296:	bf00      	nop
 8004298:	20000008 	.word	0x20000008

0800429c <prvAddCurrentTaskToDelayedList>:
#endif /* if ( ( configGENERATE_RUN_TIME_STATS == 1 ) && ( INCLUDE_xTaskGetIdleTaskHandle == 1 ) ) */
/*-----------------------------------------------------------*/

static void prvAddCurrentTaskToDelayedList( TickType_t xTicksToWait,
                                            const BaseType_t xCanBlockIndefinitely )
{
 800429c:	b580      	push	{r7, lr}
 800429e:	b088      	sub	sp, #32
 80042a0:	af00      	add	r7, sp, #0
 80042a2:	6078      	str	r0, [r7, #4]
 80042a4:	6039      	str	r1, [r7, #0]
    TickType_t xTimeToWake;
    const TickType_t xConstTickCount = xTickCount;
 80042a6:	4b37      	ldr	r3, [pc, #220]	@ (8004384 <prvAddCurrentTaskToDelayedList+0xe8>)
 80042a8:	681b      	ldr	r3, [r3, #0]
 80042aa:	61fb      	str	r3, [r7, #28]
    List_t * const pxDelayedList = pxDelayedTaskList;
 80042ac:	4b36      	ldr	r3, [pc, #216]	@ (8004388 <prvAddCurrentTaskToDelayedList+0xec>)
 80042ae:	681b      	ldr	r3, [r3, #0]
 80042b0:	61bb      	str	r3, [r7, #24]
    List_t * const pxOverflowDelayedList = pxOverflowDelayedTaskList;
 80042b2:	4b36      	ldr	r3, [pc, #216]	@ (800438c <prvAddCurrentTaskToDelayedList+0xf0>)
 80042b4:	681b      	ldr	r3, [r3, #0]
 80042b6:	617b      	str	r3, [r7, #20]
    }
    #endif

    /* Remove the task from the ready list before adding it to the blocked list
     * as the same list item is used for both lists. */
    if( uxListRemove( &( pxCurrentTCB->xStateListItem ) ) == ( UBaseType_t ) 0 )
 80042b8:	4b35      	ldr	r3, [pc, #212]	@ (8004390 <prvAddCurrentTaskToDelayedList+0xf4>)
 80042ba:	681b      	ldr	r3, [r3, #0]
 80042bc:	3304      	adds	r3, #4
 80042be:	4618      	mov	r0, r3
 80042c0:	f7fc fa24 	bl	800070c <uxListRemove>
 80042c4:	4603      	mov	r3, r0
 80042c6:	2b00      	cmp	r3, #0
 80042c8:	d10b      	bne.n	80042e2 <prvAddCurrentTaskToDelayedList+0x46>
    {
        /* The current task must be in a ready list, so there is no need to
         * check, and the port reset macro can be called directly. */
        portRESET_READY_PRIORITY( pxCurrentTCB->uxPriority, uxTopReadyPriority );
 80042ca:	4b31      	ldr	r3, [pc, #196]	@ (8004390 <prvAddCurrentTaskToDelayedList+0xf4>)
 80042cc:	681b      	ldr	r3, [r3, #0]
 80042ce:	6adb      	ldr	r3, [r3, #44]	@ 0x2c
 80042d0:	2201      	movs	r2, #1
 80042d2:	fa02 f303 	lsl.w	r3, r2, r3
 80042d6:	43da      	mvns	r2, r3
 80042d8:	4b2e      	ldr	r3, [pc, #184]	@ (8004394 <prvAddCurrentTaskToDelayedList+0xf8>)
 80042da:	681b      	ldr	r3, [r3, #0]
 80042dc:	4013      	ands	r3, r2
 80042de:	4a2d      	ldr	r2, [pc, #180]	@ (8004394 <prvAddCurrentTaskToDelayedList+0xf8>)
 80042e0:	6013      	str	r3, [r2, #0]
        mtCOVERAGE_TEST_MARKER();
    }

    #if ( INCLUDE_vTaskSuspend == 1 )
    {
        if( ( xTicksToWait == portMAX_DELAY ) && ( xCanBlockIndefinitely != pdFALSE ) )
 80042e2:	687b      	ldr	r3, [r7, #4]
 80042e4:	f1b3 3fff 	cmp.w	r3, #4294967295
 80042e8:	d124      	bne.n	8004334 <prvAddCurrentTaskToDelayedList+0x98>
 80042ea:	683b      	ldr	r3, [r7, #0]
 80042ec:	2b00      	cmp	r3, #0
 80042ee:	d021      	beq.n	8004334 <prvAddCurrentTaskToDelayedList+0x98>
        {
            /* Add the task to the suspended task list instead of a delayed task
             * list to ensure it is not woken by a timing event.  It will block
             * indefinitely. */
            listINSERT_END( &xSuspendedTaskList, &( pxCurrentTCB->xStateListItem ) );
 80042f0:	4b29      	ldr	r3, [pc, #164]	@ (8004398 <prvAddCurrentTaskToDelayedList+0xfc>)
 80042f2:	685b      	ldr	r3, [r3, #4]
 80042f4:	613b      	str	r3, [r7, #16]
 80042f6:	4b26      	ldr	r3, [pc, #152]	@ (8004390 <prvAddCurrentTaskToDelayedList+0xf4>)
 80042f8:	681b      	ldr	r3, [r3, #0]
 80042fa:	693a      	ldr	r2, [r7, #16]
 80042fc:	609a      	str	r2, [r3, #8]
 80042fe:	4b24      	ldr	r3, [pc, #144]	@ (8004390 <prvAddCurrentTaskToDelayedList+0xf4>)
 8004300:	681b      	ldr	r3, [r3, #0]
 8004302:	693a      	ldr	r2, [r7, #16]
 8004304:	6892      	ldr	r2, [r2, #8]
 8004306:	60da      	str	r2, [r3, #12]
 8004308:	4b21      	ldr	r3, [pc, #132]	@ (8004390 <prvAddCurrentTaskToDelayedList+0xf4>)
 800430a:	681a      	ldr	r2, [r3, #0]
 800430c:	693b      	ldr	r3, [r7, #16]
 800430e:	689b      	ldr	r3, [r3, #8]
 8004310:	3204      	adds	r2, #4
 8004312:	605a      	str	r2, [r3, #4]
 8004314:	4b1e      	ldr	r3, [pc, #120]	@ (8004390 <prvAddCurrentTaskToDelayedList+0xf4>)
 8004316:	681b      	ldr	r3, [r3, #0]
 8004318:	1d1a      	adds	r2, r3, #4
 800431a:	693b      	ldr	r3, [r7, #16]
 800431c:	609a      	str	r2, [r3, #8]
 800431e:	4b1c      	ldr	r3, [pc, #112]	@ (8004390 <prvAddCurrentTaskToDelayedList+0xf4>)
 8004320:	681b      	ldr	r3, [r3, #0]
 8004322:	4a1d      	ldr	r2, [pc, #116]	@ (8004398 <prvAddCurrentTaskToDelayedList+0xfc>)
 8004324:	615a      	str	r2, [r3, #20]
 8004326:	4b1c      	ldr	r3, [pc, #112]	@ (8004398 <prvAddCurrentTaskToDelayedList+0xfc>)
 8004328:	681b      	ldr	r3, [r3, #0]
 800432a:	3301      	adds	r3, #1
 800432c:	4a1a      	ldr	r2, [pc, #104]	@ (8004398 <prvAddCurrentTaskToDelayedList+0xfc>)
 800432e:	6013      	str	r3, [r2, #0]
 8004330:	bf00      	nop

        /* Avoid compiler warning when INCLUDE_vTaskSuspend is not 1. */
        ( void ) xCanBlockIndefinitely;
    }
    #endif /* INCLUDE_vTaskSuspend */
}
 8004332:	e022      	b.n	800437a <prvAddCurrentTaskToDelayedList+0xde>
            xTimeToWake = xConstTickCount + xTicksToWait;
 8004334:	69fa      	ldr	r2, [r7, #28]
 8004336:	687b      	ldr	r3, [r7, #4]
 8004338:	4413      	add	r3, r2
 800433a:	60fb      	str	r3, [r7, #12]
            listSET_LIST_ITEM_VALUE( &( pxCurrentTCB->xStateListItem ), xTimeToWake );
 800433c:	4b14      	ldr	r3, [pc, #80]	@ (8004390 <prvAddCurrentTaskToDelayedList+0xf4>)
 800433e:	681b      	ldr	r3, [r3, #0]
 8004340:	68fa      	ldr	r2, [r7, #12]
 8004342:	605a      	str	r2, [r3, #4]
            if( xTimeToWake < xConstTickCount )
 8004344:	68fa      	ldr	r2, [r7, #12]
 8004346:	69fb      	ldr	r3, [r7, #28]
 8004348:	429a      	cmp	r2, r3
 800434a:	d207      	bcs.n	800435c <prvAddCurrentTaskToDelayedList+0xc0>
                vListInsert( pxOverflowDelayedList, &( pxCurrentTCB->xStateListItem ) );
 800434c:	4b10      	ldr	r3, [pc, #64]	@ (8004390 <prvAddCurrentTaskToDelayedList+0xf4>)
 800434e:	681b      	ldr	r3, [r3, #0]
 8004350:	3304      	adds	r3, #4
 8004352:	4619      	mov	r1, r3
 8004354:	6978      	ldr	r0, [r7, #20]
 8004356:	f7fc f9a0 	bl	800069a <vListInsert>
}
 800435a:	e00e      	b.n	800437a <prvAddCurrentTaskToDelayedList+0xde>
                vListInsert( pxDelayedList, &( pxCurrentTCB->xStateListItem ) );
 800435c:	4b0c      	ldr	r3, [pc, #48]	@ (8004390 <prvAddCurrentTaskToDelayedList+0xf4>)
 800435e:	681b      	ldr	r3, [r3, #0]
 8004360:	3304      	adds	r3, #4
 8004362:	4619      	mov	r1, r3
 8004364:	69b8      	ldr	r0, [r7, #24]
 8004366:	f7fc f998 	bl	800069a <vListInsert>
                if( xTimeToWake < xNextTaskUnblockTime )
 800436a:	4b0c      	ldr	r3, [pc, #48]	@ (800439c <prvAddCurrentTaskToDelayedList+0x100>)
 800436c:	681b      	ldr	r3, [r3, #0]
 800436e:	68fa      	ldr	r2, [r7, #12]
 8004370:	429a      	cmp	r2, r3
 8004372:	d202      	bcs.n	800437a <prvAddCurrentTaskToDelayedList+0xde>
                    xNextTaskUnblockTime = xTimeToWake;
 8004374:	4a09      	ldr	r2, [pc, #36]	@ (800439c <prvAddCurrentTaskToDelayedList+0x100>)
 8004376:	68fb      	ldr	r3, [r7, #12]
 8004378:	6013      	str	r3, [r2, #0]
}
 800437a:	bf00      	nop
 800437c:	3720      	adds	r7, #32
 800437e:	46bd      	mov	sp, r7
 8004380:	bd80      	pop	{r7, pc}
 8004382:	bf00      	nop
 8004384:	200000e4 	.word	0x200000e4
 8004388:	20000098 	.word	0x20000098
 800438c:	2000009c 	.word	0x2000009c
 8004390:	20000008 	.word	0x20000008
 8004394:	200000e8 	.word	0x200000e8
 8004398:	200000cc 	.word	0x200000cc
 800439c:	20000100 	.word	0x20000100

080043a0 <vTaskResetState>:
 * Reset the state in this file. This state is normally initialized at start up.
 * This function must be called by the application before restarting the
 * scheduler.
 */
void vTaskResetState( void )
{
 80043a0:	b480      	push	{r7}
 80043a2:	b083      	sub	sp, #12
 80043a4:	af00      	add	r7, sp, #0
    BaseType_t xCoreID;

    /* Task control block. */
    #if ( configNUMBER_OF_CORES == 1 )
    {
        pxCurrentTCB = NULL;
 80043a6:	4b1a      	ldr	r3, [pc, #104]	@ (8004410 <vTaskResetState+0x70>)
 80043a8:	2200      	movs	r2, #0
 80043aa:	601a      	str	r2, [r3, #0]
    }
    #endif /* #if ( configNUMBER_OF_CORES == 1 ) */

    #if ( INCLUDE_vTaskDelete == 1 )
    {
        uxDeletedTasksWaitingCleanUp = ( UBaseType_t ) 0U;
 80043ac:	4b19      	ldr	r3, [pc, #100]	@ (8004414 <vTaskResetState+0x74>)
 80043ae:	2200      	movs	r2, #0
 80043b0:	601a      	str	r2, [r3, #0]
        FreeRTOS_errno = 0;
    }
    #endif /* #if ( configUSE_POSIX_ERRNO == 1 ) */

    /* Other file private variables. */
    uxCurrentNumberOfTasks = ( UBaseType_t ) 0U;
 80043b2:	4b19      	ldr	r3, [pc, #100]	@ (8004418 <vTaskResetState+0x78>)
 80043b4:	2200      	movs	r2, #0
 80043b6:	601a      	str	r2, [r3, #0]
    xTickCount = ( TickType_t ) configINITIAL_TICK_COUNT;
 80043b8:	4b18      	ldr	r3, [pc, #96]	@ (800441c <vTaskResetState+0x7c>)
 80043ba:	2200      	movs	r2, #0
 80043bc:	601a      	str	r2, [r3, #0]
    uxTopReadyPriority = tskIDLE_PRIORITY;
 80043be:	4b18      	ldr	r3, [pc, #96]	@ (8004420 <vTaskResetState+0x80>)
 80043c0:	2200      	movs	r2, #0
 80043c2:	601a      	str	r2, [r3, #0]
    xSchedulerRunning = pdFALSE;
 80043c4:	4b17      	ldr	r3, [pc, #92]	@ (8004424 <vTaskResetState+0x84>)
 80043c6:	2200      	movs	r2, #0
 80043c8:	601a      	str	r2, [r3, #0]
    xPendedTicks = ( TickType_t ) 0U;
 80043ca:	4b17      	ldr	r3, [pc, #92]	@ (8004428 <vTaskResetState+0x88>)
 80043cc:	2200      	movs	r2, #0
 80043ce:	601a      	str	r2, [r3, #0]

    for( xCoreID = 0; xCoreID < configNUMBER_OF_CORES; xCoreID++ )
 80043d0:	2300      	movs	r3, #0
 80043d2:	607b      	str	r3, [r7, #4]
 80043d4:	e007      	b.n	80043e6 <vTaskResetState+0x46>
    {
        xYieldPendings[ xCoreID ] = pdFALSE;
 80043d6:	4a15      	ldr	r2, [pc, #84]	@ (800442c <vTaskResetState+0x8c>)
 80043d8:	687b      	ldr	r3, [r7, #4]
 80043da:	2100      	movs	r1, #0
 80043dc:	f842 1023 	str.w	r1, [r2, r3, lsl #2]
    for( xCoreID = 0; xCoreID < configNUMBER_OF_CORES; xCoreID++ )
 80043e0:	687b      	ldr	r3, [r7, #4]
 80043e2:	3301      	adds	r3, #1
 80043e4:	607b      	str	r3, [r7, #4]
 80043e6:	687b      	ldr	r3, [r7, #4]
 80043e8:	2b00      	cmp	r3, #0
 80043ea:	ddf4      	ble.n	80043d6 <vTaskResetState+0x36>
    }

    xNumOfOverflows = ( BaseType_t ) 0;
 80043ec:	4b10      	ldr	r3, [pc, #64]	@ (8004430 <vTaskResetState+0x90>)
 80043ee:	2200      	movs	r2, #0
 80043f0:	601a      	str	r2, [r3, #0]
    uxTaskNumber = ( UBaseType_t ) 0U;
 80043f2:	4b10      	ldr	r3, [pc, #64]	@ (8004434 <vTaskResetState+0x94>)
 80043f4:	2200      	movs	r2, #0
 80043f6:	601a      	str	r2, [r3, #0]
    xNextTaskUnblockTime = ( TickType_t ) 0U;
 80043f8:	4b0f      	ldr	r3, [pc, #60]	@ (8004438 <vTaskResetState+0x98>)
 80043fa:	2200      	movs	r2, #0
 80043fc:	601a      	str	r2, [r3, #0]

    uxSchedulerSuspended = ( UBaseType_t ) 0U;
 80043fe:	4b0f      	ldr	r3, [pc, #60]	@ (800443c <vTaskResetState+0x9c>)
 8004400:	2200      	movs	r2, #0
 8004402:	601a      	str	r2, [r3, #0]
            ulTaskSwitchedInTime[ xCoreID ] = 0U;
            ulTotalRunTime[ xCoreID ] = 0U;
        }
    }
    #endif /* #if ( configGENERATE_RUN_TIME_STATS == 1 ) */
}
 8004404:	bf00      	nop
 8004406:	370c      	adds	r7, #12
 8004408:	46bd      	mov	sp, r7
 800440a:	f85d 7b04 	ldr.w	r7, [sp], #4
 800440e:	4770      	bx	lr
 8004410:	20000008 	.word	0x20000008
 8004414:	200000c8 	.word	0x200000c8
 8004418:	200000e0 	.word	0x200000e0
 800441c:	200000e4 	.word	0x200000e4
 8004420:	200000e8 	.word	0x200000e8
 8004424:	200000ec 	.word	0x200000ec
 8004428:	200000f0 	.word	0x200000f0
 800442c:	200000f4 	.word	0x200000f4
 8004430:	200000f8 	.word	0x200000f8
 8004434:	200000fc 	.word	0x200000fc
 8004438:	20000100 	.word	0x20000100
 800443c:	20000108 	.word	0x20000108

08004440 <xTimerCreateTimerTask>:
                                       TimerCallbackFunction_t pxCallbackFunction,
                                       Timer_t * pxNewTimer ) PRIVILEGED_FUNCTION;
/*-----------------------------------------------------------*/

    BaseType_t xTimerCreateTimerTask( void )
    {
 8004440:	b580      	push	{r7, lr}
 8004442:	b084      	sub	sp, #16
 8004444:	af02      	add	r7, sp, #8
        BaseType_t xReturn = pdFAIL;
 8004446:	2300      	movs	r3, #0
 8004448:	607b      	str	r3, [r7, #4]

        /* This function is called when the scheduler is started if
         * configUSE_TIMERS is set to 1.  Check that the infrastructure used by the
         * timer service task has been created/initialised.  If timers have already
         * been created then the initialisation will already have been performed. */
        prvCheckForValidListAndQueue();
 800444a:	f000 fb65 	bl	8004b18 <prvCheckForValidListAndQueue>

        if( xTimerQueue != NULL )
 800444e:	4b0a      	ldr	r3, [pc, #40]	@ (8004478 <xTimerCreateTimerTask+0x38>)
 8004450:	681b      	ldr	r3, [r3, #0]
 8004452:	2b00      	cmp	r3, #0
 8004454:	d00b      	beq.n	800446e <xTimerCreateTimerTask+0x2e>
                        xReturn = pdPASS;
                    }
                }
                #else /* if ( configSUPPORT_STATIC_ALLOCATION == 1 ) */
                {
                    xReturn = xTaskCreate( &prvTimerTask,
 8004456:	4b09      	ldr	r3, [pc, #36]	@ (800447c <xTimerCreateTimerTask+0x3c>)
 8004458:	9301      	str	r3, [sp, #4]
 800445a:	2304      	movs	r3, #4
 800445c:	9300      	str	r3, [sp, #0]
 800445e:	2300      	movs	r3, #0
 8004460:	f44f 7280 	mov.w	r2, #256	@ 0x100
 8004464:	4906      	ldr	r1, [pc, #24]	@ (8004480 <xTimerCreateTimerTask+0x40>)
 8004466:	4807      	ldr	r0, [pc, #28]	@ (8004484 <xTimerCreateTimerTask+0x44>)
 8004468:	f7fd fe1c 	bl	80020a4 <xTaskCreate>
 800446c:	6078      	str	r0, [r7, #4]

        configASSERT( xReturn );

        traceRETURN_xTimerCreateTimerTask( xReturn );

        return xReturn;
 800446e:	687b      	ldr	r3, [r7, #4]
    }
 8004470:	4618      	mov	r0, r3
 8004472:	3708      	adds	r7, #8
 8004474:	46bd      	mov	sp, r7
 8004476:	bd80      	pop	{r7, pc}
 8004478:	2000013c 	.word	0x2000013c
 800447c:	20000140 	.word	0x20000140
 8004480:	08005430 	.word	0x08005430
 8004484:	08004791 	.word	0x08004791

08004488 <xTimerCreate>:
        TimerHandle_t xTimerCreate( const char * const pcTimerName,
                                    const TickType_t xTimerPeriodInTicks,
                                    const BaseType_t xAutoReload,
                                    void * const pvTimerID,
                                    TimerCallbackFunction_t pxCallbackFunction )
        {
 8004488:	b580      	push	{r7, lr}
 800448a:	b088      	sub	sp, #32
 800448c:	af02      	add	r7, sp, #8
 800448e:	60f8      	str	r0, [r7, #12]
 8004490:	60b9      	str	r1, [r7, #8]
 8004492:	607a      	str	r2, [r7, #4]
 8004494:	603b      	str	r3, [r7, #0]
            traceENTER_xTimerCreate( pcTimerName, xTimerPeriodInTicks, xAutoReload, pvTimerID, pxCallbackFunction );

            /* MISRA Ref 11.5.1 [Malloc memory assignment] */
            /* More details at: https://github.com/FreeRTOS/FreeRTOS-Kernel/blob/main/MISRA.md#rule-115 */
            /* coverity[misra_c_2012_rule_11_5_violation] */
            pxNewTimer = ( Timer_t * ) pvPortMalloc( sizeof( Timer_t ) );
 8004496:	2028      	movs	r0, #40	@ 0x28
 8004498:	f000 fd18 	bl	8004ecc <pvPortMalloc>
 800449c:	6178      	str	r0, [r7, #20]

            if( pxNewTimer != NULL )
 800449e:	697b      	ldr	r3, [r7, #20]
 80044a0:	2b00      	cmp	r3, #0
 80044a2:	d00d      	beq.n	80044c0 <xTimerCreate+0x38>
            {
                /* Status is thus far zero as the timer is not created statically
                 * and has not been started.  The auto-reload bit may get set in
                 * prvInitialiseNewTimer. */
                pxNewTimer->ucStatus = 0x00;
 80044a4:	697b      	ldr	r3, [r7, #20]
 80044a6:	2200      	movs	r2, #0
 80044a8:	f883 2024 	strb.w	r2, [r3, #36]	@ 0x24
                prvInitialiseNewTimer( pcTimerName, xTimerPeriodInTicks, xAutoReload, pvTimerID, pxCallbackFunction, pxNewTimer );
 80044ac:	697b      	ldr	r3, [r7, #20]
 80044ae:	9301      	str	r3, [sp, #4]
 80044b0:	6a3b      	ldr	r3, [r7, #32]
 80044b2:	9300      	str	r3, [sp, #0]
 80044b4:	683b      	ldr	r3, [r7, #0]
 80044b6:	687a      	ldr	r2, [r7, #4]
 80044b8:	68b9      	ldr	r1, [r7, #8]
 80044ba:	68f8      	ldr	r0, [r7, #12]
 80044bc:	f000 f805 	bl	80044ca <prvInitialiseNewTimer>
            }

            traceRETURN_xTimerCreate( pxNewTimer );

            return pxNewTimer;
 80044c0:	697b      	ldr	r3, [r7, #20]
        }
 80044c2:	4618      	mov	r0, r3
 80044c4:	3718      	adds	r7, #24
 80044c6:	46bd      	mov	sp, r7
 80044c8:	bd80      	pop	{r7, pc}

080044ca <prvInitialiseNewTimer>:
                                       const TickType_t xTimerPeriodInTicks,
                                       const BaseType_t xAutoReload,
                                       void * const pvTimerID,
                                       TimerCallbackFunction_t pxCallbackFunction,
                                       Timer_t * pxNewTimer )
    {
 80044ca:	b580      	push	{r7, lr}
 80044cc:	b084      	sub	sp, #16
 80044ce:	af00      	add	r7, sp, #0
 80044d0:	60f8      	str	r0, [r7, #12]
 80044d2:	60b9      	str	r1, [r7, #8]
 80044d4:	607a      	str	r2, [r7, #4]
 80044d6:	603b      	str	r3, [r7, #0]
        /* 0 is not a valid value for xTimerPeriodInTicks. */
        configASSERT( ( xTimerPeriodInTicks > 0 ) );

        /* Ensure the infrastructure used by the timer service task has been
         * created/initialised. */
        prvCheckForValidListAndQueue();
 80044d8:	f000 fb1e 	bl	8004b18 <prvCheckForValidListAndQueue>

        /* Initialise the timer structure members using the function
         * parameters. */
        pxNewTimer->pcTimerName = pcTimerName;
 80044dc:	69fb      	ldr	r3, [r7, #28]
 80044de:	68fa      	ldr	r2, [r7, #12]
 80044e0:	601a      	str	r2, [r3, #0]
        pxNewTimer->xTimerPeriodInTicks = xTimerPeriodInTicks;
 80044e2:	69fb      	ldr	r3, [r7, #28]
 80044e4:	68ba      	ldr	r2, [r7, #8]
 80044e6:	619a      	str	r2, [r3, #24]
        pxNewTimer->pvTimerID = pvTimerID;
 80044e8:	69fb      	ldr	r3, [r7, #28]
 80044ea:	683a      	ldr	r2, [r7, #0]
 80044ec:	61da      	str	r2, [r3, #28]
        pxNewTimer->pxCallbackFunction = pxCallbackFunction;
 80044ee:	69fb      	ldr	r3, [r7, #28]
 80044f0:	69ba      	ldr	r2, [r7, #24]
 80044f2:	621a      	str	r2, [r3, #32]
        vListInitialiseItem( &( pxNewTimer->xTimerListItem ) );
 80044f4:	69fb      	ldr	r3, [r7, #28]
 80044f6:	3304      	adds	r3, #4
 80044f8:	4618      	mov	r0, r3
 80044fa:	f7fc f89d 	bl	8000638 <vListInitialiseItem>

        if( xAutoReload != pdFALSE )
 80044fe:	687b      	ldr	r3, [r7, #4]
 8004500:	2b00      	cmp	r3, #0
 8004502:	d008      	beq.n	8004516 <prvInitialiseNewTimer+0x4c>
        {
            pxNewTimer->ucStatus |= ( uint8_t ) tmrSTATUS_IS_AUTORELOAD;
 8004504:	69fb      	ldr	r3, [r7, #28]
 8004506:	f893 3024 	ldrb.w	r3, [r3, #36]	@ 0x24
 800450a:	f043 0304 	orr.w	r3, r3, #4
 800450e:	b2da      	uxtb	r2, r3
 8004510:	69fb      	ldr	r3, [r7, #28]
 8004512:	f883 2024 	strb.w	r2, [r3, #36]	@ 0x24
        }

        traceTIMER_CREATE( pxNewTimer );
    }
 8004516:	bf00      	nop
 8004518:	3710      	adds	r7, #16
 800451a:	46bd      	mov	sp, r7
 800451c:	bd80      	pop	{r7, pc}

0800451e <xTimerGenericCommandFromTask>:
    BaseType_t xTimerGenericCommandFromTask( TimerHandle_t xTimer,
                                             const BaseType_t xCommandID,
                                             const TickType_t xOptionalValue,
                                             BaseType_t * const pxHigherPriorityTaskWoken,
                                             const TickType_t xTicksToWait )
    {
 800451e:	b580      	push	{r7, lr}
 8004520:	b088      	sub	sp, #32
 8004522:	af00      	add	r7, sp, #0
 8004524:	60f8      	str	r0, [r7, #12]
 8004526:	60b9      	str	r1, [r7, #8]
 8004528:	607a      	str	r2, [r7, #4]
 800452a:	603b      	str	r3, [r7, #0]
        BaseType_t xReturn = pdFAIL;
 800452c:	2300      	movs	r3, #0
 800452e:	61fb      	str	r3, [r7, #28]

        traceENTER_xTimerGenericCommandFromTask( xTimer, xCommandID, xOptionalValue, pxHigherPriorityTaskWoken, xTicksToWait );

        /* Send a message to the timer service task to perform a particular action
         * on a particular timer definition. */
        if( ( xTimerQueue != NULL ) && ( xTimer != NULL ) )
 8004530:	4b16      	ldr	r3, [pc, #88]	@ (800458c <xTimerGenericCommandFromTask+0x6e>)
 8004532:	681b      	ldr	r3, [r3, #0]
 8004534:	2b00      	cmp	r3, #0
 8004536:	d023      	beq.n	8004580 <xTimerGenericCommandFromTask+0x62>
 8004538:	68fb      	ldr	r3, [r7, #12]
 800453a:	2b00      	cmp	r3, #0
 800453c:	d020      	beq.n	8004580 <xTimerGenericCommandFromTask+0x62>
        {
            /* Send a command to the timer service task to start the xTimer timer. */
            xMessage.xMessageID = xCommandID;
 800453e:	68bb      	ldr	r3, [r7, #8]
 8004540:	613b      	str	r3, [r7, #16]
            xMessage.u.xTimerParameters.xMessageValue = xOptionalValue;
 8004542:	687b      	ldr	r3, [r7, #4]
 8004544:	617b      	str	r3, [r7, #20]
            xMessage.u.xTimerParameters.pxTimer = xTimer;
 8004546:	68fb      	ldr	r3, [r7, #12]
 8004548:	61bb      	str	r3, [r7, #24]

            configASSERT( xCommandID < tmrFIRST_FROM_ISR_COMMAND );

            if( xCommandID < tmrFIRST_FROM_ISR_COMMAND )
 800454a:	68bb      	ldr	r3, [r7, #8]
 800454c:	2b05      	cmp	r3, #5
 800454e:	dc17      	bgt.n	8004580 <xTimerGenericCommandFromTask+0x62>
            {
                if( xTaskGetSchedulerState() == taskSCHEDULER_RUNNING )
 8004550:	f7ff f846 	bl	80035e0 <xTaskGetSchedulerState>
 8004554:	4603      	mov	r3, r0
 8004556:	2b02      	cmp	r3, #2
 8004558:	d109      	bne.n	800456e <xTimerGenericCommandFromTask+0x50>
                {
                    xReturn = xQueueSendToBack( xTimerQueue, &xMessage, xTicksToWait );
 800455a:	4b0c      	ldr	r3, [pc, #48]	@ (800458c <xTimerGenericCommandFromTask+0x6e>)
 800455c:	6818      	ldr	r0, [r3, #0]
 800455e:	f107 0110 	add.w	r1, r7, #16
 8004562:	2300      	movs	r3, #0
 8004564:	6aba      	ldr	r2, [r7, #40]	@ 0x28
 8004566:	f7fc fa6c 	bl	8000a42 <xQueueGenericSend>
 800456a:	61f8      	str	r0, [r7, #28]
 800456c:	e008      	b.n	8004580 <xTimerGenericCommandFromTask+0x62>
                }
                else
                {
                    xReturn = xQueueSendToBack( xTimerQueue, &xMessage, tmrNO_DELAY );
 800456e:	4b07      	ldr	r3, [pc, #28]	@ (800458c <xTimerGenericCommandFromTask+0x6e>)
 8004570:	6818      	ldr	r0, [r3, #0]
 8004572:	f107 0110 	add.w	r1, r7, #16
 8004576:	2300      	movs	r3, #0
 8004578:	2200      	movs	r2, #0
 800457a:	f7fc fa62 	bl	8000a42 <xQueueGenericSend>
 800457e:	61f8      	str	r0, [r7, #28]
            mtCOVERAGE_TEST_MARKER();
        }

        traceRETURN_xTimerGenericCommandFromTask( xReturn );

        return xReturn;
 8004580:	69fb      	ldr	r3, [r7, #28]
    }
 8004582:	4618      	mov	r0, r3
 8004584:	3720      	adds	r7, #32
 8004586:	46bd      	mov	sp, r7
 8004588:	bd80      	pop	{r7, pc}
 800458a:	bf00      	nop
 800458c:	2000013c 	.word	0x2000013c

08004590 <xTimerGenericCommandFromISR>:
    BaseType_t xTimerGenericCommandFromISR( TimerHandle_t xTimer,
                                            const BaseType_t xCommandID,
                                            const TickType_t xOptionalValue,
                                            BaseType_t * const pxHigherPriorityTaskWoken,
                                            const TickType_t xTicksToWait )
    {
 8004590:	b580      	push	{r7, lr}
 8004592:	b088      	sub	sp, #32
 8004594:	af00      	add	r7, sp, #0
 8004596:	60f8      	str	r0, [r7, #12]
 8004598:	60b9      	str	r1, [r7, #8]
 800459a:	607a      	str	r2, [r7, #4]
 800459c:	603b      	str	r3, [r7, #0]
        BaseType_t xReturn = pdFAIL;
 800459e:	2300      	movs	r3, #0
 80045a0:	61fb      	str	r3, [r7, #28]

        traceENTER_xTimerGenericCommandFromISR( xTimer, xCommandID, xOptionalValue, pxHigherPriorityTaskWoken, xTicksToWait );

        /* Send a message to the timer service task to perform a particular action
         * on a particular timer definition. */
        if( ( xTimerQueue != NULL ) && ( xTimer != NULL ) )
 80045a2:	4b0f      	ldr	r3, [pc, #60]	@ (80045e0 <xTimerGenericCommandFromISR+0x50>)
 80045a4:	681b      	ldr	r3, [r3, #0]
 80045a6:	2b00      	cmp	r3, #0
 80045a8:	d014      	beq.n	80045d4 <xTimerGenericCommandFromISR+0x44>
 80045aa:	68fb      	ldr	r3, [r7, #12]
 80045ac:	2b00      	cmp	r3, #0
 80045ae:	d011      	beq.n	80045d4 <xTimerGenericCommandFromISR+0x44>
        {
            /* Send a command to the timer service task to start the xTimer timer. */
            xMessage.xMessageID = xCommandID;
 80045b0:	68bb      	ldr	r3, [r7, #8]
 80045b2:	613b      	str	r3, [r7, #16]
            xMessage.u.xTimerParameters.xMessageValue = xOptionalValue;
 80045b4:	687b      	ldr	r3, [r7, #4]
 80045b6:	617b      	str	r3, [r7, #20]
            xMessage.u.xTimerParameters.pxTimer = xTimer;
 80045b8:	68fb      	ldr	r3, [r7, #12]
 80045ba:	61bb      	str	r3, [r7, #24]

            configASSERT( xCommandID >= tmrFIRST_FROM_ISR_COMMAND );

            if( xCommandID >= tmrFIRST_FROM_ISR_COMMAND )
 80045bc:	68bb      	ldr	r3, [r7, #8]
 80045be:	2b05      	cmp	r3, #5
 80045c0:	dd08      	ble.n	80045d4 <xTimerGenericCommandFromISR+0x44>
            {
                xReturn = xQueueSendToBackFromISR( xTimerQueue, &xMessage, pxHigherPriorityTaskWoken );
 80045c2:	4b07      	ldr	r3, [pc, #28]	@ (80045e0 <xTimerGenericCommandFromISR+0x50>)
 80045c4:	6818      	ldr	r0, [r3, #0]
 80045c6:	f107 0110 	add.w	r1, r7, #16
 80045ca:	2300      	movs	r3, #0
 80045cc:	683a      	ldr	r2, [r7, #0]
 80045ce:	f7fc fae3 	bl	8000b98 <xQueueGenericSendFromISR>
 80045d2:	61f8      	str	r0, [r7, #28]
            mtCOVERAGE_TEST_MARKER();
        }

        traceRETURN_xTimerGenericCommandFromISR( xReturn );

        return xReturn;
 80045d4:	69fb      	ldr	r3, [r7, #28]
    }
 80045d6:	4618      	mov	r0, r3
 80045d8:	3720      	adds	r7, #32
 80045da:	46bd      	mov	sp, r7
 80045dc:	bd80      	pop	{r7, pc}
 80045de:	bf00      	nop
 80045e0:	2000013c 	.word	0x2000013c

080045e4 <xTimerGetTimerDaemonTaskHandle>:
/*-----------------------------------------------------------*/

    TaskHandle_t xTimerGetTimerDaemonTaskHandle( void )
    {
 80045e4:	b480      	push	{r7}
 80045e6:	af00      	add	r7, sp, #0
         * started, then xTimerTaskHandle will be NULL. */
        configASSERT( ( xTimerTaskHandle != NULL ) );

        traceRETURN_xTimerGetTimerDaemonTaskHandle( xTimerTaskHandle );

        return xTimerTaskHandle;
 80045e8:	4b03      	ldr	r3, [pc, #12]	@ (80045f8 <xTimerGetTimerDaemonTaskHandle+0x14>)
 80045ea:	681b      	ldr	r3, [r3, #0]
    }
 80045ec:	4618      	mov	r0, r3
 80045ee:	46bd      	mov	sp, r7
 80045f0:	f85d 7b04 	ldr.w	r7, [sp], #4
 80045f4:	4770      	bx	lr
 80045f6:	bf00      	nop
 80045f8:	20000140 	.word	0x20000140

080045fc <xTimerGetPeriod>:
/*-----------------------------------------------------------*/

    TickType_t xTimerGetPeriod( TimerHandle_t xTimer )
    {
 80045fc:	b480      	push	{r7}
 80045fe:	b085      	sub	sp, #20
 8004600:	af00      	add	r7, sp, #0
 8004602:	6078      	str	r0, [r7, #4]
        Timer_t * pxTimer = xTimer;
 8004604:	687b      	ldr	r3, [r7, #4]
 8004606:	60fb      	str	r3, [r7, #12]

        configASSERT( xTimer );

        traceRETURN_xTimerGetPeriod( pxTimer->xTimerPeriodInTicks );

        return pxTimer->xTimerPeriodInTicks;
 8004608:	68fb      	ldr	r3, [r7, #12]
 800460a:	699b      	ldr	r3, [r3, #24]
    }
 800460c:	4618      	mov	r0, r3
 800460e:	3714      	adds	r7, #20
 8004610:	46bd      	mov	sp, r7
 8004612:	f85d 7b04 	ldr.w	r7, [sp], #4
 8004616:	4770      	bx	lr

08004618 <vTimerSetReloadMode>:
/*-----------------------------------------------------------*/

    void vTimerSetReloadMode( TimerHandle_t xTimer,
                              const BaseType_t xAutoReload )
    {
 8004618:	b580      	push	{r7, lr}
 800461a:	b084      	sub	sp, #16
 800461c:	af00      	add	r7, sp, #0
 800461e:	6078      	str	r0, [r7, #4]
 8004620:	6039      	str	r1, [r7, #0]
        Timer_t * pxTimer = xTimer;
 8004622:	687b      	ldr	r3, [r7, #4]
 8004624:	60fb      	str	r3, [r7, #12]

        traceENTER_vTimerSetReloadMode( xTimer, xAutoReload );

        configASSERT( xTimer );
        taskENTER_CRITICAL();
 8004626:	f000 fba2 	bl	8004d6e <vPortEnterCritical>
        {
            if( xAutoReload != pdFALSE )
 800462a:	683b      	ldr	r3, [r7, #0]
 800462c:	2b00      	cmp	r3, #0
 800462e:	d009      	beq.n	8004644 <vTimerSetReloadMode+0x2c>
            {
                pxTimer->ucStatus |= ( uint8_t ) tmrSTATUS_IS_AUTORELOAD;
 8004630:	68fb      	ldr	r3, [r7, #12]
 8004632:	f893 3024 	ldrb.w	r3, [r3, #36]	@ 0x24
 8004636:	f043 0304 	orr.w	r3, r3, #4
 800463a:	b2da      	uxtb	r2, r3
 800463c:	68fb      	ldr	r3, [r7, #12]
 800463e:	f883 2024 	strb.w	r2, [r3, #36]	@ 0x24
 8004642:	e008      	b.n	8004656 <vTimerSetReloadMode+0x3e>
            }
            else
            {
                pxTimer->ucStatus &= ( ( uint8_t ) ~tmrSTATUS_IS_AUTORELOAD );
 8004644:	68fb      	ldr	r3, [r7, #12]
 8004646:	f893 3024 	ldrb.w	r3, [r3, #36]	@ 0x24
 800464a:	f023 0304 	bic.w	r3, r3, #4
 800464e:	b2da      	uxtb	r2, r3
 8004650:	68fb      	ldr	r3, [r7, #12]
 8004652:	f883 2024 	strb.w	r2, [r3, #36]	@ 0x24
            }
        }
        taskEXIT_CRITICAL();
 8004656:	f000 fba5 	bl	8004da4 <vPortExitCritical>

        traceRETURN_vTimerSetReloadMode();
    }
 800465a:	bf00      	nop
 800465c:	3710      	adds	r7, #16
 800465e:	46bd      	mov	sp, r7
 8004660:	bd80      	pop	{r7, pc}

08004662 <xTimerGetReloadMode>:
/*-----------------------------------------------------------*/

    BaseType_t xTimerGetReloadMode( TimerHandle_t xTimer )
    {
 8004662:	b580      	push	{r7, lr}
 8004664:	b084      	sub	sp, #16
 8004666:	af00      	add	r7, sp, #0
 8004668:	6078      	str	r0, [r7, #4]
        Timer_t * pxTimer = xTimer;
 800466a:	687b      	ldr	r3, [r7, #4]
 800466c:	60bb      	str	r3, [r7, #8]
        BaseType_t xReturn;

        traceENTER_xTimerGetReloadMode( xTimer );

        configASSERT( xTimer );
        portBASE_TYPE_ENTER_CRITICAL();
 800466e:	f000 fb7e 	bl	8004d6e <vPortEnterCritical>
        {
            if( ( pxTimer->ucStatus & tmrSTATUS_IS_AUTORELOAD ) == 0U )
 8004672:	68bb      	ldr	r3, [r7, #8]
 8004674:	f893 3024 	ldrb.w	r3, [r3, #36]	@ 0x24
 8004678:	f003 0304 	and.w	r3, r3, #4
 800467c:	2b00      	cmp	r3, #0
 800467e:	d102      	bne.n	8004686 <xTimerGetReloadMode+0x24>
            {
                /* Not an auto-reload timer. */
                xReturn = pdFALSE;
 8004680:	2300      	movs	r3, #0
 8004682:	60fb      	str	r3, [r7, #12]
 8004684:	e001      	b.n	800468a <xTimerGetReloadMode+0x28>
            }
            else
            {
                /* Is an auto-reload timer. */
                xReturn = pdTRUE;
 8004686:	2301      	movs	r3, #1
 8004688:	60fb      	str	r3, [r7, #12]
            }
        }
        portBASE_TYPE_EXIT_CRITICAL();
 800468a:	f000 fb8b 	bl	8004da4 <vPortExitCritical>

        traceRETURN_xTimerGetReloadMode( xReturn );

        return xReturn;
 800468e:	68fb      	ldr	r3, [r7, #12]
    }
 8004690:	4618      	mov	r0, r3
 8004692:	3710      	adds	r7, #16
 8004694:	46bd      	mov	sp, r7
 8004696:	bd80      	pop	{r7, pc}

08004698 <uxTimerGetReloadMode>:

    UBaseType_t uxTimerGetReloadMode( TimerHandle_t xTimer )
    {
 8004698:	b580      	push	{r7, lr}
 800469a:	b084      	sub	sp, #16
 800469c:	af00      	add	r7, sp, #0
 800469e:	6078      	str	r0, [r7, #4]
        UBaseType_t uxReturn;

        traceENTER_uxTimerGetReloadMode( xTimer );

        uxReturn = ( UBaseType_t ) xTimerGetReloadMode( xTimer );
 80046a0:	6878      	ldr	r0, [r7, #4]
 80046a2:	f7ff ffde 	bl	8004662 <xTimerGetReloadMode>
 80046a6:	4603      	mov	r3, r0
 80046a8:	60fb      	str	r3, [r7, #12]

        traceRETURN_uxTimerGetReloadMode( uxReturn );

        return uxReturn;
 80046aa:	68fb      	ldr	r3, [r7, #12]
    }
 80046ac:	4618      	mov	r0, r3
 80046ae:	3710      	adds	r7, #16
 80046b0:	46bd      	mov	sp, r7
 80046b2:	bd80      	pop	{r7, pc}

080046b4 <xTimerGetExpiryTime>:
/*-----------------------------------------------------------*/

    TickType_t xTimerGetExpiryTime( TimerHandle_t xTimer )
    {
 80046b4:	b480      	push	{r7}
 80046b6:	b085      	sub	sp, #20
 80046b8:	af00      	add	r7, sp, #0
 80046ba:	6078      	str	r0, [r7, #4]
        Timer_t * pxTimer = xTimer;
 80046bc:	687b      	ldr	r3, [r7, #4]
 80046be:	60fb      	str	r3, [r7, #12]
        TickType_t xReturn;

        traceENTER_xTimerGetExpiryTime( xTimer );

        configASSERT( xTimer );
        xReturn = listGET_LIST_ITEM_VALUE( &( pxTimer->xTimerListItem ) );
 80046c0:	68fb      	ldr	r3, [r7, #12]
 80046c2:	685b      	ldr	r3, [r3, #4]
 80046c4:	60bb      	str	r3, [r7, #8]

        traceRETURN_xTimerGetExpiryTime( xReturn );

        return xReturn;
 80046c6:	68bb      	ldr	r3, [r7, #8]
    }
 80046c8:	4618      	mov	r0, r3
 80046ca:	3714      	adds	r7, #20
 80046cc:	46bd      	mov	sp, r7
 80046ce:	f85d 7b04 	ldr.w	r7, [sp], #4
 80046d2:	4770      	bx	lr

080046d4 <pcTimerGetName>:
        }
    #endif /* configSUPPORT_STATIC_ALLOCATION */
/*-----------------------------------------------------------*/

    const char * pcTimerGetName( TimerHandle_t xTimer )
    {
 80046d4:	b480      	push	{r7}
 80046d6:	b085      	sub	sp, #20
 80046d8:	af00      	add	r7, sp, #0
 80046da:	6078      	str	r0, [r7, #4]
        Timer_t * pxTimer = xTimer;
 80046dc:	687b      	ldr	r3, [r7, #4]
 80046de:	60fb      	str	r3, [r7, #12]

        configASSERT( xTimer );

        traceRETURN_pcTimerGetName( pxTimer->pcTimerName );

        return pxTimer->pcTimerName;
 80046e0:	68fb      	ldr	r3, [r7, #12]
 80046e2:	681b      	ldr	r3, [r3, #0]
    }
 80046e4:	4618      	mov	r0, r3
 80046e6:	3714      	adds	r7, #20
 80046e8:	46bd      	mov	sp, r7
 80046ea:	f85d 7b04 	ldr.w	r7, [sp], #4
 80046ee:	4770      	bx	lr

080046f0 <prvReloadTimer>:
/*-----------------------------------------------------------*/

    static void prvReloadTimer( Timer_t * const pxTimer,
                                TickType_t xExpiredTime,
                                const TickType_t xTimeNow )
    {
 80046f0:	b580      	push	{r7, lr}
 80046f2:	b084      	sub	sp, #16
 80046f4:	af00      	add	r7, sp, #0
 80046f6:	60f8      	str	r0, [r7, #12]
 80046f8:	60b9      	str	r1, [r7, #8]
 80046fa:	607a      	str	r2, [r7, #4]
        /* Insert the timer into the appropriate list for the next expiry time.
         * If the next expiry time has already passed, advance the expiry time,
         * call the callback function, and try again. */
        while( prvInsertTimerInActiveList( pxTimer, ( xExpiredTime + pxTimer->xTimerPeriodInTicks ), xTimeNow, xExpiredTime ) != pdFALSE )
 80046fc:	e008      	b.n	8004710 <prvReloadTimer+0x20>
        {
            /* Advance the expiry time. */
            xExpiredTime += pxTimer->xTimerPeriodInTicks;
 80046fe:	68fb      	ldr	r3, [r7, #12]
 8004700:	699b      	ldr	r3, [r3, #24]
 8004702:	68ba      	ldr	r2, [r7, #8]
 8004704:	4413      	add	r3, r2
 8004706:	60bb      	str	r3, [r7, #8]

            /* Call the timer callback. */
            traceTIMER_EXPIRED( pxTimer );
            pxTimer->pxCallbackFunction( ( TimerHandle_t ) pxTimer );
 8004708:	68fb      	ldr	r3, [r7, #12]
 800470a:	6a1b      	ldr	r3, [r3, #32]
 800470c:	68f8      	ldr	r0, [r7, #12]
 800470e:	4798      	blx	r3
        while( prvInsertTimerInActiveList( pxTimer, ( xExpiredTime + pxTimer->xTimerPeriodInTicks ), xTimeNow, xExpiredTime ) != pdFALSE )
 8004710:	68fb      	ldr	r3, [r7, #12]
 8004712:	699a      	ldr	r2, [r3, #24]
 8004714:	68bb      	ldr	r3, [r7, #8]
 8004716:	18d1      	adds	r1, r2, r3
 8004718:	68bb      	ldr	r3, [r7, #8]
 800471a:	687a      	ldr	r2, [r7, #4]
 800471c:	68f8      	ldr	r0, [r7, #12]
 800471e:	f000 f8db 	bl	80048d8 <prvInsertTimerInActiveList>
 8004722:	4603      	mov	r3, r0
 8004724:	2b00      	cmp	r3, #0
 8004726:	d1ea      	bne.n	80046fe <prvReloadTimer+0xe>
        }
    }
 8004728:	bf00      	nop
 800472a:	bf00      	nop
 800472c:	3710      	adds	r7, #16
 800472e:	46bd      	mov	sp, r7
 8004730:	bd80      	pop	{r7, pc}

08004732 <prvProcessExpiredTimer>:
/*-----------------------------------------------------------*/

    static void prvProcessExpiredTimer( const TickType_t xNextExpireTime,
                                        const TickType_t xTimeNow )
    {
 8004732:	b580      	push	{r7, lr}
 8004734:	b084      	sub	sp, #16
 8004736:	af00      	add	r7, sp, #0
 8004738:	6078      	str	r0, [r7, #4]
 800473a:	6039      	str	r1, [r7, #0]
        /* MISRA Ref 11.5.3 [Void pointer assignment] */
        /* More details at: https://github.com/FreeRTOS/FreeRTOS-Kernel/blob/main/MISRA.md#rule-115 */
        /* coverity[misra_c_2012_rule_11_5_violation] */
        Timer_t * const pxTimer = ( Timer_t * ) listGET_OWNER_OF_HEAD_ENTRY( pxCurrentTimerList );
 800473c:	4b13      	ldr	r3, [pc, #76]	@ (800478c <prvProcessExpiredTimer+0x5a>)
 800473e:	681b      	ldr	r3, [r3, #0]
 8004740:	68db      	ldr	r3, [r3, #12]
 8004742:	68db      	ldr	r3, [r3, #12]
 8004744:	60fb      	str	r3, [r7, #12]

        /* Remove the timer from the list of active timers.  A check has already
         * been performed to ensure the list is not empty. */

        ( void ) uxListRemove( &( pxTimer->xTimerListItem ) );
 8004746:	68fb      	ldr	r3, [r7, #12]
 8004748:	3304      	adds	r3, #4
 800474a:	4618      	mov	r0, r3
 800474c:	f7fb ffde 	bl	800070c <uxListRemove>

        /* If the timer is an auto-reload timer then calculate the next
         * expiry time and re-insert the timer in the list of active timers. */
        if( ( pxTimer->ucStatus & tmrSTATUS_IS_AUTORELOAD ) != 0U )
 8004750:	68fb      	ldr	r3, [r7, #12]
 8004752:	f893 3024 	ldrb.w	r3, [r3, #36]	@ 0x24
 8004756:	f003 0304 	and.w	r3, r3, #4
 800475a:	2b00      	cmp	r3, #0
 800475c:	d005      	beq.n	800476a <prvProcessExpiredTimer+0x38>
        {
            prvReloadTimer( pxTimer, xNextExpireTime, xTimeNow );
 800475e:	683a      	ldr	r2, [r7, #0]
 8004760:	6879      	ldr	r1, [r7, #4]
 8004762:	68f8      	ldr	r0, [r7, #12]
 8004764:	f7ff ffc4 	bl	80046f0 <prvReloadTimer>
 8004768:	e008      	b.n	800477c <prvProcessExpiredTimer+0x4a>
        }
        else
        {
            pxTimer->ucStatus &= ( ( uint8_t ) ~tmrSTATUS_IS_ACTIVE );
 800476a:	68fb      	ldr	r3, [r7, #12]
 800476c:	f893 3024 	ldrb.w	r3, [r3, #36]	@ 0x24
 8004770:	f023 0301 	bic.w	r3, r3, #1
 8004774:	b2da      	uxtb	r2, r3
 8004776:	68fb      	ldr	r3, [r7, #12]
 8004778:	f883 2024 	strb.w	r2, [r3, #36]	@ 0x24
        }

        /* Call the timer callback. */
        traceTIMER_EXPIRED( pxTimer );
        pxTimer->pxCallbackFunction( ( TimerHandle_t ) pxTimer );
 800477c:	68fb      	ldr	r3, [r7, #12]
 800477e:	6a1b      	ldr	r3, [r3, #32]
 8004780:	68f8      	ldr	r0, [r7, #12]
 8004782:	4798      	blx	r3
    }
 8004784:	bf00      	nop
 8004786:	3710      	adds	r7, #16
 8004788:	46bd      	mov	sp, r7
 800478a:	bd80      	pop	{r7, pc}
 800478c:	20000134 	.word	0x20000134

08004790 <prvTimerTask>:
/*-----------------------------------------------------------*/

    static portTASK_FUNCTION( prvTimerTask, pvParameters )
    {
 8004790:	b580      	push	{r7, lr}
 8004792:	b084      	sub	sp, #16
 8004794:	af00      	add	r7, sp, #0
 8004796:	6078      	str	r0, [r7, #4]

        for( ; configCONTROL_INFINITE_LOOP(); )
        {
            /* Query the timers list to see if it contains any timers, and if so,
             * obtain the time at which the next timer will expire. */
            xNextExpireTime = prvGetNextExpireTime( &xListWasEmpty );
 8004798:	f107 0308 	add.w	r3, r7, #8
 800479c:	4618      	mov	r0, r3
 800479e:	f000 f857 	bl	8004850 <prvGetNextExpireTime>
 80047a2:	60f8      	str	r0, [r7, #12]

            /* If a timer has expired, process it.  Otherwise, block this task
             * until either a timer does expire, or a command is received. */
            prvProcessTimerOrBlockTask( xNextExpireTime, xListWasEmpty );
 80047a4:	68bb      	ldr	r3, [r7, #8]
 80047a6:	4619      	mov	r1, r3
 80047a8:	68f8      	ldr	r0, [r7, #12]
 80047aa:	f000 f804 	bl	80047b6 <prvProcessTimerOrBlockTask>

            /* Empty the command queue. */
            prvProcessReceivedCommands();
 80047ae:	f000 f8d5 	bl	800495c <prvProcessReceivedCommands>
            xNextExpireTime = prvGetNextExpireTime( &xListWasEmpty );
 80047b2:	bf00      	nop
 80047b4:	e7f0      	b.n	8004798 <prvTimerTask+0x8>

080047b6 <prvProcessTimerOrBlockTask>:
    }
/*-----------------------------------------------------------*/

    static void prvProcessTimerOrBlockTask( const TickType_t xNextExpireTime,
                                            BaseType_t xListWasEmpty )
    {
 80047b6:	b580      	push	{r7, lr}
 80047b8:	b084      	sub	sp, #16
 80047ba:	af00      	add	r7, sp, #0
 80047bc:	6078      	str	r0, [r7, #4]
 80047be:	6039      	str	r1, [r7, #0]
        TickType_t xTimeNow;
        BaseType_t xTimerListsWereSwitched;

        vTaskSuspendAll();
 80047c0:	f7fe f8da 	bl	8002978 <vTaskSuspendAll>
            /* Obtain the time now to make an assessment as to whether the timer
             * has expired or not.  If obtaining the time causes the lists to switch
             * then don't process this timer as any timers that remained in the list
             * when the lists were switched will have been processed within the
             * prvSampleTimeNow() function. */
            xTimeNow = prvSampleTimeNow( &xTimerListsWereSwitched );
 80047c4:	f107 0308 	add.w	r3, r7, #8
 80047c8:	4618      	mov	r0, r3
 80047ca:	f000 f865 	bl	8004898 <prvSampleTimeNow>
 80047ce:	60f8      	str	r0, [r7, #12]

            if( xTimerListsWereSwitched == pdFALSE )
 80047d0:	68bb      	ldr	r3, [r7, #8]
 80047d2:	2b00      	cmp	r3, #0
 80047d4:	d130      	bne.n	8004838 <prvProcessTimerOrBlockTask+0x82>
            {
                /* The tick count has not overflowed, has the timer expired? */
                if( ( xListWasEmpty == pdFALSE ) && ( xNextExpireTime <= xTimeNow ) )
 80047d6:	683b      	ldr	r3, [r7, #0]
 80047d8:	2b00      	cmp	r3, #0
 80047da:	d10a      	bne.n	80047f2 <prvProcessTimerOrBlockTask+0x3c>
 80047dc:	687a      	ldr	r2, [r7, #4]
 80047de:	68fb      	ldr	r3, [r7, #12]
 80047e0:	429a      	cmp	r2, r3
 80047e2:	d806      	bhi.n	80047f2 <prvProcessTimerOrBlockTask+0x3c>
                {
                    ( void ) xTaskResumeAll();
 80047e4:	f7fe f8d6 	bl	8002994 <xTaskResumeAll>
                    prvProcessExpiredTimer( xNextExpireTime, xTimeNow );
 80047e8:	68f9      	ldr	r1, [r7, #12]
 80047ea:	6878      	ldr	r0, [r7, #4]
 80047ec:	f7ff ffa1 	bl	8004732 <prvProcessExpiredTimer>
            else
            {
                ( void ) xTaskResumeAll();
            }
        }
    }
 80047f0:	e024      	b.n	800483c <prvProcessTimerOrBlockTask+0x86>
                    if( xListWasEmpty != pdFALSE )
 80047f2:	683b      	ldr	r3, [r7, #0]
 80047f4:	2b00      	cmp	r3, #0
 80047f6:	d008      	beq.n	800480a <prvProcessTimerOrBlockTask+0x54>
                        xListWasEmpty = listLIST_IS_EMPTY( pxOverflowTimerList );
 80047f8:	4b12      	ldr	r3, [pc, #72]	@ (8004844 <prvProcessTimerOrBlockTask+0x8e>)
 80047fa:	681b      	ldr	r3, [r3, #0]
 80047fc:	681b      	ldr	r3, [r3, #0]
 80047fe:	2b00      	cmp	r3, #0
 8004800:	d101      	bne.n	8004806 <prvProcessTimerOrBlockTask+0x50>
 8004802:	2301      	movs	r3, #1
 8004804:	e000      	b.n	8004808 <prvProcessTimerOrBlockTask+0x52>
 8004806:	2300      	movs	r3, #0
 8004808:	603b      	str	r3, [r7, #0]
                    vQueueWaitForMessageRestricted( xTimerQueue, ( xNextExpireTime - xTimeNow ), xListWasEmpty );
 800480a:	4b0f      	ldr	r3, [pc, #60]	@ (8004848 <prvProcessTimerOrBlockTask+0x92>)
 800480c:	6818      	ldr	r0, [r3, #0]
 800480e:	687a      	ldr	r2, [r7, #4]
 8004810:	68fb      	ldr	r3, [r7, #12]
 8004812:	1ad3      	subs	r3, r2, r3
 8004814:	683a      	ldr	r2, [r7, #0]
 8004816:	4619      	mov	r1, r3
 8004818:	f7fc fed2 	bl	80015c0 <vQueueWaitForMessageRestricted>
                    if( xTaskResumeAll() == pdFALSE )
 800481c:	f7fe f8ba 	bl	8002994 <xTaskResumeAll>
 8004820:	4603      	mov	r3, r0
 8004822:	2b00      	cmp	r3, #0
 8004824:	d10a      	bne.n	800483c <prvProcessTimerOrBlockTask+0x86>
                        taskYIELD_WITHIN_API();
 8004826:	4b09      	ldr	r3, [pc, #36]	@ (800484c <prvProcessTimerOrBlockTask+0x96>)
 8004828:	f04f 5280 	mov.w	r2, #268435456	@ 0x10000000
 800482c:	601a      	str	r2, [r3, #0]
 800482e:	f3bf 8f4f 	dsb	sy
 8004832:	f3bf 8f6f 	isb	sy
    }
 8004836:	e001      	b.n	800483c <prvProcessTimerOrBlockTask+0x86>
                ( void ) xTaskResumeAll();
 8004838:	f7fe f8ac 	bl	8002994 <xTaskResumeAll>
    }
 800483c:	bf00      	nop
 800483e:	3710      	adds	r7, #16
 8004840:	46bd      	mov	sp, r7
 8004842:	bd80      	pop	{r7, pc}
 8004844:	20000138 	.word	0x20000138
 8004848:	2000013c 	.word	0x2000013c
 800484c:	e000ed04 	.word	0xe000ed04

08004850 <prvGetNextExpireTime>:
/*-----------------------------------------------------------*/

    static TickType_t prvGetNextExpireTime( BaseType_t * const pxListWasEmpty )
    {
 8004850:	b480      	push	{r7}
 8004852:	b085      	sub	sp, #20
 8004854:	af00      	add	r7, sp, #0
 8004856:	6078      	str	r0, [r7, #4]
         * the timer with the nearest expiry time will expire.  If there are no
         * active timers then just set the next expire time to 0.  That will cause
         * this task to unblock when the tick count overflows, at which point the
         * timer lists will be switched and the next expiry time can be
         * re-assessed.  */
        *pxListWasEmpty = listLIST_IS_EMPTY( pxCurrentTimerList );
 8004858:	4b0e      	ldr	r3, [pc, #56]	@ (8004894 <prvGetNextExpireTime+0x44>)
 800485a:	681b      	ldr	r3, [r3, #0]
 800485c:	681b      	ldr	r3, [r3, #0]
 800485e:	2b00      	cmp	r3, #0
 8004860:	d101      	bne.n	8004866 <prvGetNextExpireTime+0x16>
 8004862:	2201      	movs	r2, #1
 8004864:	e000      	b.n	8004868 <prvGetNextExpireTime+0x18>
 8004866:	2200      	movs	r2, #0
 8004868:	687b      	ldr	r3, [r7, #4]
 800486a:	601a      	str	r2, [r3, #0]

        if( *pxListWasEmpty == pdFALSE )
 800486c:	687b      	ldr	r3, [r7, #4]
 800486e:	681b      	ldr	r3, [r3, #0]
 8004870:	2b00      	cmp	r3, #0
 8004872:	d105      	bne.n	8004880 <prvGetNextExpireTime+0x30>
        {
            xNextExpireTime = listGET_ITEM_VALUE_OF_HEAD_ENTRY( pxCurrentTimerList );
 8004874:	4b07      	ldr	r3, [pc, #28]	@ (8004894 <prvGetNextExpireTime+0x44>)
 8004876:	681b      	ldr	r3, [r3, #0]
 8004878:	68db      	ldr	r3, [r3, #12]
 800487a:	681b      	ldr	r3, [r3, #0]
 800487c:	60fb      	str	r3, [r7, #12]
 800487e:	e001      	b.n	8004884 <prvGetNextExpireTime+0x34>
        }
        else
        {
            /* Ensure the task unblocks when the tick count rolls over. */
            xNextExpireTime = ( TickType_t ) 0U;
 8004880:	2300      	movs	r3, #0
 8004882:	60fb      	str	r3, [r7, #12]
        }

        return xNextExpireTime;
 8004884:	68fb      	ldr	r3, [r7, #12]
    }
 8004886:	4618      	mov	r0, r3
 8004888:	3714      	adds	r7, #20
 800488a:	46bd      	mov	sp, r7
 800488c:	f85d 7b04 	ldr.w	r7, [sp], #4
 8004890:	4770      	bx	lr
 8004892:	bf00      	nop
 8004894:	20000134 	.word	0x20000134

08004898 <prvSampleTimeNow>:
/*-----------------------------------------------------------*/

    static TickType_t prvSampleTimeNow( BaseType_t * const pxTimerListsWereSwitched )
    {
 8004898:	b580      	push	{r7, lr}
 800489a:	b084      	sub	sp, #16
 800489c:	af00      	add	r7, sp, #0
 800489e:	6078      	str	r0, [r7, #4]
        TickType_t xTimeNow;
        PRIVILEGED_DATA static TickType_t xLastTime = ( TickType_t ) 0U;

        xTimeNow = xTaskGetTickCount();
 80048a0:	f7fe f970 	bl	8002b84 <xTaskGetTickCount>
 80048a4:	60f8      	str	r0, [r7, #12]

        if( xTimeNow < xLastTime )
 80048a6:	4b0b      	ldr	r3, [pc, #44]	@ (80048d4 <prvSampleTimeNow+0x3c>)
 80048a8:	681b      	ldr	r3, [r3, #0]
 80048aa:	68fa      	ldr	r2, [r7, #12]
 80048ac:	429a      	cmp	r2, r3
 80048ae:	d205      	bcs.n	80048bc <prvSampleTimeNow+0x24>
        {
            prvSwitchTimerLists();
 80048b0:	f000 f90c 	bl	8004acc <prvSwitchTimerLists>
            *pxTimerListsWereSwitched = pdTRUE;
 80048b4:	687b      	ldr	r3, [r7, #4]
 80048b6:	2201      	movs	r2, #1
 80048b8:	601a      	str	r2, [r3, #0]
 80048ba:	e002      	b.n	80048c2 <prvSampleTimeNow+0x2a>
        }
        else
        {
            *pxTimerListsWereSwitched = pdFALSE;
 80048bc:	687b      	ldr	r3, [r7, #4]
 80048be:	2200      	movs	r2, #0
 80048c0:	601a      	str	r2, [r3, #0]
        }

        xLastTime = xTimeNow;
 80048c2:	4a04      	ldr	r2, [pc, #16]	@ (80048d4 <prvSampleTimeNow+0x3c>)
 80048c4:	68fb      	ldr	r3, [r7, #12]
 80048c6:	6013      	str	r3, [r2, #0]

        return xTimeNow;
 80048c8:	68fb      	ldr	r3, [r7, #12]
    }
 80048ca:	4618      	mov	r0, r3
 80048cc:	3710      	adds	r7, #16
 80048ce:	46bd      	mov	sp, r7
 80048d0:	bd80      	pop	{r7, pc}
 80048d2:	bf00      	nop
 80048d4:	20000144 	.word	0x20000144

080048d8 <prvInsertTimerInActiveList>:

    static BaseType_t prvInsertTimerInActiveList( Timer_t * const pxTimer,
                                                  const TickType_t xNextExpiryTime,
                                                  const TickType_t xTimeNow,
                                                  const TickType_t xCommandTime )
    {
 80048d8:	b580      	push	{r7, lr}
 80048da:	b086      	sub	sp, #24
 80048dc:	af00      	add	r7, sp, #0
 80048de:	60f8      	str	r0, [r7, #12]
 80048e0:	60b9      	str	r1, [r7, #8]
 80048e2:	607a      	str	r2, [r7, #4]
 80048e4:	603b      	str	r3, [r7, #0]
        BaseType_t xProcessTimerNow = pdFALSE;
 80048e6:	2300      	movs	r3, #0
 80048e8:	617b      	str	r3, [r7, #20]

        listSET_LIST_ITEM_VALUE( &( pxTimer->xTimerListItem ), xNextExpiryTime );
 80048ea:	68fb      	ldr	r3, [r7, #12]
 80048ec:	68ba      	ldr	r2, [r7, #8]
 80048ee:	605a      	str	r2, [r3, #4]
        listSET_LIST_ITEM_OWNER( &( pxTimer->xTimerListItem ), pxTimer );
 80048f0:	68fb      	ldr	r3, [r7, #12]
 80048f2:	68fa      	ldr	r2, [r7, #12]
 80048f4:	611a      	str	r2, [r3, #16]

        if( xNextExpiryTime <= xTimeNow )
 80048f6:	68ba      	ldr	r2, [r7, #8]
 80048f8:	687b      	ldr	r3, [r7, #4]
 80048fa:	429a      	cmp	r2, r3
 80048fc:	d812      	bhi.n	8004924 <prvInsertTimerInActiveList+0x4c>
        {
            /* Has the expiry time elapsed between the command to start/reset a
             * timer was issued, and the time the command was processed? */
            if( ( ( TickType_t ) ( xTimeNow - xCommandTime ) ) >= pxTimer->xTimerPeriodInTicks )
 80048fe:	687a      	ldr	r2, [r7, #4]
 8004900:	683b      	ldr	r3, [r7, #0]
 8004902:	1ad2      	subs	r2, r2, r3
 8004904:	68fb      	ldr	r3, [r7, #12]
 8004906:	699b      	ldr	r3, [r3, #24]
 8004908:	429a      	cmp	r2, r3
 800490a:	d302      	bcc.n	8004912 <prvInsertTimerInActiveList+0x3a>
            {
                /* The time between a command being issued and the command being
                 * processed actually exceeds the timers period.  */
                xProcessTimerNow = pdTRUE;
 800490c:	2301      	movs	r3, #1
 800490e:	617b      	str	r3, [r7, #20]
 8004910:	e01b      	b.n	800494a <prvInsertTimerInActiveList+0x72>
            }
            else
            {
                vListInsert( pxOverflowTimerList, &( pxTimer->xTimerListItem ) );
 8004912:	4b10      	ldr	r3, [pc, #64]	@ (8004954 <prvInsertTimerInActiveList+0x7c>)
 8004914:	681a      	ldr	r2, [r3, #0]
 8004916:	68fb      	ldr	r3, [r7, #12]
 8004918:	3304      	adds	r3, #4
 800491a:	4619      	mov	r1, r3
 800491c:	4610      	mov	r0, r2
 800491e:	f7fb febc 	bl	800069a <vListInsert>
 8004922:	e012      	b.n	800494a <prvInsertTimerInActiveList+0x72>
            }
        }
        else
        {
            if( ( xTimeNow < xCommandTime ) && ( xNextExpiryTime >= xCommandTime ) )
 8004924:	687a      	ldr	r2, [r7, #4]
 8004926:	683b      	ldr	r3, [r7, #0]
 8004928:	429a      	cmp	r2, r3
 800492a:	d206      	bcs.n	800493a <prvInsertTimerInActiveList+0x62>
 800492c:	68ba      	ldr	r2, [r7, #8]
 800492e:	683b      	ldr	r3, [r7, #0]
 8004930:	429a      	cmp	r2, r3
 8004932:	d302      	bcc.n	800493a <prvInsertTimerInActiveList+0x62>
            {
                /* If, since the command was issued, the tick count has overflowed
                 * but the expiry time has not, then the timer must have already passed
                 * its expiry time and should be processed immediately. */
                xProcessTimerNow = pdTRUE;
 8004934:	2301      	movs	r3, #1
 8004936:	617b      	str	r3, [r7, #20]
 8004938:	e007      	b.n	800494a <prvInsertTimerInActiveList+0x72>
            }
            else
            {
                vListInsert( pxCurrentTimerList, &( pxTimer->xTimerListItem ) );
 800493a:	4b07      	ldr	r3, [pc, #28]	@ (8004958 <prvInsertTimerInActiveList+0x80>)
 800493c:	681a      	ldr	r2, [r3, #0]
 800493e:	68fb      	ldr	r3, [r7, #12]
 8004940:	3304      	adds	r3, #4
 8004942:	4619      	mov	r1, r3
 8004944:	4610      	mov	r0, r2
 8004946:	f7fb fea8 	bl	800069a <vListInsert>
            }
        }

        return xProcessTimerNow;
 800494a:	697b      	ldr	r3, [r7, #20]
    }
 800494c:	4618      	mov	r0, r3
 800494e:	3718      	adds	r7, #24
 8004950:	46bd      	mov	sp, r7
 8004952:	bd80      	pop	{r7, pc}
 8004954:	20000138 	.word	0x20000138
 8004958:	20000134 	.word	0x20000134

0800495c <prvProcessReceivedCommands>:
/*-----------------------------------------------------------*/

    static void prvProcessReceivedCommands( void )
    {
 800495c:	b580      	push	{r7, lr}
 800495e:	b086      	sub	sp, #24
 8004960:	af00      	add	r7, sp, #0
        DaemonTaskMessage_t xMessage = { 0 };
 8004962:	1d3b      	adds	r3, r7, #4
 8004964:	2200      	movs	r2, #0
 8004966:	601a      	str	r2, [r3, #0]
 8004968:	605a      	str	r2, [r3, #4]
 800496a:	609a      	str	r2, [r3, #8]
        Timer_t * pxTimer;
        BaseType_t xTimerListsWereSwitched;
        TickType_t xTimeNow;

        while( xQueueReceive( xTimerQueue, &xMessage, tmrNO_DELAY ) != pdFAIL )
 800496c:	e09c      	b.n	8004aa8 <prvProcessReceivedCommands+0x14c>
            }
            #endif /* INCLUDE_xTimerPendFunctionCall */

            /* Commands that are positive are timer commands rather than pended
             * function calls. */
            if( xMessage.xMessageID >= ( BaseType_t ) 0 )
 800496e:	687b      	ldr	r3, [r7, #4]
 8004970:	2b00      	cmp	r3, #0
 8004972:	f2c0 8099 	blt.w	8004aa8 <prvProcessReceivedCommands+0x14c>
            {
                /* The messages uses the xTimerParameters member to work on a
                 * software timer. */
                pxTimer = xMessage.u.xTimerParameters.pxTimer;
 8004976:	68fb      	ldr	r3, [r7, #12]
 8004978:	617b      	str	r3, [r7, #20]

                if( pxTimer != NULL )
 800497a:	697b      	ldr	r3, [r7, #20]
 800497c:	2b00      	cmp	r3, #0
 800497e:	f000 8093 	beq.w	8004aa8 <prvProcessReceivedCommands+0x14c>
                {
                    if( listIS_CONTAINED_WITHIN( NULL, &( pxTimer->xTimerListItem ) ) == pdFALSE )
 8004982:	697b      	ldr	r3, [r7, #20]
 8004984:	695b      	ldr	r3, [r3, #20]
 8004986:	2b00      	cmp	r3, #0
 8004988:	d004      	beq.n	8004994 <prvProcessReceivedCommands+0x38>
                    {
                        /* The timer is in a list, remove it. */
                        ( void ) uxListRemove( &( pxTimer->xTimerListItem ) );
 800498a:	697b      	ldr	r3, [r7, #20]
 800498c:	3304      	adds	r3, #4
 800498e:	4618      	mov	r0, r3
 8004990:	f7fb febc 	bl	800070c <uxListRemove>
                     *  it must be present in the function call.  prvSampleTimeNow() must be
                     *  called after the message is received from xTimerQueue so there is no
                     *  possibility of a higher priority task adding a message to the message
                     *  queue with a time that is ahead of the timer daemon task (because it
                     *  pre-empted the timer daemon task after the xTimeNow value was set). */
                    xTimeNow = prvSampleTimeNow( &xTimerListsWereSwitched );
 8004994:	463b      	mov	r3, r7
 8004996:	4618      	mov	r0, r3
 8004998:	f7ff ff7e 	bl	8004898 <prvSampleTimeNow>
 800499c:	6138      	str	r0, [r7, #16]

                    switch( xMessage.xMessageID )
 800499e:	687b      	ldr	r3, [r7, #4]
 80049a0:	3b01      	subs	r3, #1
 80049a2:	2b08      	cmp	r3, #8
 80049a4:	d87d      	bhi.n	8004aa2 <prvProcessReceivedCommands+0x146>
 80049a6:	a201      	add	r2, pc, #4	@ (adr r2, 80049ac <prvProcessReceivedCommands+0x50>)
 80049a8:	f852 f023 	ldr.w	pc, [r2, r3, lsl #2]
 80049ac:	080049d1 	.word	0x080049d1
 80049b0:	080049d1 	.word	0x080049d1
 80049b4:	08004a39 	.word	0x08004a39
 80049b8:	08004a4d 	.word	0x08004a4d
 80049bc:	08004a79 	.word	0x08004a79
 80049c0:	080049d1 	.word	0x080049d1
 80049c4:	080049d1 	.word	0x080049d1
 80049c8:	08004a39 	.word	0x08004a39
 80049cc:	08004a4d 	.word	0x08004a4d
                        case tmrCOMMAND_START:
                        case tmrCOMMAND_START_FROM_ISR:
                        case tmrCOMMAND_RESET:
                        case tmrCOMMAND_RESET_FROM_ISR:
                            /* Start or restart a timer. */
                            pxTimer->ucStatus |= ( uint8_t ) tmrSTATUS_IS_ACTIVE;
 80049d0:	697b      	ldr	r3, [r7, #20]
 80049d2:	f893 3024 	ldrb.w	r3, [r3, #36]	@ 0x24
 80049d6:	f043 0301 	orr.w	r3, r3, #1
 80049da:	b2da      	uxtb	r2, r3
 80049dc:	697b      	ldr	r3, [r7, #20]
 80049de:	f883 2024 	strb.w	r2, [r3, #36]	@ 0x24

                            if( prvInsertTimerInActiveList( pxTimer, xMessage.u.xTimerParameters.xMessageValue + pxTimer->xTimerPeriodInTicks, xTimeNow, xMessage.u.xTimerParameters.xMessageValue ) != pdFALSE )
 80049e2:	68ba      	ldr	r2, [r7, #8]
 80049e4:	697b      	ldr	r3, [r7, #20]
 80049e6:	699b      	ldr	r3, [r3, #24]
 80049e8:	18d1      	adds	r1, r2, r3
 80049ea:	68bb      	ldr	r3, [r7, #8]
 80049ec:	693a      	ldr	r2, [r7, #16]
 80049ee:	6978      	ldr	r0, [r7, #20]
 80049f0:	f7ff ff72 	bl	80048d8 <prvInsertTimerInActiveList>
 80049f4:	4603      	mov	r3, r0
 80049f6:	2b00      	cmp	r3, #0
 80049f8:	d055      	beq.n	8004aa6 <prvProcessReceivedCommands+0x14a>
                            {
                                /* The timer expired before it was added to the active
                                 * timer list.  Process it now. */
                                if( ( pxTimer->ucStatus & tmrSTATUS_IS_AUTORELOAD ) != 0U )
 80049fa:	697b      	ldr	r3, [r7, #20]
 80049fc:	f893 3024 	ldrb.w	r3, [r3, #36]	@ 0x24
 8004a00:	f003 0304 	and.w	r3, r3, #4
 8004a04:	2b00      	cmp	r3, #0
 8004a06:	d009      	beq.n	8004a1c <prvProcessReceivedCommands+0xc0>
                                {
                                    prvReloadTimer( pxTimer, xMessage.u.xTimerParameters.xMessageValue + pxTimer->xTimerPeriodInTicks, xTimeNow );
 8004a08:	68ba      	ldr	r2, [r7, #8]
 8004a0a:	697b      	ldr	r3, [r7, #20]
 8004a0c:	699b      	ldr	r3, [r3, #24]
 8004a0e:	4413      	add	r3, r2
 8004a10:	693a      	ldr	r2, [r7, #16]
 8004a12:	4619      	mov	r1, r3
 8004a14:	6978      	ldr	r0, [r7, #20]
 8004a16:	f7ff fe6b 	bl	80046f0 <prvReloadTimer>
 8004a1a:	e008      	b.n	8004a2e <prvProcessReceivedCommands+0xd2>
                                }
                                else
                                {
                                    pxTimer->ucStatus &= ( ( uint8_t ) ~tmrSTATUS_IS_ACTIVE );
 8004a1c:	697b      	ldr	r3, [r7, #20]
 8004a1e:	f893 3024 	ldrb.w	r3, [r3, #36]	@ 0x24
 8004a22:	f023 0301 	bic.w	r3, r3, #1
 8004a26:	b2da      	uxtb	r2, r3
 8004a28:	697b      	ldr	r3, [r7, #20]
 8004a2a:	f883 2024 	strb.w	r2, [r3, #36]	@ 0x24
                                }

                                /* Call the timer callback. */
                                traceTIMER_EXPIRED( pxTimer );
                                pxTimer->pxCallbackFunction( ( TimerHandle_t ) pxTimer );
 8004a2e:	697b      	ldr	r3, [r7, #20]
 8004a30:	6a1b      	ldr	r3, [r3, #32]
 8004a32:	6978      	ldr	r0, [r7, #20]
 8004a34:	4798      	blx	r3
                            else
                            {
                                mtCOVERAGE_TEST_MARKER();
                            }

                            break;
 8004a36:	e036      	b.n	8004aa6 <prvProcessReceivedCommands+0x14a>

                        case tmrCOMMAND_STOP:
                        case tmrCOMMAND_STOP_FROM_ISR:
                            /* The timer has already been removed from the active list. */
                            pxTimer->ucStatus &= ( ( uint8_t ) ~tmrSTATUS_IS_ACTIVE );
 8004a38:	697b      	ldr	r3, [r7, #20]
 8004a3a:	f893 3024 	ldrb.w	r3, [r3, #36]	@ 0x24
 8004a3e:	f023 0301 	bic.w	r3, r3, #1
 8004a42:	b2da      	uxtb	r2, r3
 8004a44:	697b      	ldr	r3, [r7, #20]
 8004a46:	f883 2024 	strb.w	r2, [r3, #36]	@ 0x24
                            break;
 8004a4a:	e02d      	b.n	8004aa8 <prvProcessReceivedCommands+0x14c>

                        case tmrCOMMAND_CHANGE_PERIOD:
                        case tmrCOMMAND_CHANGE_PERIOD_FROM_ISR:
                            pxTimer->ucStatus |= ( uint8_t ) tmrSTATUS_IS_ACTIVE;
 8004a4c:	697b      	ldr	r3, [r7, #20]
 8004a4e:	f893 3024 	ldrb.w	r3, [r3, #36]	@ 0x24
 8004a52:	f043 0301 	orr.w	r3, r3, #1
 8004a56:	b2da      	uxtb	r2, r3
 8004a58:	697b      	ldr	r3, [r7, #20]
 8004a5a:	f883 2024 	strb.w	r2, [r3, #36]	@ 0x24
                            pxTimer->xTimerPeriodInTicks = xMessage.u.xTimerParameters.xMessageValue;
 8004a5e:	68ba      	ldr	r2, [r7, #8]
 8004a60:	697b      	ldr	r3, [r7, #20]
 8004a62:	619a      	str	r2, [r3, #24]
                             * be longer or shorter than the old one.  The command time is
                             * therefore set to the current time, and as the period cannot
                             * be zero the next expiry time can only be in the future,
                             * meaning (unlike for the xTimerStart() case above) there is
                             * no fail case that needs to be handled here. */
                            ( void ) prvInsertTimerInActiveList( pxTimer, ( xTimeNow + pxTimer->xTimerPeriodInTicks ), xTimeNow, xTimeNow );
 8004a64:	697b      	ldr	r3, [r7, #20]
 8004a66:	699a      	ldr	r2, [r3, #24]
 8004a68:	693b      	ldr	r3, [r7, #16]
 8004a6a:	18d1      	adds	r1, r2, r3
 8004a6c:	693b      	ldr	r3, [r7, #16]
 8004a6e:	693a      	ldr	r2, [r7, #16]
 8004a70:	6978      	ldr	r0, [r7, #20]
 8004a72:	f7ff ff31 	bl	80048d8 <prvInsertTimerInActiveList>
                            break;
 8004a76:	e017      	b.n	8004aa8 <prvProcessReceivedCommands+0x14c>
                            #if ( configSUPPORT_DYNAMIC_ALLOCATION == 1 )
                            {
                                /* The timer has already been removed from the active list,
                                 * just free up the memory if the memory was dynamically
                                 * allocated. */
                                if( ( pxTimer->ucStatus & tmrSTATUS_IS_STATICALLY_ALLOCATED ) == ( uint8_t ) 0 )
 8004a78:	697b      	ldr	r3, [r7, #20]
 8004a7a:	f893 3024 	ldrb.w	r3, [r3, #36]	@ 0x24
 8004a7e:	f003 0302 	and.w	r3, r3, #2
 8004a82:	2b00      	cmp	r3, #0
 8004a84:	d103      	bne.n	8004a8e <prvProcessReceivedCommands+0x132>
                                {
                                    vPortFree( pxTimer );
 8004a86:	6978      	ldr	r0, [r7, #20]
 8004a88:	f000 fad8 	bl	800503c <vPortFree>
                                 * no need to free the memory - just mark the timer as
                                 * "not active". */
                                pxTimer->ucStatus &= ( ( uint8_t ) ~tmrSTATUS_IS_ACTIVE );
                            }
                            #endif /* configSUPPORT_DYNAMIC_ALLOCATION */
                            break;
 8004a8c:	e00c      	b.n	8004aa8 <prvProcessReceivedCommands+0x14c>
                                    pxTimer->ucStatus &= ( ( uint8_t ) ~tmrSTATUS_IS_ACTIVE );
 8004a8e:	697b      	ldr	r3, [r7, #20]
 8004a90:	f893 3024 	ldrb.w	r3, [r3, #36]	@ 0x24
 8004a94:	f023 0301 	bic.w	r3, r3, #1
 8004a98:	b2da      	uxtb	r2, r3
 8004a9a:	697b      	ldr	r3, [r7, #20]
 8004a9c:	f883 2024 	strb.w	r2, [r3, #36]	@ 0x24
                            break;
 8004aa0:	e002      	b.n	8004aa8 <prvProcessReceivedCommands+0x14c>

                        default:
                            /* Don't expect to get here. */
                            break;
 8004aa2:	bf00      	nop
 8004aa4:	e000      	b.n	8004aa8 <prvProcessReceivedCommands+0x14c>
                            break;
 8004aa6:	bf00      	nop
        while( xQueueReceive( xTimerQueue, &xMessage, tmrNO_DELAY ) != pdFAIL )
 8004aa8:	4b07      	ldr	r3, [pc, #28]	@ (8004ac8 <prvProcessReceivedCommands+0x16c>)
 8004aaa:	681b      	ldr	r3, [r3, #0]
 8004aac:	1d39      	adds	r1, r7, #4
 8004aae:	2200      	movs	r2, #0
 8004ab0:	4618      	mov	r0, r3
 8004ab2:	f7fc f932 	bl	8000d1a <xQueueReceive>
 8004ab6:	4603      	mov	r3, r0
 8004ab8:	2b00      	cmp	r3, #0
 8004aba:	f47f af58 	bne.w	800496e <prvProcessReceivedCommands+0x12>
                {
                    mtCOVERAGE_TEST_MARKER();
                }
            }
        }
    }
 8004abe:	bf00      	nop
 8004ac0:	bf00      	nop
 8004ac2:	3718      	adds	r7, #24
 8004ac4:	46bd      	mov	sp, r7
 8004ac6:	bd80      	pop	{r7, pc}
 8004ac8:	2000013c 	.word	0x2000013c

08004acc <prvSwitchTimerLists>:
/*-----------------------------------------------------------*/

    static void prvSwitchTimerLists( void )
    {
 8004acc:	b580      	push	{r7, lr}
 8004ace:	b082      	sub	sp, #8
 8004ad0:	af00      	add	r7, sp, #0

        /* The tick count has overflowed.  The timer lists must be switched.
         * If there are any timers still referenced from the current timer list
         * then they must have expired and should be processed before the lists
         * are switched. */
        while( listLIST_IS_EMPTY( pxCurrentTimerList ) == pdFALSE )
 8004ad2:	e009      	b.n	8004ae8 <prvSwitchTimerLists+0x1c>
        {
            xNextExpireTime = listGET_ITEM_VALUE_OF_HEAD_ENTRY( pxCurrentTimerList );
 8004ad4:	4b0e      	ldr	r3, [pc, #56]	@ (8004b10 <prvSwitchTimerLists+0x44>)
 8004ad6:	681b      	ldr	r3, [r3, #0]
 8004ad8:	68db      	ldr	r3, [r3, #12]
 8004ada:	681b      	ldr	r3, [r3, #0]
 8004adc:	603b      	str	r3, [r7, #0]

            /* Process the expired timer.  For auto-reload timers, be careful to
             * process only expirations that occur on the current list.  Further
             * expirations must wait until after the lists are switched. */
            prvProcessExpiredTimer( xNextExpireTime, tmrMAX_TIME_BEFORE_OVERFLOW );
 8004ade:	f04f 31ff 	mov.w	r1, #4294967295
 8004ae2:	6838      	ldr	r0, [r7, #0]
 8004ae4:	f7ff fe25 	bl	8004732 <prvProcessExpiredTimer>
        while( listLIST_IS_EMPTY( pxCurrentTimerList ) == pdFALSE )
 8004ae8:	4b09      	ldr	r3, [pc, #36]	@ (8004b10 <prvSwitchTimerLists+0x44>)
 8004aea:	681b      	ldr	r3, [r3, #0]
 8004aec:	681b      	ldr	r3, [r3, #0]
 8004aee:	2b00      	cmp	r3, #0
 8004af0:	d1f0      	bne.n	8004ad4 <prvSwitchTimerLists+0x8>
        }

        pxTemp = pxCurrentTimerList;
 8004af2:	4b07      	ldr	r3, [pc, #28]	@ (8004b10 <prvSwitchTimerLists+0x44>)
 8004af4:	681b      	ldr	r3, [r3, #0]
 8004af6:	607b      	str	r3, [r7, #4]
        pxCurrentTimerList = pxOverflowTimerList;
 8004af8:	4b06      	ldr	r3, [pc, #24]	@ (8004b14 <prvSwitchTimerLists+0x48>)
 8004afa:	681b      	ldr	r3, [r3, #0]
 8004afc:	4a04      	ldr	r2, [pc, #16]	@ (8004b10 <prvSwitchTimerLists+0x44>)
 8004afe:	6013      	str	r3, [r2, #0]
        pxOverflowTimerList = pxTemp;
 8004b00:	4a04      	ldr	r2, [pc, #16]	@ (8004b14 <prvSwitchTimerLists+0x48>)
 8004b02:	687b      	ldr	r3, [r7, #4]
 8004b04:	6013      	str	r3, [r2, #0]
    }
 8004b06:	bf00      	nop
 8004b08:	3708      	adds	r7, #8
 8004b0a:	46bd      	mov	sp, r7
 8004b0c:	bd80      	pop	{r7, pc}
 8004b0e:	bf00      	nop
 8004b10:	20000134 	.word	0x20000134
 8004b14:	20000138 	.word	0x20000138

08004b18 <prvCheckForValidListAndQueue>:
/*-----------------------------------------------------------*/

    static void prvCheckForValidListAndQueue( void )
    {
 8004b18:	b580      	push	{r7, lr}
 8004b1a:	af00      	add	r7, sp, #0
        /* Check that the list from which active timers are referenced, and the
         * queue used to communicate with the timer service, have been
         * initialised. */
        taskENTER_CRITICAL();
 8004b1c:	f000 f927 	bl	8004d6e <vPortEnterCritical>
        {
            if( xTimerQueue == NULL )
 8004b20:	4b0d      	ldr	r3, [pc, #52]	@ (8004b58 <prvCheckForValidListAndQueue+0x40>)
 8004b22:	681b      	ldr	r3, [r3, #0]
 8004b24:	2b00      	cmp	r3, #0
 8004b26:	d113      	bne.n	8004b50 <prvCheckForValidListAndQueue+0x38>
            {
                vListInitialise( &xActiveTimerList1 );
 8004b28:	480c      	ldr	r0, [pc, #48]	@ (8004b5c <prvCheckForValidListAndQueue+0x44>)
 8004b2a:	f7fb fd65 	bl	80005f8 <vListInitialise>
                vListInitialise( &xActiveTimerList2 );
 8004b2e:	480c      	ldr	r0, [pc, #48]	@ (8004b60 <prvCheckForValidListAndQueue+0x48>)
 8004b30:	f7fb fd62 	bl	80005f8 <vListInitialise>
                pxCurrentTimerList = &xActiveTimerList1;
 8004b34:	4b0b      	ldr	r3, [pc, #44]	@ (8004b64 <prvCheckForValidListAndQueue+0x4c>)
 8004b36:	4a09      	ldr	r2, [pc, #36]	@ (8004b5c <prvCheckForValidListAndQueue+0x44>)
 8004b38:	601a      	str	r2, [r3, #0]
                pxOverflowTimerList = &xActiveTimerList2;
 8004b3a:	4b0b      	ldr	r3, [pc, #44]	@ (8004b68 <prvCheckForValidListAndQueue+0x50>)
 8004b3c:	4a08      	ldr	r2, [pc, #32]	@ (8004b60 <prvCheckForValidListAndQueue+0x48>)
 8004b3e:	601a      	str	r2, [r3, #0]

                    xTimerQueue = xQueueCreateStatic( ( UBaseType_t ) configTIMER_QUEUE_LENGTH, ( UBaseType_t ) sizeof( DaemonTaskMessage_t ), &( ucStaticTimerQueueStorage[ 0 ] ), &xStaticTimerQueue );
                }
                #else
                {
                    xTimerQueue = xQueueCreate( ( UBaseType_t ) configTIMER_QUEUE_LENGTH, ( UBaseType_t ) sizeof( DaemonTaskMessage_t ) );
 8004b40:	2200      	movs	r2, #0
 8004b42:	210c      	movs	r1, #12
 8004b44:	2005      	movs	r0, #5
 8004b46:	f7fb fe7f 	bl	8000848 <xQueueGenericCreate>
 8004b4a:	4603      	mov	r3, r0
 8004b4c:	4a02      	ldr	r2, [pc, #8]	@ (8004b58 <prvCheckForValidListAndQueue+0x40>)
 8004b4e:	6013      	str	r3, [r2, #0]
            else
            {
                mtCOVERAGE_TEST_MARKER();
            }
        }
        taskEXIT_CRITICAL();
 8004b50:	f000 f928 	bl	8004da4 <vPortExitCritical>
    }
 8004b54:	bf00      	nop
 8004b56:	bd80      	pop	{r7, pc}
 8004b58:	2000013c 	.word	0x2000013c
 8004b5c:	2000010c 	.word	0x2000010c
 8004b60:	20000120 	.word	0x20000120
 8004b64:	20000134 	.word	0x20000134
 8004b68:	20000138 	.word	0x20000138

08004b6c <xTimerIsTimerActive>:
/*-----------------------------------------------------------*/

    BaseType_t xTimerIsTimerActive( TimerHandle_t xTimer )
    {
 8004b6c:	b580      	push	{r7, lr}
 8004b6e:	b084      	sub	sp, #16
 8004b70:	af00      	add	r7, sp, #0
 8004b72:	6078      	str	r0, [r7, #4]
        BaseType_t xReturn;
        Timer_t * pxTimer = xTimer;
 8004b74:	687b      	ldr	r3, [r7, #4]
 8004b76:	60bb      	str	r3, [r7, #8]
        traceENTER_xTimerIsTimerActive( xTimer );

        configASSERT( xTimer );

        /* Is the timer in the list of active timers? */
        portBASE_TYPE_ENTER_CRITICAL();
 8004b78:	f000 f8f9 	bl	8004d6e <vPortEnterCritical>
        {
            if( ( pxTimer->ucStatus & tmrSTATUS_IS_ACTIVE ) == 0U )
 8004b7c:	68bb      	ldr	r3, [r7, #8]
 8004b7e:	f893 3024 	ldrb.w	r3, [r3, #36]	@ 0x24
 8004b82:	f003 0301 	and.w	r3, r3, #1
 8004b86:	2b00      	cmp	r3, #0
 8004b88:	d102      	bne.n	8004b90 <xTimerIsTimerActive+0x24>
            {
                xReturn = pdFALSE;
 8004b8a:	2300      	movs	r3, #0
 8004b8c:	60fb      	str	r3, [r7, #12]
 8004b8e:	e001      	b.n	8004b94 <xTimerIsTimerActive+0x28>
            }
            else
            {
                xReturn = pdTRUE;
 8004b90:	2301      	movs	r3, #1
 8004b92:	60fb      	str	r3, [r7, #12]
            }
        }
        portBASE_TYPE_EXIT_CRITICAL();
 8004b94:	f000 f906 	bl	8004da4 <vPortExitCritical>

        traceRETURN_xTimerIsTimerActive( xReturn );

        return xReturn;
 8004b98:	68fb      	ldr	r3, [r7, #12]
    }
 8004b9a:	4618      	mov	r0, r3
 8004b9c:	3710      	adds	r7, #16
 8004b9e:	46bd      	mov	sp, r7
 8004ba0:	bd80      	pop	{r7, pc}

08004ba2 <pvTimerGetTimerID>:
/*-----------------------------------------------------------*/

    void * pvTimerGetTimerID( const TimerHandle_t xTimer )
    {
 8004ba2:	b580      	push	{r7, lr}
 8004ba4:	b084      	sub	sp, #16
 8004ba6:	af00      	add	r7, sp, #0
 8004ba8:	6078      	str	r0, [r7, #4]
        Timer_t * const pxTimer = xTimer;
 8004baa:	687b      	ldr	r3, [r7, #4]
 8004bac:	60fb      	str	r3, [r7, #12]

        traceENTER_pvTimerGetTimerID( xTimer );

        configASSERT( xTimer );

        taskENTER_CRITICAL();
 8004bae:	f000 f8de 	bl	8004d6e <vPortEnterCritical>
        {
            pvReturn = pxTimer->pvTimerID;
 8004bb2:	68fb      	ldr	r3, [r7, #12]
 8004bb4:	69db      	ldr	r3, [r3, #28]
 8004bb6:	60bb      	str	r3, [r7, #8]
        }
        taskEXIT_CRITICAL();
 8004bb8:	f000 f8f4 	bl	8004da4 <vPortExitCritical>

        traceRETURN_pvTimerGetTimerID( pvReturn );

        return pvReturn;
 8004bbc:	68bb      	ldr	r3, [r7, #8]
    }
 8004bbe:	4618      	mov	r0, r3
 8004bc0:	3710      	adds	r7, #16
 8004bc2:	46bd      	mov	sp, r7
 8004bc4:	bd80      	pop	{r7, pc}

08004bc6 <vTimerSetTimerID>:
/*-----------------------------------------------------------*/

    void vTimerSetTimerID( TimerHandle_t xTimer,
                           void * pvNewID )
    {
 8004bc6:	b580      	push	{r7, lr}
 8004bc8:	b084      	sub	sp, #16
 8004bca:	af00      	add	r7, sp, #0
 8004bcc:	6078      	str	r0, [r7, #4]
 8004bce:	6039      	str	r1, [r7, #0]
        Timer_t * const pxTimer = xTimer;
 8004bd0:	687b      	ldr	r3, [r7, #4]
 8004bd2:	60fb      	str	r3, [r7, #12]

        traceENTER_vTimerSetTimerID( xTimer, pvNewID );

        configASSERT( xTimer );

        taskENTER_CRITICAL();
 8004bd4:	f000 f8cb 	bl	8004d6e <vPortEnterCritical>
        {
            pxTimer->pvTimerID = pvNewID;
 8004bd8:	68fb      	ldr	r3, [r7, #12]
 8004bda:	683a      	ldr	r2, [r7, #0]
 8004bdc:	61da      	str	r2, [r3, #28]
        }
        taskEXIT_CRITICAL();
 8004bde:	f000 f8e1 	bl	8004da4 <vPortExitCritical>

        traceRETURN_vTimerSetTimerID();
    }
 8004be2:	bf00      	nop
 8004be4:	3710      	adds	r7, #16
 8004be6:	46bd      	mov	sp, r7
 8004be8:	bd80      	pop	{r7, pc}

08004bea <vTimerResetState>:
 * Reset the state in this file. This state is normally initialized at start up.
 * This function must be called by the application before restarting the
 * scheduler.
 */
    void vTimerResetState( void )
    {
 8004bea:	b480      	push	{r7}
 8004bec:	af00      	add	r7, sp, #0
        xTimerQueue = NULL;
 8004bee:	4b05      	ldr	r3, [pc, #20]	@ (8004c04 <vTimerResetState+0x1a>)
 8004bf0:	2200      	movs	r2, #0
 8004bf2:	601a      	str	r2, [r3, #0]
        xTimerTaskHandle = NULL;
 8004bf4:	4b04      	ldr	r3, [pc, #16]	@ (8004c08 <vTimerResetState+0x1e>)
 8004bf6:	2200      	movs	r2, #0
 8004bf8:	601a      	str	r2, [r3, #0]
    }
 8004bfa:	bf00      	nop
 8004bfc:	46bd      	mov	sp, r7
 8004bfe:	f85d 7b04 	ldr.w	r7, [sp], #4
 8004c02:	4770      	bx	lr
 8004c04:	2000013c 	.word	0x2000013c
 8004c08:	20000140 	.word	0x20000140

08004c0c <pxPortInitialiseStack>:
 * See header file for description.
 */
StackType_t * pxPortInitialiseStack( StackType_t * pxTopOfStack,
                                     TaskFunction_t pxCode,
                                     void * pvParameters )
{
 8004c0c:	b480      	push	{r7}
 8004c0e:	b085      	sub	sp, #20
 8004c10:	af00      	add	r7, sp, #0
 8004c12:	60f8      	str	r0, [r7, #12]
 8004c14:	60b9      	str	r1, [r7, #8]
 8004c16:	607a      	str	r2, [r7, #4]
    /* Simulate the stack frame as it would be created by a context switch
     * interrupt. */

    /* Offset added to account for the way the MCU uses the stack on entry/exit
     * of interrupts, and to ensure alignment. */
    pxTopOfStack--;
 8004c18:	68fb      	ldr	r3, [r7, #12]
 8004c1a:	3b04      	subs	r3, #4
 8004c1c:	60fb      	str	r3, [r7, #12]

    *pxTopOfStack = portINITIAL_XPSR;                                    /* xPSR */
 8004c1e:	68fb      	ldr	r3, [r7, #12]
 8004c20:	f04f 7280 	mov.w	r2, #16777216	@ 0x1000000
 8004c24:	601a      	str	r2, [r3, #0]
    pxTopOfStack--;
 8004c26:	68fb      	ldr	r3, [r7, #12]
 8004c28:	3b04      	subs	r3, #4
 8004c2a:	60fb      	str	r3, [r7, #12]
    *pxTopOfStack = ( ( StackType_t ) pxCode ) & portSTART_ADDRESS_MASK; /* PC */
 8004c2c:	68bb      	ldr	r3, [r7, #8]
 8004c2e:	f023 0201 	bic.w	r2, r3, #1
 8004c32:	68fb      	ldr	r3, [r7, #12]
 8004c34:	601a      	str	r2, [r3, #0]
    pxTopOfStack--;
 8004c36:	68fb      	ldr	r3, [r7, #12]
 8004c38:	3b04      	subs	r3, #4
 8004c3a:	60fb      	str	r3, [r7, #12]
    *pxTopOfStack = ( StackType_t ) portTASK_RETURN_ADDRESS;             /* LR */
 8004c3c:	4a0c      	ldr	r2, [pc, #48]	@ (8004c70 <pxPortInitialiseStack+0x64>)
 8004c3e:	68fb      	ldr	r3, [r7, #12]
 8004c40:	601a      	str	r2, [r3, #0]

    /* Save code space by skipping register initialisation. */
    pxTopOfStack -= 5;                            /* R12, R3, R2 and R1. */
 8004c42:	68fb      	ldr	r3, [r7, #12]
 8004c44:	3b14      	subs	r3, #20
 8004c46:	60fb      	str	r3, [r7, #12]
    *pxTopOfStack = ( StackType_t ) pvParameters; /* R0 */
 8004c48:	687a      	ldr	r2, [r7, #4]
 8004c4a:	68fb      	ldr	r3, [r7, #12]
 8004c4c:	601a      	str	r2, [r3, #0]

    /* A save method is being used that requires each task to maintain its
     * own exec return value. */
    pxTopOfStack--;
 8004c4e:	68fb      	ldr	r3, [r7, #12]
 8004c50:	3b04      	subs	r3, #4
 8004c52:	60fb      	str	r3, [r7, #12]
    *pxTopOfStack = portINITIAL_EXC_RETURN;
 8004c54:	68fb      	ldr	r3, [r7, #12]
 8004c56:	f06f 0202 	mvn.w	r2, #2
 8004c5a:	601a      	str	r2, [r3, #0]

    pxTopOfStack -= 8; /* R11, R10, R9, R8, R7, R6, R5 and R4. */
 8004c5c:	68fb      	ldr	r3, [r7, #12]
 8004c5e:	3b20      	subs	r3, #32
 8004c60:	60fb      	str	r3, [r7, #12]

    return pxTopOfStack;
 8004c62:	68fb      	ldr	r3, [r7, #12]
}
 8004c64:	4618      	mov	r0, r3
 8004c66:	3714      	adds	r7, #20
 8004c68:	46bd      	mov	sp, r7
 8004c6a:	f85d 7b04 	ldr.w	r7, [sp], #4
 8004c6e:	4770      	bx	lr
 8004c70:	08004c75 	.word	0x08004c75

08004c74 <prvTaskExitError>:
/*-----------------------------------------------------------*/

static void prvTaskExitError( void )
{
 8004c74:	b480      	push	{r7}
 8004c76:	b083      	sub	sp, #12
 8004c78:	af00      	add	r7, sp, #0
    volatile uint32_t ulDummy = 0;
 8004c7a:	2300      	movs	r3, #0
 8004c7c:	603b      	str	r3, [r7, #0]
    __asm volatile
 8004c7e:	f04f 0350 	mov.w	r3, #80	@ 0x50
 8004c82:	f383 8811 	msr	BASEPRI, r3
 8004c86:	f3bf 8f6f 	isb	sy
 8004c8a:	f3bf 8f4f 	dsb	sy
 8004c8e:	607b      	str	r3, [r7, #4]
}
 8004c90:	bf00      	nop
     * Artificially force an assert() to be triggered if configASSERT() is
     * defined, then stop here so application writers can catch the error. */
    configASSERT( uxCriticalNesting == ~0UL );
    portDISABLE_INTERRUPTS();

    while( ulDummy == 0 )
 8004c92:	bf00      	nop
 8004c94:	683b      	ldr	r3, [r7, #0]
 8004c96:	2b00      	cmp	r3, #0
 8004c98:	d0fc      	beq.n	8004c94 <prvTaskExitError+0x20>
         * about code appearing after this function is called - making ulDummy
         * volatile makes the compiler think the function could return and
         * therefore not output an 'unreachable code' warning for code that appears
         * after it. */
    }
}
 8004c9a:	bf00      	nop
 8004c9c:	bf00      	nop
 8004c9e:	370c      	adds	r7, #12
 8004ca0:	46bd      	mov	sp, r7
 8004ca2:	f85d 7b04 	ldr.w	r7, [sp], #4
 8004ca6:	4770      	bx	lr

08004ca8 <vPortSVCHandler>:
/*-----------------------------------------------------------*/

void vPortSVCHandler( void )
{
    __asm volatile (
 8004ca8:	4b06      	ldr	r3, [pc, #24]	@ (8004cc4 <vPortSVCHandler+0x1c>)
 8004caa:	6819      	ldr	r1, [r3, #0]
 8004cac:	6808      	ldr	r0, [r1, #0]
 8004cae:	e8b0 4ff0 	ldmia.w	r0!, {r4, r5, r6, r7, r8, r9, sl, fp, lr}
 8004cb2:	f380 8809 	msr	PSP, r0
 8004cb6:	f3bf 8f6f 	isb	sy
 8004cba:	f04f 0000 	mov.w	r0, #0
 8004cbe:	f380 8811 	msr	BASEPRI, r0
 8004cc2:	4770      	bx	lr
 8004cc4:	20000008 	.word	0x20000008
        "   msr basepri, r0                 \n"
        "   bx r14                          \n"
        "                                   \n"
        "   .ltorg                          \n"
        );
}
 8004cc8:	bf00      	nop

08004cca <prvPortStartFirstTask>:
{
    /* Start the first task.  This also clears the bit that indicates the FPU is
     * in use in case the FPU was used before the scheduler was started - which
     * would otherwise result in the unnecessary leaving of space in the SVC stack
     * for lazy saving of FPU registers. */
    __asm volatile (
 8004cca:	4808      	ldr	r0, [pc, #32]	@ (8004cec <prvPortStartFirstTask+0x22>)
 8004ccc:	6800      	ldr	r0, [r0, #0]
 8004cce:	6800      	ldr	r0, [r0, #0]
 8004cd0:	f380 8808 	msr	MSP, r0
 8004cd4:	f04f 0000 	mov.w	r0, #0
 8004cd8:	f380 8814 	msr	CONTROL, r0
 8004cdc:	b662      	cpsie	i
 8004cde:	b661      	cpsie	f
 8004ce0:	f3bf 8f4f 	dsb	sy
 8004ce4:	f3bf 8f6f 	isb	sy
 8004ce8:	df00      	svc	0
 8004cea:	bf00      	nop
 8004cec:	e000ed08 	.word	0xe000ed08
        " isb                   \n"
        " svc 0                 \n" /* System call to start first task. */
        " nop                   \n"
        " .ltorg                \n"
        );
}
 8004cf0:	bf00      	nop

08004cf2 <xPortStartScheduler>:

/*
 * See header file for description.
 */
BaseType_t xPortStartScheduler( void )
{
 8004cf2:	b580      	push	{r7, lr}
 8004cf4:	b082      	sub	sp, #8
 8004cf6:	af00      	add	r7, sp, #0
     * configCHECK_HANDLER_INSTALLATION to 0 in their FreeRTOSConfig.h. Direct
     * routing, which is validated here when configCHECK_HANDLER_INSTALLATION
     * is 1, should be preferred when possible. */
    #if ( configCHECK_HANDLER_INSTALLATION == 1 )
    {
        const portISR_t * const pxVectorTable = portSCB_VTOR_REG;
 8004cf8:	4b14      	ldr	r3, [pc, #80]	@ (8004d4c <xPortStartScheduler+0x5a>)
 8004cfa:	681b      	ldr	r3, [r3, #0]
 8004cfc:	607b      	str	r3, [r7, #4]
    }
    #endif /* configASSERT_DEFINED */

    /* Make PendSV and SysTick the lowest priority interrupts, and make SVCall
     * the highest priority. */
    portNVIC_SHPR3_REG |= portNVIC_PENDSV_PRI;
 8004cfe:	4b14      	ldr	r3, [pc, #80]	@ (8004d50 <xPortStartScheduler+0x5e>)
 8004d00:	681b      	ldr	r3, [r3, #0]
 8004d02:	4a13      	ldr	r2, [pc, #76]	@ (8004d50 <xPortStartScheduler+0x5e>)
 8004d04:	f443 037f 	orr.w	r3, r3, #16711680	@ 0xff0000
 8004d08:	6013      	str	r3, [r2, #0]
    portNVIC_SHPR3_REG |= portNVIC_SYSTICK_PRI;
 8004d0a:	4b11      	ldr	r3, [pc, #68]	@ (8004d50 <xPortStartScheduler+0x5e>)
 8004d0c:	681b      	ldr	r3, [r3, #0]
 8004d0e:	4a10      	ldr	r2, [pc, #64]	@ (8004d50 <xPortStartScheduler+0x5e>)
 8004d10:	f043 437f 	orr.w	r3, r3, #4278190080	@ 0xff000000
 8004d14:	6013      	str	r3, [r2, #0]
    portNVIC_SHPR2_REG = 0;
 8004d16:	4b0f      	ldr	r3, [pc, #60]	@ (8004d54 <xPortStartScheduler+0x62>)
 8004d18:	2200      	movs	r2, #0
 8004d1a:	601a      	str	r2, [r3, #0]

    /* Start the timer that generates the tick ISR.  Interrupts are disabled
     * here already. */
    vPortSetupTimerInterrupt();
 8004d1c:	f000 f8ae 	bl	8004e7c <vPortSetupTimerInterrupt>

    /* Initialise the critical nesting count ready for the first task. */
    uxCriticalNesting = 0;
 8004d20:	4b0d      	ldr	r3, [pc, #52]	@ (8004d58 <xPortStartScheduler+0x66>)
 8004d22:	2200      	movs	r2, #0
 8004d24:	601a      	str	r2, [r3, #0]

    /* Ensure the VFP is enabled - it should be anyway. */
    vPortEnableVFP();
 8004d26:	f000 f8c5 	bl	8004eb4 <vPortEnableVFP>

    /* Lazy save always. */
    *( portFPCCR ) |= portASPEN_AND_LSPEN_BITS;
 8004d2a:	4b0c      	ldr	r3, [pc, #48]	@ (8004d5c <xPortStartScheduler+0x6a>)
 8004d2c:	681b      	ldr	r3, [r3, #0]
 8004d2e:	4a0b      	ldr	r2, [pc, #44]	@ (8004d5c <xPortStartScheduler+0x6a>)
 8004d30:	f043 4340 	orr.w	r3, r3, #3221225472	@ 0xc0000000
 8004d34:	6013      	str	r3, [r2, #0]

    /* Start the first task. */
    prvPortStartFirstTask();
 8004d36:	f7ff ffc8 	bl	8004cca <prvPortStartFirstTask>
     * exit error function to prevent compiler warnings about a static function
     * not being called in the case that the application writer overrides this
     * functionality by defining configTASK_RETURN_ADDRESS.  Call
     * vTaskSwitchContext() so link time optimisation does not remove the
     * symbol. */
    vTaskSwitchContext();
 8004d3a:	f7fe f889 	bl	8002e50 <vTaskSwitchContext>
    prvTaskExitError();
 8004d3e:	f7ff ff99 	bl	8004c74 <prvTaskExitError>

    /* Should not get here! */
    return 0;
 8004d42:	2300      	movs	r3, #0
}
 8004d44:	4618      	mov	r0, r3
 8004d46:	3708      	adds	r7, #8
 8004d48:	46bd      	mov	sp, r7
 8004d4a:	bd80      	pop	{r7, pc}
 8004d4c:	e000ed08 	.word	0xe000ed08
 8004d50:	e000ed20 	.word	0xe000ed20
 8004d54:	e000ed1c 	.word	0xe000ed1c
 8004d58:	20000000 	.word	0x20000000
 8004d5c:	e000ef34 	.word	0xe000ef34

08004d60 <vPortEndScheduler>:
/*-----------------------------------------------------------*/

void vPortEndScheduler( void )
{
 8004d60:	b480      	push	{r7}
 8004d62:	af00      	add	r7, sp, #0
    /* Not implemented in ports where there is nothing to return to.
     * Artificially force an assert. */
    configASSERT( uxCriticalNesting == 1000UL );
}
 8004d64:	bf00      	nop
 8004d66:	46bd      	mov	sp, r7
 8004d68:	f85d 7b04 	ldr.w	r7, [sp], #4
 8004d6c:	4770      	bx	lr

08004d6e <vPortEnterCritical>:
/*-----------------------------------------------------------*/

void vPortEnterCritical( void )
{
 8004d6e:	b480      	push	{r7}
 8004d70:	b083      	sub	sp, #12
 8004d72:	af00      	add	r7, sp, #0
    __asm volatile
 8004d74:	f04f 0350 	mov.w	r3, #80	@ 0x50
 8004d78:	f383 8811 	msr	BASEPRI, r3
 8004d7c:	f3bf 8f6f 	isb	sy
 8004d80:	f3bf 8f4f 	dsb	sy
 8004d84:	607b      	str	r3, [r7, #4]
}
 8004d86:	bf00      	nop
    portDISABLE_INTERRUPTS();
    uxCriticalNesting++;
 8004d88:	4b05      	ldr	r3, [pc, #20]	@ (8004da0 <vPortEnterCritical+0x32>)
 8004d8a:	681b      	ldr	r3, [r3, #0]
 8004d8c:	3301      	adds	r3, #1
 8004d8e:	4a04      	ldr	r2, [pc, #16]	@ (8004da0 <vPortEnterCritical+0x32>)
 8004d90:	6013      	str	r3, [r2, #0]
     * assert function also uses a critical section. */
    if( uxCriticalNesting == 1 )
    {
        configASSERT( ( portNVIC_INT_CTRL_REG & portVECTACTIVE_MASK ) == 0 );
    }
}
 8004d92:	bf00      	nop
 8004d94:	370c      	adds	r7, #12
 8004d96:	46bd      	mov	sp, r7
 8004d98:	f85d 7b04 	ldr.w	r7, [sp], #4
 8004d9c:	4770      	bx	lr
 8004d9e:	bf00      	nop
 8004da0:	20000000 	.word	0x20000000

08004da4 <vPortExitCritical>:
/*-----------------------------------------------------------*/

void vPortExitCritical( void )
{
 8004da4:	b480      	push	{r7}
 8004da6:	b083      	sub	sp, #12
 8004da8:	af00      	add	r7, sp, #0
    configASSERT( uxCriticalNesting );
    uxCriticalNesting--;
 8004daa:	4b0a      	ldr	r3, [pc, #40]	@ (8004dd4 <vPortExitCritical+0x30>)
 8004dac:	681b      	ldr	r3, [r3, #0]
 8004dae:	3b01      	subs	r3, #1
 8004db0:	4a08      	ldr	r2, [pc, #32]	@ (8004dd4 <vPortExitCritical+0x30>)
 8004db2:	6013      	str	r3, [r2, #0]

    if( uxCriticalNesting == 0 )
 8004db4:	4b07      	ldr	r3, [pc, #28]	@ (8004dd4 <vPortExitCritical+0x30>)
 8004db6:	681b      	ldr	r3, [r3, #0]
 8004db8:	2b00      	cmp	r3, #0
 8004dba:	d105      	bne.n	8004dc8 <vPortExitCritical+0x24>
 8004dbc:	2300      	movs	r3, #0
 8004dbe:	607b      	str	r3, [r7, #4]
    __asm volatile
 8004dc0:	687b      	ldr	r3, [r7, #4]
 8004dc2:	f383 8811 	msr	BASEPRI, r3
}
 8004dc6:	bf00      	nop
    {
        portENABLE_INTERRUPTS();
    }
}
 8004dc8:	bf00      	nop
 8004dca:	370c      	adds	r7, #12
 8004dcc:	46bd      	mov	sp, r7
 8004dce:	f85d 7b04 	ldr.w	r7, [sp], #4
 8004dd2:	4770      	bx	lr
 8004dd4:	20000000 	.word	0x20000000

08004dd8 <xPortPendSVHandler>:

void xPortPendSVHandler( void )
{
    /* This is a naked function. */

    __asm volatile
 8004dd8:	f3ef 8009 	mrs	r0, PSP
 8004ddc:	f3bf 8f6f 	isb	sy
 8004de0:	4b13      	ldr	r3, [pc, #76]	@ (8004e30 <xPortPendSVHandler+0x58>)
 8004de2:	681a      	ldr	r2, [r3, #0]
 8004de4:	f01e 0f10 	tst.w	lr, #16
 8004de8:	bf08      	it	eq
 8004dea:	ed20 8a10 	vstmdbeq	r0!, {s16-s31}
 8004dee:	e920 4ff0 	stmdb	r0!, {r4, r5, r6, r7, r8, r9, sl, fp, lr}
 8004df2:	6010      	str	r0, [r2, #0]
 8004df4:	b409      	push	{r0, r3}
 8004df6:	f04f 0050 	mov.w	r0, #80	@ 0x50
 8004dfa:	f380 8811 	msr	BASEPRI, r0
 8004dfe:	f3bf 8f4f 	dsb	sy
 8004e02:	f3bf 8f6f 	isb	sy
 8004e06:	f7fe f823 	bl	8002e50 <vTaskSwitchContext>
 8004e0a:	f04f 0000 	mov.w	r0, #0
 8004e0e:	f380 8811 	msr	BASEPRI, r0
 8004e12:	bc09      	pop	{r0, r3}
 8004e14:	6819      	ldr	r1, [r3, #0]
 8004e16:	6808      	ldr	r0, [r1, #0]
 8004e18:	e8b0 4ff0 	ldmia.w	r0!, {r4, r5, r6, r7, r8, r9, sl, fp, lr}
 8004e1c:	f01e 0f10 	tst.w	lr, #16
 8004e20:	bf08      	it	eq
 8004e22:	ecb0 8a10 	vldmiaeq	r0!, {s16-s31}
 8004e26:	f380 8809 	msr	PSP, r0
 8004e2a:	f3bf 8f6f 	isb	sy
 8004e2e:	4770      	bx	lr
 8004e30:	20000008 	.word	0x20000008
        "   bx r14                              \n"
        "                                       \n"
        "   .ltorg                              \n"
        ::"i" ( configMAX_SYSCALL_INTERRUPT_PRIORITY )
    );
}
 8004e34:	bf00      	nop

08004e36 <xPortSysTickHandler>:
/*-----------------------------------------------------------*/

void xPortSysTickHandler( void )
{
 8004e36:	b580      	push	{r7, lr}
 8004e38:	b082      	sub	sp, #8
 8004e3a:	af00      	add	r7, sp, #0
    __asm volatile
 8004e3c:	f04f 0350 	mov.w	r3, #80	@ 0x50
 8004e40:	f383 8811 	msr	BASEPRI, r3
 8004e44:	f3bf 8f6f 	isb	sy
 8004e48:	f3bf 8f4f 	dsb	sy
 8004e4c:	607b      	str	r3, [r7, #4]
}
 8004e4e:	bf00      	nop
     * known. */
    portDISABLE_INTERRUPTS();
    traceISR_ENTER();
    {
        /* Increment the RTOS tick. */
        if( xTaskIncrementTick() != pdFALSE )
 8004e50:	f7fd fef6 	bl	8002c40 <xTaskIncrementTick>
 8004e54:	4603      	mov	r3, r0
 8004e56:	2b00      	cmp	r3, #0
 8004e58:	d003      	beq.n	8004e62 <xPortSysTickHandler+0x2c>
        {
            traceISR_EXIT_TO_SCHEDULER();

            /* A context switch is required.  Context switching is performed in
             * the PendSV interrupt.  Pend the PendSV interrupt. */
            portNVIC_INT_CTRL_REG = portNVIC_PENDSVSET_BIT;
 8004e5a:	4b07      	ldr	r3, [pc, #28]	@ (8004e78 <xPortSysTickHandler+0x42>)
 8004e5c:	f04f 5280 	mov.w	r2, #268435456	@ 0x10000000
 8004e60:	601a      	str	r2, [r3, #0]
 8004e62:	2300      	movs	r3, #0
 8004e64:	603b      	str	r3, [r7, #0]
    __asm volatile
 8004e66:	683b      	ldr	r3, [r7, #0]
 8004e68:	f383 8811 	msr	BASEPRI, r3
}
 8004e6c:	bf00      	nop
        {
            traceISR_EXIT();
        }
    }
    portENABLE_INTERRUPTS();
}
 8004e6e:	bf00      	nop
 8004e70:	3708      	adds	r7, #8
 8004e72:	46bd      	mov	sp, r7
 8004e74:	bd80      	pop	{r7, pc}
 8004e76:	bf00      	nop
 8004e78:	e000ed04 	.word	0xe000ed04

08004e7c <vPortSetupTimerInterrupt>:
/*
 * Setup the systick timer to generate the tick interrupts at the required
 * frequency.
 */
__attribute__( ( weak ) ) void vPortSetupTimerInterrupt( void )
{
 8004e7c:	b480      	push	{r7}
 8004e7e:	af00      	add	r7, sp, #0
        ulStoppedTimerCompensation = portMISSED_COUNTS_FACTOR / ( configCPU_CLOCK_HZ / configSYSTICK_CLOCK_HZ );
    }
    #endif /* configUSE_TICKLESS_IDLE */

    /* Stop and clear the SysTick. */
    portNVIC_SYSTICK_CTRL_REG = 0UL;
 8004e80:	4b08      	ldr	r3, [pc, #32]	@ (8004ea4 <vPortSetupTimerInterrupt+0x28>)
 8004e82:	2200      	movs	r2, #0
 8004e84:	601a      	str	r2, [r3, #0]
    portNVIC_SYSTICK_CURRENT_VALUE_REG = 0UL;
 8004e86:	4b08      	ldr	r3, [pc, #32]	@ (8004ea8 <vPortSetupTimerInterrupt+0x2c>)
 8004e88:	2200      	movs	r2, #0
 8004e8a:	601a      	str	r2, [r3, #0]

    /* Configure SysTick to interrupt at the requested rate. */
    portNVIC_SYSTICK_LOAD_REG = ( configSYSTICK_CLOCK_HZ / configTICK_RATE_HZ ) - 1UL;
 8004e8c:	4b07      	ldr	r3, [pc, #28]	@ (8004eac <vPortSetupTimerInterrupt+0x30>)
 8004e8e:	4a08      	ldr	r2, [pc, #32]	@ (8004eb0 <vPortSetupTimerInterrupt+0x34>)
 8004e90:	601a      	str	r2, [r3, #0]
    portNVIC_SYSTICK_CTRL_REG = ( portNVIC_SYSTICK_CLK_BIT_CONFIG | portNVIC_SYSTICK_INT_BIT | portNVIC_SYSTICK_ENABLE_BIT );
 8004e92:	4b04      	ldr	r3, [pc, #16]	@ (8004ea4 <vPortSetupTimerInterrupt+0x28>)
 8004e94:	2207      	movs	r2, #7
 8004e96:	601a      	str	r2, [r3, #0]
}
 8004e98:	bf00      	nop
 8004e9a:	46bd      	mov	sp, r7
 8004e9c:	f85d 7b04 	ldr.w	r7, [sp], #4
 8004ea0:	4770      	bx	lr
 8004ea2:	bf00      	nop
 8004ea4:	e000e010 	.word	0xe000e010
 8004ea8:	e000e018 	.word	0xe000e018
 8004eac:	e000e014 	.word	0xe000e014
 8004eb0:	0001481f 	.word	0x0001481f

08004eb4 <vPortEnableVFP>:
/*-----------------------------------------------------------*/

/* This is a naked function. */
static void vPortEnableVFP( void )
{
    __asm volatile
 8004eb4:	f8df 000c 	ldr.w	r0, [pc, #12]	@ 8004ec4 <vPortEnableVFP+0x10>
 8004eb8:	6801      	ldr	r1, [r0, #0]
 8004eba:	f441 0170 	orr.w	r1, r1, #15728640	@ 0xf00000
 8004ebe:	6001      	str	r1, [r0, #0]
 8004ec0:	4770      	bx	lr
 8004ec2:	0000      	.short	0x0000
 8004ec4:	e000ed88 	.word	0xe000ed88
        "   orr r1, r1, #( 0xf << 20 )  \n" /* Enable CP10 and CP11 coprocessors, then save back. */
        "   str r1, [r0]                \n"
        "   bx r14                      \n"
        "   .ltorg                      \n"
    );
}
 8004ec8:	bf00      	nop
 8004eca:	bf00      	nop

08004ecc <pvPortMalloc>:
PRIVILEGED_DATA static size_t xNumberOfSuccessfulFrees = ( size_t ) 0U;

/*-----------------------------------------------------------*/

void * pvPortMalloc( size_t xWantedSize )
{
 8004ecc:	b580      	push	{r7, lr}
 8004ece:	b088      	sub	sp, #32
 8004ed0:	af00      	add	r7, sp, #0
 8004ed2:	6078      	str	r0, [r7, #4]
    BlockLink_t * pxBlock;
    BlockLink_t * pxPreviousBlock;
    BlockLink_t * pxNewBlockLink;
    void * pvReturn = NULL;
 8004ed4:	2300      	movs	r3, #0
 8004ed6:	617b      	str	r3, [r7, #20]
    size_t xAdditionalRequiredSize;
    size_t xAllocatedBlockSize = 0;
 8004ed8:	2300      	movs	r3, #0
 8004eda:	613b      	str	r3, [r7, #16]

    if( xWantedSize > 0 )
 8004edc:	687b      	ldr	r3, [r7, #4]
 8004ede:	2b00      	cmp	r3, #0
 8004ee0:	d022      	beq.n	8004f28 <pvPortMalloc+0x5c>
    {
        /* The wanted size must be increased so it can contain a BlockLink_t
         * structure in addition to the requested amount of bytes. */
        if( heapADD_WILL_OVERFLOW( xWantedSize, xHeapStructSize ) == 0 )
 8004ee2:	2308      	movs	r3, #8
 8004ee4:	43db      	mvns	r3, r3
 8004ee6:	687a      	ldr	r2, [r7, #4]
 8004ee8:	429a      	cmp	r2, r3
 8004eea:	d81b      	bhi.n	8004f24 <pvPortMalloc+0x58>
        {
            xWantedSize += xHeapStructSize;
 8004eec:	2208      	movs	r2, #8
 8004eee:	687b      	ldr	r3, [r7, #4]
 8004ef0:	4413      	add	r3, r2
 8004ef2:	607b      	str	r3, [r7, #4]

            /* Ensure that blocks are always aligned to the required number
             * of bytes. */
            if( ( xWantedSize & portBYTE_ALIGNMENT_MASK ) != 0x00 )
 8004ef4:	687b      	ldr	r3, [r7, #4]
 8004ef6:	f003 0307 	and.w	r3, r3, #7
 8004efa:	2b00      	cmp	r3, #0
 8004efc:	d014      	beq.n	8004f28 <pvPortMalloc+0x5c>
            {
                /* Byte alignment required. */
                xAdditionalRequiredSize = portBYTE_ALIGNMENT - ( xWantedSize & portBYTE_ALIGNMENT_MASK );
 8004efe:	687b      	ldr	r3, [r7, #4]
 8004f00:	f003 0307 	and.w	r3, r3, #7
 8004f04:	f1c3 0308 	rsb	r3, r3, #8
 8004f08:	60fb      	str	r3, [r7, #12]

                if( heapADD_WILL_OVERFLOW( xWantedSize, xAdditionalRequiredSize ) == 0 )
 8004f0a:	68fb      	ldr	r3, [r7, #12]
 8004f0c:	43db      	mvns	r3, r3
 8004f0e:	687a      	ldr	r2, [r7, #4]
 8004f10:	429a      	cmp	r2, r3
 8004f12:	d804      	bhi.n	8004f1e <pvPortMalloc+0x52>
                {
                    xWantedSize += xAdditionalRequiredSize;
 8004f14:	687a      	ldr	r2, [r7, #4]
 8004f16:	68fb      	ldr	r3, [r7, #12]
 8004f18:	4413      	add	r3, r2
 8004f1a:	607b      	str	r3, [r7, #4]
 8004f1c:	e004      	b.n	8004f28 <pvPortMalloc+0x5c>
                }
                else
                {
                    xWantedSize = 0;
 8004f1e:	2300      	movs	r3, #0
 8004f20:	607b      	str	r3, [r7, #4]
 8004f22:	e001      	b.n	8004f28 <pvPortMalloc+0x5c>
                mtCOVERAGE_TEST_MARKER();
            }
        }
        else
        {
            xWantedSize = 0;
 8004f24:	2300      	movs	r3, #0
 8004f26:	607b      	str	r3, [r7, #4]
    else
    {
        mtCOVERAGE_TEST_MARKER();
    }

    vTaskSuspendAll();
 8004f28:	f7fd fd26 	bl	8002978 <vTaskSuspendAll>
    {
        /* If this is the first call to malloc then the heap will require
         * initialisation to setup the list of free blocks. */
        if( pxEnd == NULL )
 8004f2c:	4b3e      	ldr	r3, [pc, #248]	@ (8005028 <pvPortMalloc+0x15c>)
 8004f2e:	681b      	ldr	r3, [r3, #0]
 8004f30:	2b00      	cmp	r3, #0
 8004f32:	d101      	bne.n	8004f38 <pvPortMalloc+0x6c>
        {
            prvHeapInit();
 8004f34:	f000 f91b 	bl	800516e <prvHeapInit>

        /* Check the block size we are trying to allocate is not so large that the
         * top bit is set.  The top bit of the block size member of the BlockLink_t
         * structure is used to determine who owns the block - the application or
         * the kernel, so it must be free. */
        if( heapBLOCK_SIZE_IS_VALID( xWantedSize ) != 0 )
 8004f38:	687b      	ldr	r3, [r7, #4]
 8004f3a:	2b00      	cmp	r3, #0
 8004f3c:	db67      	blt.n	800500e <pvPortMalloc+0x142>
        {
            if( ( xWantedSize > 0 ) && ( xWantedSize <= xFreeBytesRemaining ) )
 8004f3e:	687b      	ldr	r3, [r7, #4]
 8004f40:	2b00      	cmp	r3, #0
 8004f42:	d064      	beq.n	800500e <pvPortMalloc+0x142>
 8004f44:	4b39      	ldr	r3, [pc, #228]	@ (800502c <pvPortMalloc+0x160>)
 8004f46:	681b      	ldr	r3, [r3, #0]
 8004f48:	687a      	ldr	r2, [r7, #4]
 8004f4a:	429a      	cmp	r2, r3
 8004f4c:	d85f      	bhi.n	800500e <pvPortMalloc+0x142>
            {
                /* Traverse the list from the start (lowest address) block until
                 * one of adequate size is found. */
                pxPreviousBlock = &xStart;
 8004f4e:	4b38      	ldr	r3, [pc, #224]	@ (8005030 <pvPortMalloc+0x164>)
 8004f50:	61bb      	str	r3, [r7, #24]
                pxBlock = heapPROTECT_BLOCK_POINTER( xStart.pxNextFreeBlock );
 8004f52:	4b37      	ldr	r3, [pc, #220]	@ (8005030 <pvPortMalloc+0x164>)
 8004f54:	681b      	ldr	r3, [r3, #0]
 8004f56:	61fb      	str	r3, [r7, #28]
                heapVALIDATE_BLOCK_POINTER( pxBlock );

                while( ( pxBlock->xBlockSize < xWantedSize ) && ( pxBlock->pxNextFreeBlock != heapPROTECT_BLOCK_POINTER( NULL ) ) )
 8004f58:	e004      	b.n	8004f64 <pvPortMalloc+0x98>
                {
                    pxPreviousBlock = pxBlock;
 8004f5a:	69fb      	ldr	r3, [r7, #28]
 8004f5c:	61bb      	str	r3, [r7, #24]
                    pxBlock = heapPROTECT_BLOCK_POINTER( pxBlock->pxNextFreeBlock );
 8004f5e:	69fb      	ldr	r3, [r7, #28]
 8004f60:	681b      	ldr	r3, [r3, #0]
 8004f62:	61fb      	str	r3, [r7, #28]
                while( ( pxBlock->xBlockSize < xWantedSize ) && ( pxBlock->pxNextFreeBlock != heapPROTECT_BLOCK_POINTER( NULL ) ) )
 8004f64:	69fb      	ldr	r3, [r7, #28]
 8004f66:	685b      	ldr	r3, [r3, #4]
 8004f68:	687a      	ldr	r2, [r7, #4]
 8004f6a:	429a      	cmp	r2, r3
 8004f6c:	d903      	bls.n	8004f76 <pvPortMalloc+0xaa>
 8004f6e:	69fb      	ldr	r3, [r7, #28]
 8004f70:	681b      	ldr	r3, [r3, #0]
 8004f72:	2b00      	cmp	r3, #0
 8004f74:	d1f1      	bne.n	8004f5a <pvPortMalloc+0x8e>
                    heapVALIDATE_BLOCK_POINTER( pxBlock );
                }

                /* If the end marker was reached then a block of adequate size
                 * was not found. */
                if( pxBlock != pxEnd )
 8004f76:	4b2c      	ldr	r3, [pc, #176]	@ (8005028 <pvPortMalloc+0x15c>)
 8004f78:	681b      	ldr	r3, [r3, #0]
 8004f7a:	69fa      	ldr	r2, [r7, #28]
 8004f7c:	429a      	cmp	r2, r3
 8004f7e:	d046      	beq.n	800500e <pvPortMalloc+0x142>
                {
                    /* Return the memory space pointed to - jumping over the
                     * BlockLink_t structure at its start. */
                    pvReturn = ( void * ) ( ( ( uint8_t * ) heapPROTECT_BLOCK_POINTER( pxPreviousBlock->pxNextFreeBlock ) ) + xHeapStructSize );
 8004f80:	69bb      	ldr	r3, [r7, #24]
 8004f82:	681b      	ldr	r3, [r3, #0]
 8004f84:	2208      	movs	r2, #8
 8004f86:	4413      	add	r3, r2
 8004f88:	617b      	str	r3, [r7, #20]
                    heapVALIDATE_BLOCK_POINTER( pvReturn );

                    /* This block is being returned for use so must be taken out
                     * of the list of free blocks. */
                    pxPreviousBlock->pxNextFreeBlock = pxBlock->pxNextFreeBlock;
 8004f8a:	69fb      	ldr	r3, [r7, #28]
 8004f8c:	681a      	ldr	r2, [r3, #0]
 8004f8e:	69bb      	ldr	r3, [r7, #24]
 8004f90:	601a      	str	r2, [r3, #0]

                    /* If the block is larger than required it can be split into
                     * two. */
                    configASSERT( heapSUBTRACT_WILL_UNDERFLOW( pxBlock->xBlockSize, xWantedSize ) == 0 );

                    if( ( pxBlock->xBlockSize - xWantedSize ) > heapMINIMUM_BLOCK_SIZE )
 8004f92:	69fb      	ldr	r3, [r7, #28]
 8004f94:	685a      	ldr	r2, [r3, #4]
 8004f96:	687b      	ldr	r3, [r7, #4]
 8004f98:	1ad2      	subs	r2, r2, r3
 8004f9a:	2308      	movs	r3, #8
 8004f9c:	005b      	lsls	r3, r3, #1
 8004f9e:	429a      	cmp	r2, r3
 8004fa0:	d913      	bls.n	8004fca <pvPortMalloc+0xfe>
                    {
                        /* This block is to be split into two.  Create a new
                         * block following the number of bytes requested. The void
                         * cast is used to prevent byte alignment warnings from the
                         * compiler. */
                        pxNewBlockLink = ( void * ) ( ( ( uint8_t * ) pxBlock ) + xWantedSize );
 8004fa2:	69fa      	ldr	r2, [r7, #28]
 8004fa4:	687b      	ldr	r3, [r7, #4]
 8004fa6:	4413      	add	r3, r2
 8004fa8:	60bb      	str	r3, [r7, #8]
                        configASSERT( ( ( ( size_t ) pxNewBlockLink ) & portBYTE_ALIGNMENT_MASK ) == 0 );

                        /* Calculate the sizes of two blocks split from the
                         * single block. */
                        pxNewBlockLink->xBlockSize = pxBlock->xBlockSize - xWantedSize;
 8004faa:	69fb      	ldr	r3, [r7, #28]
 8004fac:	685a      	ldr	r2, [r3, #4]
 8004fae:	687b      	ldr	r3, [r7, #4]
 8004fb0:	1ad2      	subs	r2, r2, r3
 8004fb2:	68bb      	ldr	r3, [r7, #8]
 8004fb4:	605a      	str	r2, [r3, #4]
                        pxBlock->xBlockSize = xWantedSize;
 8004fb6:	69fb      	ldr	r3, [r7, #28]
 8004fb8:	687a      	ldr	r2, [r7, #4]
 8004fba:	605a      	str	r2, [r3, #4]

                        /* Insert the new block into the list of free blocks. */
                        pxNewBlockLink->pxNextFreeBlock = pxPreviousBlock->pxNextFreeBlock;
 8004fbc:	69bb      	ldr	r3, [r7, #24]
 8004fbe:	681a      	ldr	r2, [r3, #0]
 8004fc0:	68bb      	ldr	r3, [r7, #8]
 8004fc2:	601a      	str	r2, [r3, #0]
                        pxPreviousBlock->pxNextFreeBlock = heapPROTECT_BLOCK_POINTER( pxNewBlockLink );
 8004fc4:	69bb      	ldr	r3, [r7, #24]
 8004fc6:	68ba      	ldr	r2, [r7, #8]
 8004fc8:	601a      	str	r2, [r3, #0]
                    else
                    {
                        mtCOVERAGE_TEST_MARKER();
                    }

                    xFreeBytesRemaining -= pxBlock->xBlockSize;
 8004fca:	4b18      	ldr	r3, [pc, #96]	@ (800502c <pvPortMalloc+0x160>)
 8004fcc:	681a      	ldr	r2, [r3, #0]
 8004fce:	69fb      	ldr	r3, [r7, #28]
 8004fd0:	685b      	ldr	r3, [r3, #4]
 8004fd2:	1ad3      	subs	r3, r2, r3
 8004fd4:	4a15      	ldr	r2, [pc, #84]	@ (800502c <pvPortMalloc+0x160>)
 8004fd6:	6013      	str	r3, [r2, #0]

                    if( xFreeBytesRemaining < xMinimumEverFreeBytesRemaining )
 8004fd8:	4b14      	ldr	r3, [pc, #80]	@ (800502c <pvPortMalloc+0x160>)
 8004fda:	681a      	ldr	r2, [r3, #0]
 8004fdc:	4b15      	ldr	r3, [pc, #84]	@ (8005034 <pvPortMalloc+0x168>)
 8004fde:	681b      	ldr	r3, [r3, #0]
 8004fe0:	429a      	cmp	r2, r3
 8004fe2:	d203      	bcs.n	8004fec <pvPortMalloc+0x120>
                    {
                        xMinimumEverFreeBytesRemaining = xFreeBytesRemaining;
 8004fe4:	4b11      	ldr	r3, [pc, #68]	@ (800502c <pvPortMalloc+0x160>)
 8004fe6:	681b      	ldr	r3, [r3, #0]
 8004fe8:	4a12      	ldr	r2, [pc, #72]	@ (8005034 <pvPortMalloc+0x168>)
 8004fea:	6013      	str	r3, [r2, #0]
                    else
                    {
                        mtCOVERAGE_TEST_MARKER();
                    }

                    xAllocatedBlockSize = pxBlock->xBlockSize;
 8004fec:	69fb      	ldr	r3, [r7, #28]
 8004fee:	685b      	ldr	r3, [r3, #4]
 8004ff0:	613b      	str	r3, [r7, #16]

                    /* The block is being returned - it is allocated and owned
                     * by the application and has no "next" block. */
                    heapALLOCATE_BLOCK( pxBlock );
 8004ff2:	69fb      	ldr	r3, [r7, #28]
 8004ff4:	685b      	ldr	r3, [r3, #4]
 8004ff6:	f043 4200 	orr.w	r2, r3, #2147483648	@ 0x80000000
 8004ffa:	69fb      	ldr	r3, [r7, #28]
 8004ffc:	605a      	str	r2, [r3, #4]
                    pxBlock->pxNextFreeBlock = heapPROTECT_BLOCK_POINTER( NULL );
 8004ffe:	69fb      	ldr	r3, [r7, #28]
 8005000:	2200      	movs	r2, #0
 8005002:	601a      	str	r2, [r3, #0]
                    xNumberOfSuccessfulAllocations++;
 8005004:	4b0c      	ldr	r3, [pc, #48]	@ (8005038 <pvPortMalloc+0x16c>)
 8005006:	681b      	ldr	r3, [r3, #0]
 8005008:	3301      	adds	r3, #1
 800500a:	4a0b      	ldr	r2, [pc, #44]	@ (8005038 <pvPortMalloc+0x16c>)
 800500c:	6013      	str	r3, [r2, #0]
        traceMALLOC( pvReturn, xAllocatedBlockSize );

        /* Prevent compiler warnings when trace macros are not used. */
        ( void ) xAllocatedBlockSize;
    }
    ( void ) xTaskResumeAll();
 800500e:	f7fd fcc1 	bl	8002994 <xTaskResumeAll>

    #if ( configUSE_MALLOC_FAILED_HOOK == 1 )
    {
        if( pvReturn == NULL )
 8005012:	697b      	ldr	r3, [r7, #20]
 8005014:	2b00      	cmp	r3, #0
 8005016:	d101      	bne.n	800501c <pvPortMalloc+0x150>
        {
            vApplicationMallocFailedHook();
 8005018:	f7fb f812 	bl	8000040 <vApplicationMallocFailedHook>
        }
    }
    #endif /* if ( configUSE_MALLOC_FAILED_HOOK == 1 ) */

    configASSERT( ( ( ( size_t ) pvReturn ) & ( size_t ) portBYTE_ALIGNMENT_MASK ) == 0 );
    return pvReturn;
 800501c:	697b      	ldr	r3, [r7, #20]
}
 800501e:	4618      	mov	r0, r3
 8005020:	3720      	adds	r7, #32
 8005022:	46bd      	mov	sp, r7
 8005024:	bd80      	pop	{r7, pc}
 8005026:	bf00      	nop
 8005028:	20002950 	.word	0x20002950
 800502c:	20002954 	.word	0x20002954
 8005030:	20002948 	.word	0x20002948
 8005034:	20002958 	.word	0x20002958
 8005038:	2000295c 	.word	0x2000295c

0800503c <vPortFree>:
/*-----------------------------------------------------------*/

void vPortFree( void * pv )
{
 800503c:	b580      	push	{r7, lr}
 800503e:	b084      	sub	sp, #16
 8005040:	af00      	add	r7, sp, #0
 8005042:	6078      	str	r0, [r7, #4]
    uint8_t * puc = ( uint8_t * ) pv;
 8005044:	687b      	ldr	r3, [r7, #4]
 8005046:	60fb      	str	r3, [r7, #12]
    BlockLink_t * pxLink;

    if( pv != NULL )
 8005048:	687b      	ldr	r3, [r7, #4]
 800504a:	2b00      	cmp	r3, #0
 800504c:	d027      	beq.n	800509e <vPortFree+0x62>
    {
        /* The memory being freed will have an BlockLink_t structure immediately
         * before it. */
        puc -= xHeapStructSize;
 800504e:	2308      	movs	r3, #8
 8005050:	425b      	negs	r3, r3
 8005052:	68fa      	ldr	r2, [r7, #12]
 8005054:	4413      	add	r3, r2
 8005056:	60fb      	str	r3, [r7, #12]

        /* This casting is to keep the compiler from issuing warnings. */
        pxLink = ( void * ) puc;
 8005058:	68fb      	ldr	r3, [r7, #12]
 800505a:	60bb      	str	r3, [r7, #8]

        heapVALIDATE_BLOCK_POINTER( pxLink );
        configASSERT( heapBLOCK_IS_ALLOCATED( pxLink ) != 0 );
        configASSERT( pxLink->pxNextFreeBlock == heapPROTECT_BLOCK_POINTER( NULL ) );

        if( heapBLOCK_IS_ALLOCATED( pxLink ) != 0 )
 800505c:	68bb      	ldr	r3, [r7, #8]
 800505e:	685b      	ldr	r3, [r3, #4]
 8005060:	2b00      	cmp	r3, #0
 8005062:	da1c      	bge.n	800509e <vPortFree+0x62>
        {
            if( pxLink->pxNextFreeBlock == heapPROTECT_BLOCK_POINTER( NULL ) )
 8005064:	68bb      	ldr	r3, [r7, #8]
 8005066:	681b      	ldr	r3, [r3, #0]
 8005068:	2b00      	cmp	r3, #0
 800506a:	d118      	bne.n	800509e <vPortFree+0x62>
            {
                /* The block is being returned to the heap - it is no longer
                 * allocated. */
                heapFREE_BLOCK( pxLink );
 800506c:	68bb      	ldr	r3, [r7, #8]
 800506e:	685b      	ldr	r3, [r3, #4]
 8005070:	f023 4200 	bic.w	r2, r3, #2147483648	@ 0x80000000
 8005074:	68bb      	ldr	r3, [r7, #8]
 8005076:	605a      	str	r2, [r3, #4]
                        ( void ) memset( puc + xHeapStructSize, 0, pxLink->xBlockSize - xHeapStructSize );
                    }
                }
                #endif

                vTaskSuspendAll();
 8005078:	f7fd fc7e 	bl	8002978 <vTaskSuspendAll>
                {
                    /* Add this block to the list of free blocks. */
                    xFreeBytesRemaining += pxLink->xBlockSize;
 800507c:	68bb      	ldr	r3, [r7, #8]
 800507e:	685a      	ldr	r2, [r3, #4]
 8005080:	4b09      	ldr	r3, [pc, #36]	@ (80050a8 <vPortFree+0x6c>)
 8005082:	681b      	ldr	r3, [r3, #0]
 8005084:	4413      	add	r3, r2
 8005086:	4a08      	ldr	r2, [pc, #32]	@ (80050a8 <vPortFree+0x6c>)
 8005088:	6013      	str	r3, [r2, #0]
                    traceFREE( pv, pxLink->xBlockSize );
                    prvInsertBlockIntoFreeList( ( ( BlockLink_t * ) pxLink ) );
 800508a:	68b8      	ldr	r0, [r7, #8]
 800508c:	f000 f8ca 	bl	8005224 <prvInsertBlockIntoFreeList>
                    xNumberOfSuccessfulFrees++;
 8005090:	4b06      	ldr	r3, [pc, #24]	@ (80050ac <vPortFree+0x70>)
 8005092:	681b      	ldr	r3, [r3, #0]
 8005094:	3301      	adds	r3, #1
 8005096:	4a05      	ldr	r2, [pc, #20]	@ (80050ac <vPortFree+0x70>)
 8005098:	6013      	str	r3, [r2, #0]
                }
                ( void ) xTaskResumeAll();
 800509a:	f7fd fc7b 	bl	8002994 <xTaskResumeAll>
        else
        {
            mtCOVERAGE_TEST_MARKER();
        }
    }
}
 800509e:	bf00      	nop
 80050a0:	3710      	adds	r7, #16
 80050a2:	46bd      	mov	sp, r7
 80050a4:	bd80      	pop	{r7, pc}
 80050a6:	bf00      	nop
 80050a8:	20002954 	.word	0x20002954
 80050ac:	20002960 	.word	0x20002960

080050b0 <xPortGetFreeHeapSize>:
/*-----------------------------------------------------------*/

size_t xPortGetFreeHeapSize( void )
{
 80050b0:	b480      	push	{r7}
 80050b2:	af00      	add	r7, sp, #0
    return xFreeBytesRemaining;
 80050b4:	4b03      	ldr	r3, [pc, #12]	@ (80050c4 <xPortGetFreeHeapSize+0x14>)
 80050b6:	681b      	ldr	r3, [r3, #0]
}
 80050b8:	4618      	mov	r0, r3
 80050ba:	46bd      	mov	sp, r7
 80050bc:	f85d 7b04 	ldr.w	r7, [sp], #4
 80050c0:	4770      	bx	lr
 80050c2:	bf00      	nop
 80050c4:	20002954 	.word	0x20002954

080050c8 <xPortGetMinimumEverFreeHeapSize>:
/*-----------------------------------------------------------*/

size_t xPortGetMinimumEverFreeHeapSize( void )
{
 80050c8:	b480      	push	{r7}
 80050ca:	af00      	add	r7, sp, #0
    return xMinimumEverFreeBytesRemaining;
 80050cc:	4b03      	ldr	r3, [pc, #12]	@ (80050dc <xPortGetMinimumEverFreeHeapSize+0x14>)
 80050ce:	681b      	ldr	r3, [r3, #0]
}
 80050d0:	4618      	mov	r0, r3
 80050d2:	46bd      	mov	sp, r7
 80050d4:	f85d 7b04 	ldr.w	r7, [sp], #4
 80050d8:	4770      	bx	lr
 80050da:	bf00      	nop
 80050dc:	20002958 	.word	0x20002958

080050e0 <xPortResetHeapMinimumEverFreeHeapSize>:
/*-----------------------------------------------------------*/

void xPortResetHeapMinimumEverFreeHeapSize( void )
{
 80050e0:	b480      	push	{r7}
 80050e2:	af00      	add	r7, sp, #0
    xMinimumEverFreeBytesRemaining = xFreeBytesRemaining;
 80050e4:	4b04      	ldr	r3, [pc, #16]	@ (80050f8 <xPortResetHeapMinimumEverFreeHeapSize+0x18>)
 80050e6:	681b      	ldr	r3, [r3, #0]
 80050e8:	4a04      	ldr	r2, [pc, #16]	@ (80050fc <xPortResetHeapMinimumEverFreeHeapSize+0x1c>)
 80050ea:	6013      	str	r3, [r2, #0]
}
 80050ec:	bf00      	nop
 80050ee:	46bd      	mov	sp, r7
 80050f0:	f85d 7b04 	ldr.w	r7, [sp], #4
 80050f4:	4770      	bx	lr
 80050f6:	bf00      	nop
 80050f8:	20002954 	.word	0x20002954
 80050fc:	20002958 	.word	0x20002958

08005100 <vPortInitialiseBlocks>:
/*-----------------------------------------------------------*/

void vPortInitialiseBlocks( void )
{
 8005100:	b480      	push	{r7}
 8005102:	af00      	add	r7, sp, #0
    /* This just exists to keep the linker quiet. */
}
 8005104:	bf00      	nop
 8005106:	46bd      	mov	sp, r7
 8005108:	f85d 7b04 	ldr.w	r7, [sp], #4
 800510c:	4770      	bx	lr

0800510e <pvPortCalloc>:
/*-----------------------------------------------------------*/

void * pvPortCalloc( size_t xNum,
                     size_t xSize )
{
 800510e:	b580      	push	{r7, lr}
 8005110:	b084      	sub	sp, #16
 8005112:	af00      	add	r7, sp, #0
 8005114:	6078      	str	r0, [r7, #4]
 8005116:	6039      	str	r1, [r7, #0]
    void * pv = NULL;
 8005118:	2300      	movs	r3, #0
 800511a:	60fb      	str	r3, [r7, #12]

    if( heapMULTIPLY_WILL_OVERFLOW( xNum, xSize ) == 0 )
 800511c:	687b      	ldr	r3, [r7, #4]
 800511e:	2b00      	cmp	r3, #0
 8005120:	d009      	beq.n	8005136 <pvPortCalloc+0x28>
 8005122:	f04f 32ff 	mov.w	r2, #4294967295
 8005126:	687b      	ldr	r3, [r7, #4]
 8005128:	fbb2 f3f3 	udiv	r3, r2, r3
 800512c:	683a      	ldr	r2, [r7, #0]
 800512e:	429a      	cmp	r2, r3
 8005130:	d901      	bls.n	8005136 <pvPortCalloc+0x28>
 8005132:	2301      	movs	r3, #1
 8005134:	e000      	b.n	8005138 <pvPortCalloc+0x2a>
 8005136:	2300      	movs	r3, #0
 8005138:	2b00      	cmp	r3, #0
 800513a:	d113      	bne.n	8005164 <pvPortCalloc+0x56>
    {
        pv = pvPortMalloc( xNum * xSize );
 800513c:	687b      	ldr	r3, [r7, #4]
 800513e:	683a      	ldr	r2, [r7, #0]
 8005140:	fb02 f303 	mul.w	r3, r2, r3
 8005144:	4618      	mov	r0, r3
 8005146:	f7ff fec1 	bl	8004ecc <pvPortMalloc>
 800514a:	60f8      	str	r0, [r7, #12]

        if( pv != NULL )
 800514c:	68fb      	ldr	r3, [r7, #12]
 800514e:	2b00      	cmp	r3, #0
 8005150:	d008      	beq.n	8005164 <pvPortCalloc+0x56>
        {
            ( void ) memset( pv, 0, xNum * xSize );
 8005152:	687b      	ldr	r3, [r7, #4]
 8005154:	683a      	ldr	r2, [r7, #0]
 8005156:	fb02 f303 	mul.w	r3, r2, r3
 800515a:	461a      	mov	r2, r3
 800515c:	2100      	movs	r1, #0
 800515e:	68f8      	ldr	r0, [r7, #12]
 8005160:	f7fb f80b 	bl	800017a <memset>
        }
    }

    return pv;
 8005164:	68fb      	ldr	r3, [r7, #12]
}
 8005166:	4618      	mov	r0, r3
 8005168:	3710      	adds	r7, #16
 800516a:	46bd      	mov	sp, r7
 800516c:	bd80      	pop	{r7, pc}

0800516e <prvHeapInit>:
/*-----------------------------------------------------------*/

static void prvHeapInit( void ) /* PRIVILEGED_FUNCTION */
{
 800516e:	b480      	push	{r7}
 8005170:	b085      	sub	sp, #20
 8005172:	af00      	add	r7, sp, #0
    BlockLink_t * pxFirstFreeBlock;
    portPOINTER_SIZE_TYPE uxStartAddress, uxEndAddress;
    size_t xTotalHeapSize = configTOTAL_HEAP_SIZE;
 8005174:	f44f 5320 	mov.w	r3, #10240	@ 0x2800
 8005178:	60bb      	str	r3, [r7, #8]

    /* Ensure the heap starts on a correctly aligned boundary. */
    uxStartAddress = ( portPOINTER_SIZE_TYPE ) ucHeap;
 800517a:	4b25      	ldr	r3, [pc, #148]	@ (8005210 <prvHeapInit+0xa2>)
 800517c:	60fb      	str	r3, [r7, #12]

    if( ( uxStartAddress & portBYTE_ALIGNMENT_MASK ) != 0 )
 800517e:	68fb      	ldr	r3, [r7, #12]
 8005180:	f003 0307 	and.w	r3, r3, #7
 8005184:	2b00      	cmp	r3, #0
 8005186:	d00c      	beq.n	80051a2 <prvHeapInit+0x34>
    {
        uxStartAddress += ( portBYTE_ALIGNMENT - 1 );
 8005188:	68fb      	ldr	r3, [r7, #12]
 800518a:	3307      	adds	r3, #7
 800518c:	60fb      	str	r3, [r7, #12]
        uxStartAddress &= ~( ( portPOINTER_SIZE_TYPE ) portBYTE_ALIGNMENT_MASK );
 800518e:	68fb      	ldr	r3, [r7, #12]
 8005190:	f023 0307 	bic.w	r3, r3, #7
 8005194:	60fb      	str	r3, [r7, #12]
        xTotalHeapSize -= ( size_t ) ( uxStartAddress - ( portPOINTER_SIZE_TYPE ) ucHeap );
 8005196:	68ba      	ldr	r2, [r7, #8]
 8005198:	68fb      	ldr	r3, [r7, #12]
 800519a:	1ad3      	subs	r3, r2, r3
 800519c:	4a1c      	ldr	r2, [pc, #112]	@ (8005210 <prvHeapInit+0xa2>)
 800519e:	4413      	add	r3, r2
 80051a0:	60bb      	str	r3, [r7, #8]
    }
    #endif

    /* xStart is used to hold a pointer to the first item in the list of free
     * blocks.  The void cast is used to prevent compiler warnings. */
    xStart.pxNextFreeBlock = ( void * ) heapPROTECT_BLOCK_POINTER( uxStartAddress );
 80051a2:	68fb      	ldr	r3, [r7, #12]
 80051a4:	4a1b      	ldr	r2, [pc, #108]	@ (8005214 <prvHeapInit+0xa6>)
 80051a6:	6013      	str	r3, [r2, #0]
    xStart.xBlockSize = ( size_t ) 0;
 80051a8:	4b1a      	ldr	r3, [pc, #104]	@ (8005214 <prvHeapInit+0xa6>)
 80051aa:	2200      	movs	r2, #0
 80051ac:	605a      	str	r2, [r3, #4]

    /* pxEnd is used to mark the end of the list of free blocks and is inserted
     * at the end of the heap space. */
    uxEndAddress = uxStartAddress + ( portPOINTER_SIZE_TYPE ) xTotalHeapSize;
 80051ae:	68fa      	ldr	r2, [r7, #12]
 80051b0:	68bb      	ldr	r3, [r7, #8]
 80051b2:	4413      	add	r3, r2
 80051b4:	607b      	str	r3, [r7, #4]
    uxEndAddress -= ( portPOINTER_SIZE_TYPE ) xHeapStructSize;
 80051b6:	2208      	movs	r2, #8
 80051b8:	687b      	ldr	r3, [r7, #4]
 80051ba:	1a9b      	subs	r3, r3, r2
 80051bc:	607b      	str	r3, [r7, #4]
    uxEndAddress &= ~( ( portPOINTER_SIZE_TYPE ) portBYTE_ALIGNMENT_MASK );
 80051be:	687b      	ldr	r3, [r7, #4]
 80051c0:	f023 0307 	bic.w	r3, r3, #7
 80051c4:	607b      	str	r3, [r7, #4]
    pxEnd = ( BlockLink_t * ) uxEndAddress;
 80051c6:	687b      	ldr	r3, [r7, #4]
 80051c8:	4a13      	ldr	r2, [pc, #76]	@ (8005218 <prvHeapInit+0xaa>)
 80051ca:	6013      	str	r3, [r2, #0]
    pxEnd->xBlockSize = 0;
 80051cc:	4b12      	ldr	r3, [pc, #72]	@ (8005218 <prvHeapInit+0xaa>)
 80051ce:	681b      	ldr	r3, [r3, #0]
 80051d0:	2200      	movs	r2, #0
 80051d2:	605a      	str	r2, [r3, #4]
    pxEnd->pxNextFreeBlock = heapPROTECT_BLOCK_POINTER( NULL );
 80051d4:	4b10      	ldr	r3, [pc, #64]	@ (8005218 <prvHeapInit+0xaa>)
 80051d6:	681b      	ldr	r3, [r3, #0]
 80051d8:	2200      	movs	r2, #0
 80051da:	601a      	str	r2, [r3, #0]

    /* To start with there is a single free block that is sized to take up the
     * entire heap space, minus the space taken by pxEnd. */
    pxFirstFreeBlock = ( BlockLink_t * ) uxStartAddress;
 80051dc:	68fb      	ldr	r3, [r7, #12]
 80051de:	603b      	str	r3, [r7, #0]
    pxFirstFreeBlock->xBlockSize = ( size_t ) ( uxEndAddress - ( portPOINTER_SIZE_TYPE ) pxFirstFreeBlock );
 80051e0:	683b      	ldr	r3, [r7, #0]
 80051e2:	687a      	ldr	r2, [r7, #4]
 80051e4:	1ad2      	subs	r2, r2, r3
 80051e6:	683b      	ldr	r3, [r7, #0]
 80051e8:	605a      	str	r2, [r3, #4]
    pxFirstFreeBlock->pxNextFreeBlock = heapPROTECT_BLOCK_POINTER( pxEnd );
 80051ea:	4b0b      	ldr	r3, [pc, #44]	@ (8005218 <prvHeapInit+0xaa>)
 80051ec:	681a      	ldr	r2, [r3, #0]
 80051ee:	683b      	ldr	r3, [r7, #0]
 80051f0:	601a      	str	r2, [r3, #0]

    /* Only one block exists - and it covers the entire usable heap space. */
    xMinimumEverFreeBytesRemaining = pxFirstFreeBlock->xBlockSize;
 80051f2:	683b      	ldr	r3, [r7, #0]
 80051f4:	685b      	ldr	r3, [r3, #4]
 80051f6:	4a09      	ldr	r2, [pc, #36]	@ (800521c <prvHeapInit+0xae>)
 80051f8:	6013      	str	r3, [r2, #0]
    xFreeBytesRemaining = pxFirstFreeBlock->xBlockSize;
 80051fa:	683b      	ldr	r3, [r7, #0]
 80051fc:	685b      	ldr	r3, [r3, #4]
 80051fe:	4a08      	ldr	r2, [pc, #32]	@ (8005220 <prvHeapInit+0xb2>)
 8005200:	6013      	str	r3, [r2, #0]
}
 8005202:	bf00      	nop
 8005204:	3714      	adds	r7, #20
 8005206:	46bd      	mov	sp, r7
 8005208:	f85d 7b04 	ldr.w	r7, [sp], #4
 800520c:	4770      	bx	lr
 800520e:	bf00      	nop
 8005210:	20000148 	.word	0x20000148
 8005214:	20002948 	.word	0x20002948
 8005218:	20002950 	.word	0x20002950
 800521c:	20002958 	.word	0x20002958
 8005220:	20002954 	.word	0x20002954

08005224 <prvInsertBlockIntoFreeList>:
/*-----------------------------------------------------------*/

static void prvInsertBlockIntoFreeList( BlockLink_t * pxBlockToInsert ) /* PRIVILEGED_FUNCTION */
{
 8005224:	b480      	push	{r7}
 8005226:	b085      	sub	sp, #20
 8005228:	af00      	add	r7, sp, #0
 800522a:	6078      	str	r0, [r7, #4]
    BlockLink_t * pxIterator;
    uint8_t * puc;

    /* Iterate through the list until a block is found that has a higher address
     * than the block being inserted. */
    for( pxIterator = &xStart; heapPROTECT_BLOCK_POINTER( pxIterator->pxNextFreeBlock ) < pxBlockToInsert; pxIterator = heapPROTECT_BLOCK_POINTER( pxIterator->pxNextFreeBlock ) )
 800522c:	4b28      	ldr	r3, [pc, #160]	@ (80052d0 <prvInsertBlockIntoFreeList+0xac>)
 800522e:	60fb      	str	r3, [r7, #12]
 8005230:	e002      	b.n	8005238 <prvInsertBlockIntoFreeList+0x14>
 8005232:	68fb      	ldr	r3, [r7, #12]
 8005234:	681b      	ldr	r3, [r3, #0]
 8005236:	60fb      	str	r3, [r7, #12]
 8005238:	68fb      	ldr	r3, [r7, #12]
 800523a:	681b      	ldr	r3, [r3, #0]
 800523c:	687a      	ldr	r2, [r7, #4]
 800523e:	429a      	cmp	r2, r3
 8005240:	d8f7      	bhi.n	8005232 <prvInsertBlockIntoFreeList+0xe>
        heapVALIDATE_BLOCK_POINTER( pxIterator );
    }

    /* Do the block being inserted, and the block it is being inserted after
     * make a contiguous block of memory? */
    puc = ( uint8_t * ) pxIterator;
 8005242:	68fb      	ldr	r3, [r7, #12]
 8005244:	60bb      	str	r3, [r7, #8]

    if( ( puc + pxIterator->xBlockSize ) == ( uint8_t * ) pxBlockToInsert )
 8005246:	68fb      	ldr	r3, [r7, #12]
 8005248:	685b      	ldr	r3, [r3, #4]
 800524a:	68ba      	ldr	r2, [r7, #8]
 800524c:	4413      	add	r3, r2
 800524e:	687a      	ldr	r2, [r7, #4]
 8005250:	429a      	cmp	r2, r3
 8005252:	d108      	bne.n	8005266 <prvInsertBlockIntoFreeList+0x42>
    {
        pxIterator->xBlockSize += pxBlockToInsert->xBlockSize;
 8005254:	68fb      	ldr	r3, [r7, #12]
 8005256:	685a      	ldr	r2, [r3, #4]
 8005258:	687b      	ldr	r3, [r7, #4]
 800525a:	685b      	ldr	r3, [r3, #4]
 800525c:	441a      	add	r2, r3
 800525e:	68fb      	ldr	r3, [r7, #12]
 8005260:	605a      	str	r2, [r3, #4]
        pxBlockToInsert = pxIterator;
 8005262:	68fb      	ldr	r3, [r7, #12]
 8005264:	607b      	str	r3, [r7, #4]
        mtCOVERAGE_TEST_MARKER();
    }

    /* Do the block being inserted, and the block it is being inserted before
     * make a contiguous block of memory? */
    puc = ( uint8_t * ) pxBlockToInsert;
 8005266:	687b      	ldr	r3, [r7, #4]
 8005268:	60bb      	str	r3, [r7, #8]

    if( ( puc + pxBlockToInsert->xBlockSize ) == ( uint8_t * ) heapPROTECT_BLOCK_POINTER( pxIterator->pxNextFreeBlock ) )
 800526a:	687b      	ldr	r3, [r7, #4]
 800526c:	685b      	ldr	r3, [r3, #4]
 800526e:	68ba      	ldr	r2, [r7, #8]
 8005270:	441a      	add	r2, r3
 8005272:	68fb      	ldr	r3, [r7, #12]
 8005274:	681b      	ldr	r3, [r3, #0]
 8005276:	429a      	cmp	r2, r3
 8005278:	d118      	bne.n	80052ac <prvInsertBlockIntoFreeList+0x88>
    {
        if( heapPROTECT_BLOCK_POINTER( pxIterator->pxNextFreeBlock ) != pxEnd )
 800527a:	68fb      	ldr	r3, [r7, #12]
 800527c:	681a      	ldr	r2, [r3, #0]
 800527e:	4b15      	ldr	r3, [pc, #84]	@ (80052d4 <prvInsertBlockIntoFreeList+0xb0>)
 8005280:	681b      	ldr	r3, [r3, #0]
 8005282:	429a      	cmp	r2, r3
 8005284:	d00d      	beq.n	80052a2 <prvInsertBlockIntoFreeList+0x7e>
        {
            /* Form one big block from the two blocks. */
            pxBlockToInsert->xBlockSize += heapPROTECT_BLOCK_POINTER( pxIterator->pxNextFreeBlock )->xBlockSize;
 8005286:	687b      	ldr	r3, [r7, #4]
 8005288:	685a      	ldr	r2, [r3, #4]
 800528a:	68fb      	ldr	r3, [r7, #12]
 800528c:	681b      	ldr	r3, [r3, #0]
 800528e:	685b      	ldr	r3, [r3, #4]
 8005290:	441a      	add	r2, r3
 8005292:	687b      	ldr	r3, [r7, #4]
 8005294:	605a      	str	r2, [r3, #4]
            pxBlockToInsert->pxNextFreeBlock = heapPROTECT_BLOCK_POINTER( pxIterator->pxNextFreeBlock )->pxNextFreeBlock;
 8005296:	68fb      	ldr	r3, [r7, #12]
 8005298:	681b      	ldr	r3, [r3, #0]
 800529a:	681a      	ldr	r2, [r3, #0]
 800529c:	687b      	ldr	r3, [r7, #4]
 800529e:	601a      	str	r2, [r3, #0]
 80052a0:	e008      	b.n	80052b4 <prvInsertBlockIntoFreeList+0x90>
        }
        else
        {
            pxBlockToInsert->pxNextFreeBlock = heapPROTECT_BLOCK_POINTER( pxEnd );
 80052a2:	4b0c      	ldr	r3, [pc, #48]	@ (80052d4 <prvInsertBlockIntoFreeList+0xb0>)
 80052a4:	681a      	ldr	r2, [r3, #0]
 80052a6:	687b      	ldr	r3, [r7, #4]
 80052a8:	601a      	str	r2, [r3, #0]
 80052aa:	e003      	b.n	80052b4 <prvInsertBlockIntoFreeList+0x90>
        }
    }
    else
    {
        pxBlockToInsert->pxNextFreeBlock = pxIterator->pxNextFreeBlock;
 80052ac:	68fb      	ldr	r3, [r7, #12]
 80052ae:	681a      	ldr	r2, [r3, #0]
 80052b0:	687b      	ldr	r3, [r7, #4]
 80052b2:	601a      	str	r2, [r3, #0]

    /* If the block being inserted plugged a gap, so was merged with the block
     * before and the block after, then it's pxNextFreeBlock pointer will have
     * already been set, and should not be set here as that would make it point
     * to itself. */
    if( pxIterator != pxBlockToInsert )
 80052b4:	68fa      	ldr	r2, [r7, #12]
 80052b6:	687b      	ldr	r3, [r7, #4]
 80052b8:	429a      	cmp	r2, r3
 80052ba:	d002      	beq.n	80052c2 <prvInsertBlockIntoFreeList+0x9e>
    {
        pxIterator->pxNextFreeBlock = heapPROTECT_BLOCK_POINTER( pxBlockToInsert );
 80052bc:	68fb      	ldr	r3, [r7, #12]
 80052be:	687a      	ldr	r2, [r7, #4]
 80052c0:	601a      	str	r2, [r3, #0]
    }
    else
    {
        mtCOVERAGE_TEST_MARKER();
    }
}
 80052c2:	bf00      	nop
 80052c4:	3714      	adds	r7, #20
 80052c6:	46bd      	mov	sp, r7
 80052c8:	f85d 7b04 	ldr.w	r7, [sp], #4
 80052cc:	4770      	bx	lr
 80052ce:	bf00      	nop
 80052d0:	20002948 	.word	0x20002948
 80052d4:	20002950 	.word	0x20002950

080052d8 <vPortGetHeapStats>:
/*-----------------------------------------------------------*/

void vPortGetHeapStats( HeapStats_t * pxHeapStats )
{
 80052d8:	b580      	push	{r7, lr}
 80052da:	b086      	sub	sp, #24
 80052dc:	af00      	add	r7, sp, #0
 80052de:	6078      	str	r0, [r7, #4]
    BlockLink_t * pxBlock;
    size_t xBlocks = 0, xMaxSize = 0, xMinSize = portMAX_DELAY; /* portMAX_DELAY used as a portable way of getting the maximum value. */
 80052e0:	2300      	movs	r3, #0
 80052e2:	613b      	str	r3, [r7, #16]
 80052e4:	2300      	movs	r3, #0
 80052e6:	60fb      	str	r3, [r7, #12]
 80052e8:	f04f 33ff 	mov.w	r3, #4294967295
 80052ec:	60bb      	str	r3, [r7, #8]

    vTaskSuspendAll();
 80052ee:	f7fd fb43 	bl	8002978 <vTaskSuspendAll>
    {
        pxBlock = heapPROTECT_BLOCK_POINTER( xStart.pxNextFreeBlock );
 80052f2:	4b22      	ldr	r3, [pc, #136]	@ (800537c <vPortGetHeapStats+0xa4>)
 80052f4:	681b      	ldr	r3, [r3, #0]
 80052f6:	617b      	str	r3, [r7, #20]

        /* pxBlock will be NULL if the heap has not been initialised.  The heap
         * is initialised automatically when the first allocation is made. */
        if( pxBlock != NULL )
 80052f8:	697b      	ldr	r3, [r7, #20]
 80052fa:	2b00      	cmp	r3, #0
 80052fc:	d01b      	beq.n	8005336 <vPortGetHeapStats+0x5e>
        {
            while( pxBlock != pxEnd )
 80052fe:	e015      	b.n	800532c <vPortGetHeapStats+0x54>
            {
                /* Increment the number of blocks and record the largest block seen
                 * so far. */
                xBlocks++;
 8005300:	693b      	ldr	r3, [r7, #16]
 8005302:	3301      	adds	r3, #1
 8005304:	613b      	str	r3, [r7, #16]

                if( pxBlock->xBlockSize > xMaxSize )
 8005306:	697b      	ldr	r3, [r7, #20]
 8005308:	685b      	ldr	r3, [r3, #4]
 800530a:	68fa      	ldr	r2, [r7, #12]
 800530c:	429a      	cmp	r2, r3
 800530e:	d202      	bcs.n	8005316 <vPortGetHeapStats+0x3e>
                {
                    xMaxSize = pxBlock->xBlockSize;
 8005310:	697b      	ldr	r3, [r7, #20]
 8005312:	685b      	ldr	r3, [r3, #4]
 8005314:	60fb      	str	r3, [r7, #12]
                }

                if( pxBlock->xBlockSize < xMinSize )
 8005316:	697b      	ldr	r3, [r7, #20]
 8005318:	685b      	ldr	r3, [r3, #4]
 800531a:	68ba      	ldr	r2, [r7, #8]
 800531c:	429a      	cmp	r2, r3
 800531e:	d902      	bls.n	8005326 <vPortGetHeapStats+0x4e>
                {
                    xMinSize = pxBlock->xBlockSize;
 8005320:	697b      	ldr	r3, [r7, #20]
 8005322:	685b      	ldr	r3, [r3, #4]
 8005324:	60bb      	str	r3, [r7, #8]
                }

                /* Move to the next block in the chain until the last block is
                 * reached. */
                pxBlock = heapPROTECT_BLOCK_POINTER( pxBlock->pxNextFreeBlock );
 8005326:	697b      	ldr	r3, [r7, #20]
 8005328:	681b      	ldr	r3, [r3, #0]
 800532a:	617b      	str	r3, [r7, #20]
            while( pxBlock != pxEnd )
 800532c:	4b14      	ldr	r3, [pc, #80]	@ (8005380 <vPortGetHeapStats+0xa8>)
 800532e:	681b      	ldr	r3, [r3, #0]
 8005330:	697a      	ldr	r2, [r7, #20]
 8005332:	429a      	cmp	r2, r3
 8005334:	d1e4      	bne.n	8005300 <vPortGetHeapStats+0x28>
            }
        }
    }
    ( void ) xTaskResumeAll();
 8005336:	f7fd fb2d 	bl	8002994 <xTaskResumeAll>

    pxHeapStats->xSizeOfLargestFreeBlockInBytes = xMaxSize;
 800533a:	687b      	ldr	r3, [r7, #4]
 800533c:	68fa      	ldr	r2, [r7, #12]
 800533e:	605a      	str	r2, [r3, #4]
    pxHeapStats->xSizeOfSmallestFreeBlockInBytes = xMinSize;
 8005340:	687b      	ldr	r3, [r7, #4]
 8005342:	68ba      	ldr	r2, [r7, #8]
 8005344:	609a      	str	r2, [r3, #8]
    pxHeapStats->xNumberOfFreeBlocks = xBlocks;
 8005346:	687b      	ldr	r3, [r7, #4]
 8005348:	693a      	ldr	r2, [r7, #16]
 800534a:	60da      	str	r2, [r3, #12]

    taskENTER_CRITICAL();
 800534c:	f7ff fd0f 	bl	8004d6e <vPortEnterCritical>
    {
        pxHeapStats->xAvailableHeapSpaceInBytes = xFreeBytesRemaining;
 8005350:	4b0c      	ldr	r3, [pc, #48]	@ (8005384 <vPortGetHeapStats+0xac>)
 8005352:	681a      	ldr	r2, [r3, #0]
 8005354:	687b      	ldr	r3, [r7, #4]
 8005356:	601a      	str	r2, [r3, #0]
        pxHeapStats->xNumberOfSuccessfulAllocations = xNumberOfSuccessfulAllocations;
 8005358:	4b0b      	ldr	r3, [pc, #44]	@ (8005388 <vPortGetHeapStats+0xb0>)
 800535a:	681a      	ldr	r2, [r3, #0]
 800535c:	687b      	ldr	r3, [r7, #4]
 800535e:	615a      	str	r2, [r3, #20]
        pxHeapStats->xNumberOfSuccessfulFrees = xNumberOfSuccessfulFrees;
 8005360:	4b0a      	ldr	r3, [pc, #40]	@ (800538c <vPortGetHeapStats+0xb4>)
 8005362:	681a      	ldr	r2, [r3, #0]
 8005364:	687b      	ldr	r3, [r7, #4]
 8005366:	619a      	str	r2, [r3, #24]
        pxHeapStats->xMinimumEverFreeBytesRemaining = xMinimumEverFreeBytesRemaining;
 8005368:	4b09      	ldr	r3, [pc, #36]	@ (8005390 <vPortGetHeapStats+0xb8>)
 800536a:	681a      	ldr	r2, [r3, #0]
 800536c:	687b      	ldr	r3, [r7, #4]
 800536e:	611a      	str	r2, [r3, #16]
    }
    taskEXIT_CRITICAL();
 8005370:	f7ff fd18 	bl	8004da4 <vPortExitCritical>
}
 8005374:	bf00      	nop
 8005376:	3718      	adds	r7, #24
 8005378:	46bd      	mov	sp, r7
 800537a:	bd80      	pop	{r7, pc}
 800537c:	20002948 	.word	0x20002948
 8005380:	20002950 	.word	0x20002950
 8005384:	20002954 	.word	0x20002954
 8005388:	2000295c 	.word	0x2000295c
 800538c:	20002960 	.word	0x20002960
 8005390:	20002958 	.word	0x20002958

08005394 <vPortHeapResetState>:
 * Reset the state in this file. This state is normally initialized at start up.
 * This function must be called by the application before restarting the
 * scheduler.
 */
void vPortHeapResetState( void )
{
 8005394:	b480      	push	{r7}
 8005396:	af00      	add	r7, sp, #0
    pxEnd = NULL;
 8005398:	4b09      	ldr	r3, [pc, #36]	@ (80053c0 <vPortHeapResetState+0x2c>)
 800539a:	2200      	movs	r2, #0
 800539c:	601a      	str	r2, [r3, #0]

    xFreeBytesRemaining = ( size_t ) 0U;
 800539e:	4b09      	ldr	r3, [pc, #36]	@ (80053c4 <vPortHeapResetState+0x30>)
 80053a0:	2200      	movs	r2, #0
 80053a2:	601a      	str	r2, [r3, #0]
    xMinimumEverFreeBytesRemaining = ( size_t ) 0U;
 80053a4:	4b08      	ldr	r3, [pc, #32]	@ (80053c8 <vPortHeapResetState+0x34>)
 80053a6:	2200      	movs	r2, #0
 80053a8:	601a      	str	r2, [r3, #0]
    xNumberOfSuccessfulAllocations = ( size_t ) 0U;
 80053aa:	4b08      	ldr	r3, [pc, #32]	@ (80053cc <vPortHeapResetState+0x38>)
 80053ac:	2200      	movs	r2, #0
 80053ae:	601a      	str	r2, [r3, #0]
    xNumberOfSuccessfulFrees = ( size_t ) 0U;
 80053b0:	4b07      	ldr	r3, [pc, #28]	@ (80053d0 <vPortHeapResetState+0x3c>)
 80053b2:	2200      	movs	r2, #0
 80053b4:	601a      	str	r2, [r3, #0]
}
 80053b6:	bf00      	nop
 80053b8:	46bd      	mov	sp, r7
 80053ba:	f85d 7b04 	ldr.w	r7, [sp], #4
 80053be:	4770      	bx	lr
 80053c0:	20002950 	.word	0x20002950
 80053c4:	20002954 	.word	0x20002954
 80053c8:	20002958 	.word	0x20002958
 80053cc:	2000295c 	.word	0x2000295c
 80053d0:	20002960 	.word	0x20002960

080053d4 <Reset_Handler>:
 80053d4:	480a      	ldr	r0, [pc, #40]	@ (8005400 <Reset_Handler+0x2c>)
 80053d6:	490b      	ldr	r1, [pc, #44]	@ (8005404 <Reset_Handler+0x30>)
 80053d8:	4a0b      	ldr	r2, [pc, #44]	@ (8005408 <Reset_Handler+0x34>)
 80053da:	4288      	cmp	r0, r1
 80053dc:	bfbe      	ittt	lt
 80053de:	f852 3b04 	ldrlt.w	r3, [r2], #4
 80053e2:	f840 3b04 	strlt.w	r3, [r0], #4
 80053e6:	e7f8      	blt.n	80053da <Reset_Handler+0x6>
 80053e8:	4808      	ldr	r0, [pc, #32]	@ (800540c <Reset_Handler+0x38>)
 80053ea:	4909      	ldr	r1, [pc, #36]	@ (8005410 <Reset_Handler+0x3c>)
 80053ec:	2200      	movs	r2, #0
 80053ee:	4288      	cmp	r0, r1
 80053f0:	bfb8      	it	lt
 80053f2:	f840 2b04 	strlt.w	r2, [r0], #4
 80053f6:	dbfa      	blt.n	80053ee <Reset_Handler+0x1a>
 80053f8:	f7fa fe42 	bl	8000080 <main>
 80053fc:	e7fe      	b.n	80053fc <Reset_Handler+0x28>
 80053fe:	0000      	.short	0x0000
 8005400:	20000000 	.word	0x20000000
 8005404:	20000004 	.word	0x20000004
 8005408:	0800543c 	.word	0x0800543c
 800540c:	20000004 	.word	0x20000004
 8005410:	20002964 	.word	0x20002964

08005414 <Default_Handler>:
 8005414:	e7fe      	b.n	8005414 <Default_Handler>
 8005416:	0000      	movs	r0, r0
 8005418:	0044454c 	.word	0x0044454c
 800541c:	6e756f43 	.word	0x6e756f43
 8005420:	00726574 	.word	0x00726574

08005424 <uxTopUsedPriority>:
 8005424:	00000004 454c4449 00000000 20726d54     ....IDLE....Tmr 
 8005434:	00637653                                Svc.

08005438 <xHeapStructSize>:
 8005438:	00000008                                ....
